ARM GAS  /tmp/ccR9F1Rl.s 			page 1


   1              		.cpu cortex-m0plus
   2              		.arch armv6s-m
   3              		.fpu softvfp
   4              		.eabi_attribute 20, 1
   5              		.eabi_attribute 21, 1
   6              		.eabi_attribute 23, 3
   7              		.eabi_attribute 24, 1
   8              		.eabi_attribute 25, 1
   9              		.eabi_attribute 26, 1
  10              		.eabi_attribute 30, 1
  11              		.eabi_attribute 34, 0
  12              		.eabi_attribute 18, 4
  13              		.file	"main.c"
  14              		.text
  15              	.Ltext0:
  16              		.cfi_sections	.debug_frame
  17              		.file 1 "Core/Src/main.c"
  18              		.section	.text.MX_GPIO_Init,"ax",%progbits
  19              		.align	1
  20              		.syntax unified
  21              		.code	16
  22              		.thumb_func
  24              	MX_GPIO_Init:
  25              	.LFB374:
   1:Core/Src/main.c **** /* USER CODE BEGIN Header */
   2:Core/Src/main.c **** /**
   3:Core/Src/main.c ****  ******************************************************************************
   4:Core/Src/main.c ****  * @file           : main.c
   5:Core/Src/main.c ****  * @brief          : Main program body
   6:Core/Src/main.c ****  ******************************************************************************
   7:Core/Src/main.c ****  * @attention
   8:Core/Src/main.c ****  *
   9:Core/Src/main.c ****  * Copyright (c) 2026 STMicroelectronics.
  10:Core/Src/main.c ****  * All rights reserved.
  11:Core/Src/main.c ****  *
  12:Core/Src/main.c ****  * This software is licensed under terms that can be found in the LICENSE file
  13:Core/Src/main.c ****  * in the root directory of this software component.
  14:Core/Src/main.c ****  * If no LICENSE file comes with this software, it is provided AS-IS.
  15:Core/Src/main.c ****  *
  16:Core/Src/main.c ****  ******************************************************************************
  17:Core/Src/main.c ****  */
  18:Core/Src/main.c **** /* USER CODE END Header */
  19:Core/Src/main.c **** /* Includes ------------------------------------------------------------------*/
  20:Core/Src/main.c **** #include "main.h"
  21:Core/Src/main.c **** #include "usb_device.h"
  22:Core/Src/main.c **** 
  23:Core/Src/main.c **** /* Private includes ----------------------------------------------------------*/
  24:Core/Src/main.c **** /* USER CODE BEGIN Includes */
  25:Core/Src/main.c **** #include "servo.h"
  26:Core/Src/main.c **** #include <stdio.h>
  27:Core/Src/main.c **** #include <string.h>
  28:Core/Src/main.c **** /* USER CODE END Includes */
  29:Core/Src/main.c **** 
  30:Core/Src/main.c **** /* Private typedef -----------------------------------------------------------*/
  31:Core/Src/main.c **** /* USER CODE BEGIN PTD */
  32:Core/Src/main.c **** 
  33:Core/Src/main.c **** /* USER CODE END PTD */
ARM GAS  /tmp/ccR9F1Rl.s 			page 2


  34:Core/Src/main.c **** 
  35:Core/Src/main.c **** /* Private define ------------------------------------------------------------*/
  36:Core/Src/main.c **** /* USER CODE BEGIN PD */
  37:Core/Src/main.c **** 
  38:Core/Src/main.c **** /* USER CODE END PD */
  39:Core/Src/main.c **** 
  40:Core/Src/main.c **** /* Private macro -------------------------------------------------------------*/
  41:Core/Src/main.c **** /* USER CODE BEGIN PM */
  42:Core/Src/main.c **** 
  43:Core/Src/main.c **** /* USER CODE END PM */
  44:Core/Src/main.c **** 
  45:Core/Src/main.c **** /* Private variables ---------------------------------------------------------*/
  46:Core/Src/main.c **** TIM_HandleTypeDef htim1;
  47:Core/Src/main.c **** 
  48:Core/Src/main.c **** UART_HandleTypeDef huart1;
  49:Core/Src/main.c **** 
  50:Core/Src/main.c **** /* USER CODE BEGIN PV */
  51:Core/Src/main.c **** 
  52:Core/Src/main.c **** /* USER CODE END PV */
  53:Core/Src/main.c **** 
  54:Core/Src/main.c **** /* Private function prototypes -----------------------------------------------*/
  55:Core/Src/main.c **** void SystemClock_Config(void);
  56:Core/Src/main.c **** static void MX_GPIO_Init(void);
  57:Core/Src/main.c **** static void MX_TIM1_Init(void);
  58:Core/Src/main.c **** static void MX_USART1_UART_Init(void);
  59:Core/Src/main.c **** /* USER CODE BEGIN PFP */
  60:Core/Src/main.c **** 
  61:Core/Src/main.c **** /* USER CODE END PFP */
  62:Core/Src/main.c **** 
  63:Core/Src/main.c **** /* Private user code ---------------------------------------------------------*/
  64:Core/Src/main.c **** /* USER CODE BEGIN 0 */
  65:Core/Src/main.c **** 
  66:Core/Src/main.c **** // Position offset
  67:Core/Src/main.c **** static uint16_t position_offset = 0;
  68:Core/Src/main.c **** 
  69:Core/Src/main.c **** // External USB device handle and buffers
  70:Core/Src/main.c **** extern uint8_t UserRxBufferFS[2048];
  71:Core/Src/main.c **** extern USBD_HandleTypeDef hUsbDeviceFS;
  72:Core/Src/main.c **** extern uint8_t CDC_Transmit_FS(uint8_t *Buf, uint16_t Len);
  73:Core/Src/main.c **** 
  74:Core/Src/main.c **** /* USER CODE END 0 */
  75:Core/Src/main.c **** 
  76:Core/Src/main.c **** /**
  77:Core/Src/main.c ****  * @brief  The application entry point.
  78:Core/Src/main.c ****  * @retval int
  79:Core/Src/main.c ****  */
  80:Core/Src/main.c **** int main(void) {
  81:Core/Src/main.c **** 
  82:Core/Src/main.c ****   /* USER CODE BEGIN 1 */
  83:Core/Src/main.c **** 
  84:Core/Src/main.c ****   /* USER CODE END 1 */
  85:Core/Src/main.c **** 
  86:Core/Src/main.c ****   /* MCU Configuration--------------------------------------------------------*/
  87:Core/Src/main.c **** 
  88:Core/Src/main.c ****   /* Reset of all peripherals, Initializes the Flash interface and the Systick.
  89:Core/Src/main.c ****    */
  90:Core/Src/main.c ****   HAL_Init();
ARM GAS  /tmp/ccR9F1Rl.s 			page 3


  91:Core/Src/main.c **** 
  92:Core/Src/main.c ****   /* USER CODE BEGIN Init */
  93:Core/Src/main.c **** 
  94:Core/Src/main.c ****   /* USER CODE END Init */
  95:Core/Src/main.c **** 
  96:Core/Src/main.c ****   /* Configure the system clock */
  97:Core/Src/main.c ****   SystemClock_Config();
  98:Core/Src/main.c **** 
  99:Core/Src/main.c ****   /* USER CODE BEGIN SysInit */
 100:Core/Src/main.c **** 
 101:Core/Src/main.c ****   /* USER CODE END SysInit */
 102:Core/Src/main.c **** 
 103:Core/Src/main.c ****   /* Initialize all configured peripherals */
 104:Core/Src/main.c ****   MX_GPIO_Init();
 105:Core/Src/main.c ****   MX_TIM1_Init();
 106:Core/Src/main.c ****   MX_USART1_UART_Init();
 107:Core/Src/main.c ****   MX_USB_Device_Init();
 108:Core/Src/main.c ****   /* USER CODE BEGIN 2 */
 109:Core/Src/main.c **** 
 110:Core/Src/main.c ****   // Initialize servo
 111:Core/Src/main.c ****   servo_init(1); // Servo ID = 1
 112:Core/Src/main.c **** 
 113:Core/Src/main.c ****   HAL_Delay(100);
 114:Core/Src/main.c **** 
 115:Core/Src/main.c ****   // Read current position and use it as zero reference
 116:Core/Src/main.c ****   uint16_t startup_pos = 0;
 117:Core/Src/main.c ****   servo_status_t status;
 118:Core/Src/main.c ****   while (1) {
 119:Core/Src/main.c ****     status = servo_read_position(&startup_pos);
 120:Core/Src/main.c ****     if (status == SERVO_OK) {
 121:Core/Src/main.c ****       position_offset = startup_pos;
 122:Core/Src/main.c ****       break;
 123:Core/Src/main.c ****     }
 124:Core/Src/main.c ****     HAL_Delay(100); // Retry every 100ms
 125:Core/Src/main.c ****   }
 126:Core/Src/main.c **** 
 127:Core/Src/main.c ****   /* USER CODE END 2 */
 128:Core/Src/main.c **** 
 129:Core/Src/main.c ****   /* Infinite loop */
 130:Core/Src/main.c ****   /* USER CODE BEGIN WHILE */
 131:Core/Src/main.c ****   while (1) {
 132:Core/Src/main.c ****     /* USER CODE END WHILE */
 133:Core/Src/main.c **** 
 134:Core/Src/main.c ****     /* USER CODE BEGIN 3 */
 135:Core/Src/main.c ****   }
 136:Core/Src/main.c ****   /* USER CODE END 3 */
 137:Core/Src/main.c **** }
 138:Core/Src/main.c **** 
 139:Core/Src/main.c **** /**
 140:Core/Src/main.c ****  * @brief System Clock Configuration
 141:Core/Src/main.c ****  * @retval None
 142:Core/Src/main.c ****  */
 143:Core/Src/main.c **** void SystemClock_Config(void) {
 144:Core/Src/main.c ****   RCC_OscInitTypeDef RCC_OscInitStruct = {0};
 145:Core/Src/main.c ****   RCC_ClkInitTypeDef RCC_ClkInitStruct = {0};
 146:Core/Src/main.c **** 
 147:Core/Src/main.c ****   /** Configure the main internal regulator output voltage
ARM GAS  /tmp/ccR9F1Rl.s 			page 4


 148:Core/Src/main.c ****    */
 149:Core/Src/main.c ****   HAL_PWREx_ControlVoltageScaling(PWR_REGULATOR_VOLTAGE_SCALE1);
 150:Core/Src/main.c **** 
 151:Core/Src/main.c ****   /** Initializes the RCC Oscillators according to the specified parameters
 152:Core/Src/main.c ****    * in the RCC_OscInitTypeDef structure.
 153:Core/Src/main.c ****    */
 154:Core/Src/main.c ****   RCC_OscInitStruct.OscillatorType =
 155:Core/Src/main.c ****       RCC_OSCILLATORTYPE_HSI | RCC_OSCILLATORTYPE_HSI48;
 156:Core/Src/main.c ****   RCC_OscInitStruct.HSIState = RCC_HSI_ON;
 157:Core/Src/main.c ****   RCC_OscInitStruct.HSI48State = RCC_HSI48_ON;
 158:Core/Src/main.c ****   RCC_OscInitStruct.HSIDiv = RCC_HSI_DIV1;
 159:Core/Src/main.c ****   RCC_OscInitStruct.HSICalibrationValue = RCC_HSICALIBRATION_DEFAULT;
 160:Core/Src/main.c ****   RCC_OscInitStruct.PLL.PLLState = RCC_PLL_ON;
 161:Core/Src/main.c ****   RCC_OscInitStruct.PLL.PLLSource = RCC_PLLSOURCE_HSI;
 162:Core/Src/main.c ****   RCC_OscInitStruct.PLL.PLLM = RCC_PLLM_DIV1;
 163:Core/Src/main.c ****   RCC_OscInitStruct.PLL.PLLN = 15;
 164:Core/Src/main.c ****   RCC_OscInitStruct.PLL.PLLP = RCC_PLLP_DIV2;
 165:Core/Src/main.c ****   RCC_OscInitStruct.PLL.PLLQ = RCC_PLLQ_DIV2;
 166:Core/Src/main.c ****   RCC_OscInitStruct.PLL.PLLR = RCC_PLLR_DIV4;
 167:Core/Src/main.c ****   if (HAL_RCC_OscConfig(&RCC_OscInitStruct) != HAL_OK) {
 168:Core/Src/main.c ****     Error_Handler();
 169:Core/Src/main.c ****   }
 170:Core/Src/main.c **** 
 171:Core/Src/main.c ****   /** Initializes the CPU, AHB and APB buses clocks
 172:Core/Src/main.c ****    */
 173:Core/Src/main.c ****   RCC_ClkInitStruct.ClockType =
 174:Core/Src/main.c ****       RCC_CLOCKTYPE_HCLK | RCC_CLOCKTYPE_SYSCLK | RCC_CLOCKTYPE_PCLK1;
 175:Core/Src/main.c ****   RCC_ClkInitStruct.SYSCLKSource = RCC_SYSCLKSOURCE_PLLCLK;
 176:Core/Src/main.c ****   RCC_ClkInitStruct.AHBCLKDivider = RCC_SYSCLK_DIV1;
 177:Core/Src/main.c ****   RCC_ClkInitStruct.APB1CLKDivider = RCC_HCLK_DIV1;
 178:Core/Src/main.c **** 
 179:Core/Src/main.c ****   if (HAL_RCC_ClockConfig(&RCC_ClkInitStruct, FLASH_LATENCY_2) != HAL_OK) {
 180:Core/Src/main.c ****     Error_Handler();
 181:Core/Src/main.c ****   }
 182:Core/Src/main.c **** }
 183:Core/Src/main.c **** 
 184:Core/Src/main.c **** /**
 185:Core/Src/main.c ****  * @brief TIM1 Initialization Function
 186:Core/Src/main.c ****  * @param None
 187:Core/Src/main.c ****  * @retval None
 188:Core/Src/main.c ****  */
 189:Core/Src/main.c **** static void MX_TIM1_Init(void) {
 190:Core/Src/main.c **** 
 191:Core/Src/main.c ****   /* USER CODE BEGIN TIM1_Init 0 */
 192:Core/Src/main.c **** 
 193:Core/Src/main.c ****   /* USER CODE END TIM1_Init 0 */
 194:Core/Src/main.c **** 
 195:Core/Src/main.c ****   TIM_ClockConfigTypeDef sClockSourceConfig = {0};
 196:Core/Src/main.c ****   TIM_MasterConfigTypeDef sMasterConfig = {0};
 197:Core/Src/main.c **** 
 198:Core/Src/main.c ****   /* USER CODE BEGIN TIM1_Init 1 */
 199:Core/Src/main.c **** 
 200:Core/Src/main.c ****   /* USER CODE END TIM1_Init 1 */
 201:Core/Src/main.c ****   htim1.Instance = TIM1;
 202:Core/Src/main.c ****   htim1.Init.Prescaler = 479;
 203:Core/Src/main.c ****   htim1.Init.CounterMode = TIM_COUNTERMODE_UP;
 204:Core/Src/main.c ****   htim1.Init.Period = 255;
ARM GAS  /tmp/ccR9F1Rl.s 			page 5


 205:Core/Src/main.c ****   htim1.Init.ClockDivision = TIM_CLOCKDIVISION_DIV1;
 206:Core/Src/main.c ****   htim1.Init.RepetitionCounter = 0;
 207:Core/Src/main.c ****   htim1.Init.AutoReloadPreload = TIM_AUTORELOAD_PRELOAD_DISABLE;
 208:Core/Src/main.c ****   if (HAL_TIM_Base_Init(&htim1) != HAL_OK) {
 209:Core/Src/main.c ****     Error_Handler();
 210:Core/Src/main.c ****   }
 211:Core/Src/main.c ****   sClockSourceConfig.ClockSource = TIM_CLOCKSOURCE_INTERNAL;
 212:Core/Src/main.c ****   if (HAL_TIM_ConfigClockSource(&htim1, &sClockSourceConfig) != HAL_OK) {
 213:Core/Src/main.c ****     Error_Handler();
 214:Core/Src/main.c ****   }
 215:Core/Src/main.c ****   sMasterConfig.MasterOutputTrigger = TIM_TRGO_RESET;
 216:Core/Src/main.c ****   sMasterConfig.MasterOutputTrigger2 = TIM_TRGO2_RESET;
 217:Core/Src/main.c ****   sMasterConfig.MasterSlaveMode = TIM_MASTERSLAVEMODE_DISABLE;
 218:Core/Src/main.c ****   if (HAL_TIMEx_MasterConfigSynchronization(&htim1, &sMasterConfig) != HAL_OK) {
 219:Core/Src/main.c ****     Error_Handler();
 220:Core/Src/main.c ****   }
 221:Core/Src/main.c ****   /* USER CODE BEGIN TIM1_Init 2 */
 222:Core/Src/main.c **** 
 223:Core/Src/main.c ****   /* USER CODE END TIM1_Init 2 */
 224:Core/Src/main.c **** }
 225:Core/Src/main.c **** 
 226:Core/Src/main.c **** /**
 227:Core/Src/main.c ****  * @brief USART1 Initialization Function
 228:Core/Src/main.c ****  * @param None
 229:Core/Src/main.c ****  * @retval None
 230:Core/Src/main.c ****  */
 231:Core/Src/main.c **** static void MX_USART1_UART_Init(void) {
 232:Core/Src/main.c **** 
 233:Core/Src/main.c ****   /* USER CODE BEGIN USART1_Init 0 */
 234:Core/Src/main.c **** 
 235:Core/Src/main.c ****   /* USER CODE END USART1_Init 0 */
 236:Core/Src/main.c **** 
 237:Core/Src/main.c ****   /* USER CODE BEGIN USART1_Init 1 */
 238:Core/Src/main.c **** 
 239:Core/Src/main.c ****   /* USER CODE END USART1_Init 1 */
 240:Core/Src/main.c ****   huart1.Instance = USART1;
 241:Core/Src/main.c ****   huart1.Init.BaudRate = 1000000;
 242:Core/Src/main.c ****   huart1.Init.WordLength = UART_WORDLENGTH_8B;
 243:Core/Src/main.c ****   huart1.Init.StopBits = UART_STOPBITS_1;
 244:Core/Src/main.c ****   huart1.Init.Parity = UART_PARITY_NONE;
 245:Core/Src/main.c ****   huart1.Init.Mode = UART_MODE_TX_RX;
 246:Core/Src/main.c ****   huart1.Init.HwFlowCtl = UART_HWCONTROL_NONE;
 247:Core/Src/main.c ****   huart1.Init.OverSampling = UART_OVERSAMPLING_16;
 248:Core/Src/main.c ****   huart1.Init.OneBitSampling = UART_ONE_BIT_SAMPLE_DISABLE;
 249:Core/Src/main.c ****   huart1.Init.ClockPrescaler = UART_PRESCALER_DIV1;
 250:Core/Src/main.c ****   huart1.AdvancedInit.AdvFeatureInit = UART_ADVFEATURE_RXOVERRUNDISABLE_INIT;
 251:Core/Src/main.c ****   huart1.AdvancedInit.OverrunDisable = UART_ADVFEATURE_OVERRUN_DISABLE;
 252:Core/Src/main.c ****   if (HAL_HalfDuplex_Init(&huart1) != HAL_OK) {
 253:Core/Src/main.c ****     Error_Handler();
 254:Core/Src/main.c ****   }
 255:Core/Src/main.c ****   if (HAL_UARTEx_SetTxFifoThreshold(&huart1, UART_TXFIFO_THRESHOLD_1_8) !=
 256:Core/Src/main.c ****       HAL_OK) {
 257:Core/Src/main.c ****     Error_Handler();
 258:Core/Src/main.c ****   }
 259:Core/Src/main.c ****   if (HAL_UARTEx_SetRxFifoThreshold(&huart1, UART_RXFIFO_THRESHOLD_1_8) !=
 260:Core/Src/main.c ****       HAL_OK) {
 261:Core/Src/main.c ****     Error_Handler();
ARM GAS  /tmp/ccR9F1Rl.s 			page 6


 262:Core/Src/main.c ****   }
 263:Core/Src/main.c ****   if (HAL_UARTEx_DisableFifoMode(&huart1) != HAL_OK) {
 264:Core/Src/main.c ****     Error_Handler();
 265:Core/Src/main.c ****   }
 266:Core/Src/main.c ****   /* USER CODE BEGIN USART1_Init 2 */
 267:Core/Src/main.c **** 
 268:Core/Src/main.c ****   /* USER CODE END USART1_Init 2 */
 269:Core/Src/main.c **** }
 270:Core/Src/main.c **** 
 271:Core/Src/main.c **** /**
 272:Core/Src/main.c ****  * @brief GPIO Initialization Function
 273:Core/Src/main.c ****  * @param None
 274:Core/Src/main.c ****  * @retval None
 275:Core/Src/main.c ****  */
 276:Core/Src/main.c **** static void MX_GPIO_Init(void) {
  26              		.loc 1 276 32 view -0
  27              		.cfi_startproc
  28              		@ args = 0, pretend = 0, frame = 8
  29              		@ frame_needed = 0, uses_anonymous_args = 0
  30              		@ link register save eliminated.
  31 0000 82B0     		sub	sp, sp, #8
  32              	.LCFI0:
  33              		.cfi_def_cfa_offset 8
 277:Core/Src/main.c ****   /* USER CODE BEGIN MX_GPIO_Init_1 */
 278:Core/Src/main.c **** 
 279:Core/Src/main.c ****   /* USER CODE END MX_GPIO_Init_1 */
 280:Core/Src/main.c **** 
 281:Core/Src/main.c ****   /* GPIO Ports Clock Enable */
 282:Core/Src/main.c ****   __HAL_RCC_GPIOA_CLK_ENABLE();
  34              		.loc 1 282 3 view .LVU1
  35              	.LBB4:
  36              		.loc 1 282 3 view .LVU2
  37              		.loc 1 282 3 view .LVU3
  38 0002 094B     		ldr	r3, .L2
  39 0004 596B     		ldr	r1, [r3, #52]
  40 0006 0122     		movs	r2, #1
  41 0008 1143     		orrs	r1, r2
  42 000a 5963     		str	r1, [r3, #52]
  43              		.loc 1 282 3 view .LVU4
  44 000c 596B     		ldr	r1, [r3, #52]
  45 000e 0A40     		ands	r2, r1
  46 0010 0092     		str	r2, [sp]
  47              		.loc 1 282 3 view .LVU5
  48 0012 009A     		ldr	r2, [sp]
  49              	.LBE4:
  50              		.loc 1 282 3 view .LVU6
 283:Core/Src/main.c ****   __HAL_RCC_GPIOB_CLK_ENABLE();
  51              		.loc 1 283 3 view .LVU7
  52              	.LBB5:
  53              		.loc 1 283 3 view .LVU8
  54              		.loc 1 283 3 view .LVU9
  55 0014 596B     		ldr	r1, [r3, #52]
  56 0016 0222     		movs	r2, #2
  57 0018 1143     		orrs	r1, r2
  58 001a 5963     		str	r1, [r3, #52]
  59              		.loc 1 283 3 view .LVU10
  60 001c 5B6B     		ldr	r3, [r3, #52]
ARM GAS  /tmp/ccR9F1Rl.s 			page 7


  61 001e 1A40     		ands	r2, r3
  62 0020 0192     		str	r2, [sp, #4]
  63              		.loc 1 283 3 view .LVU11
  64 0022 019B     		ldr	r3, [sp, #4]
  65              	.LBE5:
  66              		.loc 1 283 3 view .LVU12
 284:Core/Src/main.c **** 
 285:Core/Src/main.c ****   /* USER CODE BEGIN MX_GPIO_Init_2 */
 286:Core/Src/main.c **** 
 287:Core/Src/main.c ****   /* USER CODE END MX_GPIO_Init_2 */
 288:Core/Src/main.c **** }
  67              		.loc 1 288 1 is_stmt 0 view .LVU13
  68 0024 02B0     		add	sp, sp, #8
  69              		@ sp needed
  70 0026 7047     		bx	lr
  71              	.L3:
  72              		.align	2
  73              	.L2:
  74 0028 00100240 		.word	1073876992
  75              		.cfi_endproc
  76              	.LFE374:
  78              		.section	.text.process_degree_command,"ax",%progbits
  79              		.align	1
  80              		.global	process_degree_command
  81              		.syntax unified
  82              		.code	16
  83              		.thumb_func
  85              	process_degree_command:
  86              	.LVL0:
  87              	.LFB375:
 289:Core/Src/main.c **** 
 290:Core/Src/main.c **** /* USER CODE BEGIN 4 */
 291:Core/Src/main.c **** 
 292:Core/Src/main.c **** // Binary protocol commands
 293:Core/Src/main.c **** #define CMD_SET_POSITION 0x01
 294:Core/Src/main.c **** #define CMD_READ_POSITION 0x02
 295:Core/Src/main.c **** 
 296:Core/Src/main.c **** void process_degree_command(uint8_t *cmd, uint16_t len) {
  88              		.loc 1 296 57 is_stmt 1 view -0
  89              		.cfi_startproc
  90              		@ args = 0, pretend = 0, frame = 16
  91              		@ frame_needed = 0, uses_anonymous_args = 0
  92              		.loc 1 296 57 is_stmt 0 view .LVU15
  93 0000 00B5     		push	{lr}
  94              	.LCFI1:
  95              		.cfi_def_cfa_offset 4
  96              		.cfi_offset 14, -4
  97 0002 85B0     		sub	sp, sp, #20
  98              	.LCFI2:
  99              		.cfi_def_cfa_offset 24
 297:Core/Src/main.c ****   if (len == 0) {
 100              		.loc 1 297 3 is_stmt 1 view .LVU16
 101              		.loc 1 297 6 is_stmt 0 view .LVU17
 102 0004 0029     		cmp	r1, #0
 103 0006 3FD0     		beq	.L4
 298:Core/Src/main.c ****     return;
 299:Core/Src/main.c ****   }
ARM GAS  /tmp/ccR9F1Rl.s 			page 8


 300:Core/Src/main.c **** 
 301:Core/Src/main.c ****   uint8_t response[8];
 104              		.loc 1 301 3 is_stmt 1 view .LVU18
 302:Core/Src/main.c ****   uint16_t response_len = 0;
 105              		.loc 1 302 3 view .LVU19
 106              	.LVL1:
 303:Core/Src/main.c **** 
 304:Core/Src/main.c ****   switch (cmd[0]) {
 107              		.loc 1 304 3 view .LVU20
 108              		.loc 1 304 14 is_stmt 0 view .LVU21
 109 0008 0378     		ldrb	r3, [r0]
 110              		.loc 1 304 3 view .LVU22
 111 000a 012B     		cmp	r3, #1
 112 000c 06D0     		beq	.L7
 113 000e 022B     		cmp	r3, #2
 114 0010 1ED0     		beq	.L8
 305:Core/Src/main.c ****   case CMD_SET_POSITION:
 306:Core/Src/main.c ****     // Format: [0x01] [POS_HIGH] [POS_LOW]
 307:Core/Src/main.c ****     if (len >= 3) {
 308:Core/Src/main.c ****       uint16_t position = (cmd[1] << 8) | cmd[2];
 309:Core/Src/main.c **** 
 310:Core/Src/main.c ****       // Apply offset (relative to startup position)
 311:Core/Src/main.c ****       uint32_t actual_position_wide = (uint32_t)position + (uint32_t)position_offset;
 312:Core/Src/main.c **** 
 313:Core/Src/main.c ****       // Clamp to servo range (0-1023)
 314:Core/Src/main.c ****       if (actual_position_wide > 1023) {
 315:Core/Src/main.c ****         actual_position_wide = 1023;
 316:Core/Src/main.c ****       }
 317:Core/Src/main.c ****       uint16_t actual_position = (uint16_t)actual_position_wide;
 318:Core/Src/main.c ****       
 319:Core/Src/main.c ****       // Reverse rotation direction (clockwise to counterclockwise)
 320:Core/Src/main.c ****       actual_position = 1023 - actual_position;
 321:Core/Src/main.c **** 
 322:Core/Src/main.c ****       servo_status_t status = servo_set_position(actual_position, 200, 0);
 323:Core/Src/main.c **** 
 324:Core/Src/main.c ****       // Response: [STATUS]
 325:Core/Src/main.c ****       response[0] = (uint8_t)status;
 326:Core/Src/main.c ****       response_len = 1;
 327:Core/Src/main.c ****     }
 328:Core/Src/main.c ****     break;
 329:Core/Src/main.c **** 
 330:Core/Src/main.c ****   case CMD_READ_POSITION:
 331:Core/Src/main.c ****     // Format: [0x02]
 332:Core/Src/main.c ****     {
 333:Core/Src/main.c ****       uint16_t pos = 0;
 334:Core/Src/main.c ****       servo_status_t status = servo_read_position(&pos);
 335:Core/Src/main.c **** 
 336:Core/Src/main.c ****       // Remove offset to get position relative to startup
 337:Core/Src/main.c ****       int32_t relative_pos = (int32_t)pos - (int32_t)position_offset;
 338:Core/Src/main.c ****       if (relative_pos < 0) {
 339:Core/Src/main.c ****         relative_pos = 0;
 340:Core/Src/main.c ****       }
 341:Core/Src/main.c ****       if (relative_pos > 1023) {
 342:Core/Src/main.c ****         relative_pos = 1023;
 343:Core/Src/main.c ****       }
 344:Core/Src/main.c **** 
 345:Core/Src/main.c ****       // Response: [STATUS] [POS_HIGH] [POS_LOW]
ARM GAS  /tmp/ccR9F1Rl.s 			page 9


 346:Core/Src/main.c ****       response[0] = (uint8_t)status;
 347:Core/Src/main.c ****       response[1] = (relative_pos >> 8) & 0xFF;
 348:Core/Src/main.c ****       response[2] = relative_pos & 0xFF;
 349:Core/Src/main.c ****       response_len = 3;
 350:Core/Src/main.c ****     }
 351:Core/Src/main.c ****     break;
 352:Core/Src/main.c **** 
 353:Core/Src/main.c ****   default:
 354:Core/Src/main.c ****     // Unknown command
 355:Core/Src/main.c ****     response[0] = 0xFF;
 115              		.loc 1 355 5 is_stmt 1 view .LVU23
 116              		.loc 1 355 17 is_stmt 0 view .LVU24
 117 0012 02AB     		add	r3, sp, #8
 118 0014 FF22     		movs	r2, #255
 119 0016 1A70     		strb	r2, [r3]
 356:Core/Src/main.c ****     response_len = 1;
 120              		.loc 1 356 5 is_stmt 1 view .LVU25
 121              	.LVL2:
 357:Core/Src/main.c ****     break;
 122              		.loc 1 357 5 view .LVU26
 358:Core/Src/main.c ****   }
 359:Core/Src/main.c **** 
 360:Core/Src/main.c ****   if (response_len > 0) {
 123              		.loc 1 360 3 view .LVU27
 356:Core/Src/main.c ****     break;
 124              		.loc 1 356 18 is_stmt 0 view .LVU28
 125 0018 0121     		movs	r1, #1
 126              	.LVL3:
 356:Core/Src/main.c ****     break;
 127              		.loc 1 356 18 view .LVU29
 128 001a 32E0     		b	.L12
 129              	.LVL4:
 130              	.L7:
 307:Core/Src/main.c ****       uint16_t position = (cmd[1] << 8) | cmd[2];
 131              		.loc 1 307 5 is_stmt 1 view .LVU30
 307:Core/Src/main.c ****       uint16_t position = (cmd[1] << 8) | cmd[2];
 132              		.loc 1 307 8 is_stmt 0 view .LVU31
 133 001c 0229     		cmp	r1, #2
 134 001e 33D9     		bls	.L4
 135              	.LBB6:
 308:Core/Src/main.c **** 
 136              		.loc 1 308 7 is_stmt 1 view .LVU32
 308:Core/Src/main.c **** 
 137              		.loc 1 308 31 is_stmt 0 view .LVU33
 138 0020 4278     		ldrb	r2, [r0, #1]
 308:Core/Src/main.c **** 
 139              		.loc 1 308 46 view .LVU34
 140 0022 8378     		ldrb	r3, [r0, #2]
 308:Core/Src/main.c **** 
 141              		.loc 1 308 41 view .LVU35
 142 0024 1202     		lsls	r2, r2, #8
 308:Core/Src/main.c **** 
 143              		.loc 1 308 16 view .LVU36
 144 0026 1343     		orrs	r3, r2
 145              	.LVL5:
 311:Core/Src/main.c **** 
 146              		.loc 1 311 7 is_stmt 1 view .LVU37
ARM GAS  /tmp/ccR9F1Rl.s 			page 10


 311:Core/Src/main.c **** 
 147              		.loc 1 311 60 is_stmt 0 view .LVU38
 148 0028 184A     		ldr	r2, .L18
 149 002a 1288     		ldrh	r2, [r2]
 311:Core/Src/main.c **** 
 150              		.loc 1 311 16 view .LVU39
 151 002c 9B18     		adds	r3, r3, r2
 152              	.LVL6:
 314:Core/Src/main.c ****         actual_position_wide = 1023;
 153              		.loc 1 314 7 is_stmt 1 view .LVU40
 314:Core/Src/main.c ****         actual_position_wide = 1023;
 154              		.loc 1 314 10 is_stmt 0 view .LVU41
 155 002e 8022     		movs	r2, #128
 156 0030 D200     		lsls	r2, r2, #3
 157 0032 9342     		cmp	r3, r2
 158 0034 00D3     		bcc	.L11
 315:Core/Src/main.c ****       }
 159              		.loc 1 315 30 view .LVU42
 160 0036 164B     		ldr	r3, .L18+4
 161              	.LVL7:
 162              	.L11:
 317:Core/Src/main.c ****       
 163              		.loc 1 317 7 is_stmt 1 view .LVU43
 317:Core/Src/main.c ****       
 164              		.loc 1 317 16 is_stmt 0 view .LVU44
 165 0038 9BB2     		uxth	r3, r3
 166              	.LVL8:
 320:Core/Src/main.c **** 
 167              		.loc 1 320 7 is_stmt 1 view .LVU45
 320:Core/Src/main.c **** 
 168              		.loc 1 320 23 is_stmt 0 view .LVU46
 169 003a 1548     		ldr	r0, .L18+4
 170              	.LVL9:
 320:Core/Src/main.c **** 
 171              		.loc 1 320 23 view .LVU47
 172 003c C01A     		subs	r0, r0, r3
 173 003e 80B2     		uxth	r0, r0
 174              	.LVL10:
 322:Core/Src/main.c **** 
 175              		.loc 1 322 7 is_stmt 1 view .LVU48
 322:Core/Src/main.c **** 
 176              		.loc 1 322 31 is_stmt 0 view .LVU49
 177 0040 0022     		movs	r2, #0
 178 0042 C821     		movs	r1, #200
 179              	.LVL11:
 322:Core/Src/main.c **** 
 180              		.loc 1 322 31 view .LVU50
 181 0044 FFF7FEFF 		bl	servo_set_position
 182              	.LVL12:
 325:Core/Src/main.c ****       response_len = 1;
 183              		.loc 1 325 7 is_stmt 1 view .LVU51
 325:Core/Src/main.c ****       response_len = 1;
 184              		.loc 1 325 19 is_stmt 0 view .LVU52
 185 0048 02AB     		add	r3, sp, #8
 186 004a 1870     		strb	r0, [r3]
 326:Core/Src/main.c ****     }
 187              		.loc 1 326 7 is_stmt 1 view .LVU53
ARM GAS  /tmp/ccR9F1Rl.s 			page 11


 188              	.LVL13:
 326:Core/Src/main.c ****     }
 189              		.loc 1 326 7 is_stmt 0 view .LVU54
 190              	.LBE6:
 191              		.loc 1 360 3 is_stmt 1 view .LVU55
 192              	.LBB7:
 326:Core/Src/main.c ****     }
 193              		.loc 1 326 20 is_stmt 0 view .LVU56
 194 004c 0121     		movs	r1, #1
 195 004e 18E0     		b	.L12
 196              	.LVL14:
 197              	.L8:
 326:Core/Src/main.c ****     }
 198              		.loc 1 326 20 view .LVU57
 199              	.LBE7:
 200              	.LBB8:
 333:Core/Src/main.c ****       servo_status_t status = servo_read_position(&pos);
 201              		.loc 1 333 7 is_stmt 1 view .LVU58
 333:Core/Src/main.c ****       servo_status_t status = servo_read_position(&pos);
 202              		.loc 1 333 16 is_stmt 0 view .LVU59
 203 0050 0023     		movs	r3, #0
 204 0052 6A46     		mov	r2, sp
 205 0054 D380     		strh	r3, [r2, #6]
 334:Core/Src/main.c **** 
 206              		.loc 1 334 7 is_stmt 1 view .LVU60
 334:Core/Src/main.c **** 
 207              		.loc 1 334 31 is_stmt 0 view .LVU61
 208 0056 901D     		adds	r0, r2, #6
 209              	.LVL15:
 334:Core/Src/main.c **** 
 210              		.loc 1 334 31 view .LVU62
 211 0058 FFF7FEFF 		bl	servo_read_position
 212              	.LVL16:
 337:Core/Src/main.c ****       if (relative_pos < 0) {
 213              		.loc 1 337 7 is_stmt 1 view .LVU63
 337:Core/Src/main.c ****       if (relative_pos < 0) {
 214              		.loc 1 337 30 is_stmt 0 view .LVU64
 215 005c 6B46     		mov	r3, sp
 216 005e DB88     		ldrh	r3, [r3, #6]
 337:Core/Src/main.c ****       if (relative_pos < 0) {
 217              		.loc 1 337 45 view .LVU65
 218 0060 0A4A     		ldr	r2, .L18
 219 0062 1288     		ldrh	r2, [r2]
 337:Core/Src/main.c ****       if (relative_pos < 0) {
 220              		.loc 1 337 15 view .LVU66
 221 0064 9B1A     		subs	r3, r3, r2
 222              	.LVL17:
 338:Core/Src/main.c ****         relative_pos = 0;
 223              		.loc 1 338 7 is_stmt 1 view .LVU67
 338:Core/Src/main.c ****         relative_pos = 0;
 224              		.loc 1 338 10 is_stmt 0 view .LVU68
 225 0066 05D4     		bmi	.L15
 341:Core/Src/main.c ****         relative_pos = 1023;
 226              		.loc 1 341 7 is_stmt 1 view .LVU69
 341:Core/Src/main.c ****         relative_pos = 1023;
 227              		.loc 1 341 10 is_stmt 0 view .LVU70
 228 0068 8022     		movs	r2, #128
ARM GAS  /tmp/ccR9F1Rl.s 			page 12


 229 006a D200     		lsls	r2, r2, #3
 230 006c 9342     		cmp	r3, r2
 231 006e 02DB     		blt	.L13
 342:Core/Src/main.c ****       }
 232              		.loc 1 342 22 view .LVU71
 233 0070 074B     		ldr	r3, .L18+4
 234              	.LVL18:
 342:Core/Src/main.c ****       }
 235              		.loc 1 342 22 view .LVU72
 236 0072 00E0     		b	.L13
 237              	.LVL19:
 238              	.L15:
 339:Core/Src/main.c ****       }
 239              		.loc 1 339 22 view .LVU73
 240 0074 0023     		movs	r3, #0
 241              	.LVL20:
 242              	.L13:
 346:Core/Src/main.c ****       response[1] = (relative_pos >> 8) & 0xFF;
 243              		.loc 1 346 7 is_stmt 1 view .LVU74
 346:Core/Src/main.c ****       response[1] = (relative_pos >> 8) & 0xFF;
 244              		.loc 1 346 19 is_stmt 0 view .LVU75
 245 0076 02AA     		add	r2, sp, #8
 246 0078 1070     		strb	r0, [r2]
 347:Core/Src/main.c ****       response[2] = relative_pos & 0xFF;
 247              		.loc 1 347 7 is_stmt 1 view .LVU76
 347:Core/Src/main.c ****       response[2] = relative_pos & 0xFF;
 248              		.loc 1 347 35 is_stmt 0 view .LVU77
 249 007a 1912     		asrs	r1, r3, #8
 347:Core/Src/main.c ****       response[2] = relative_pos & 0xFF;
 250              		.loc 1 347 19 view .LVU78
 251 007c 5170     		strb	r1, [r2, #1]
 348:Core/Src/main.c ****       response_len = 3;
 252              		.loc 1 348 7 is_stmt 1 view .LVU79
 348:Core/Src/main.c ****       response_len = 3;
 253              		.loc 1 348 19 is_stmt 0 view .LVU80
 254 007e 9370     		strb	r3, [r2, #2]
 349:Core/Src/main.c ****     }
 255              		.loc 1 349 7 is_stmt 1 view .LVU81
 256              	.LVL21:
 349:Core/Src/main.c ****     }
 257              		.loc 1 349 7 is_stmt 0 view .LVU82
 258              	.LBE8:
 351:Core/Src/main.c **** 
 259              		.loc 1 351 5 is_stmt 1 view .LVU83
 260              		.loc 1 360 3 view .LVU84
 261              	.LBB9:
 349:Core/Src/main.c ****     }
 262              		.loc 1 349 20 is_stmt 0 view .LVU85
 263 0080 0321     		movs	r1, #3
 264              	.LVL22:
 265              	.L12:
 349:Core/Src/main.c ****     }
 266              		.loc 1 349 20 view .LVU86
 267              	.LBE9:
 361:Core/Src/main.c ****     CDC_Transmit_FS(response, response_len);
 268              		.loc 1 361 5 is_stmt 1 view .LVU87
 269 0082 02A8     		add	r0, sp, #8
ARM GAS  /tmp/ccR9F1Rl.s 			page 13


 270 0084 FFF7FEFF 		bl	CDC_Transmit_FS
 271              	.LVL23:
 272              	.L4:
 362:Core/Src/main.c ****   }
 363:Core/Src/main.c **** }
 273              		.loc 1 363 1 is_stmt 0 view .LVU88
 274 0088 05B0     		add	sp, sp, #20
 275              		@ sp needed
 276 008a 00BD     		pop	{pc}
 277              	.L19:
 278              		.align	2
 279              	.L18:
 280 008c 00000000 		.word	position_offset
 281 0090 FF030000 		.word	1023
 282              		.cfi_endproc
 283              	.LFE375:
 285              		.section	.text.Error_Handler,"ax",%progbits
 286              		.align	1
 287              		.global	Error_Handler
 288              		.syntax unified
 289              		.code	16
 290              		.thumb_func
 292              	Error_Handler:
 293              	.LFB376:
 364:Core/Src/main.c **** 
 365:Core/Src/main.c **** /* USER CODE END 4 */
 366:Core/Src/main.c **** 
 367:Core/Src/main.c **** /**
 368:Core/Src/main.c ****  * @brief  This function is executed in case of error occurrence.
 369:Core/Src/main.c ****  * @retval None
 370:Core/Src/main.c ****  */
 371:Core/Src/main.c **** void Error_Handler(void) {
 294              		.loc 1 371 26 is_stmt 1 view -0
 295              		.cfi_startproc
 296              		@ Volatile: function does not return.
 297              		@ args = 0, pretend = 0, frame = 0
 298              		@ frame_needed = 0, uses_anonymous_args = 0
 299              		@ link register save eliminated.
 372:Core/Src/main.c ****   /* USER CODE BEGIN Error_Handler_Debug */
 373:Core/Src/main.c ****   /* User can add his own implementation to report the HAL error return state */
 374:Core/Src/main.c ****   __disable_irq();
 300              		.loc 1 374 3 view .LVU90
 301              	.LBB10:
 302              	.LBI10:
 303              		.file 2 "Drivers/CMSIS/Include/cmsis_gcc.h"
   1:Drivers/CMSIS/Include/cmsis_gcc.h **** /**************************************************************************//**
   2:Drivers/CMSIS/Include/cmsis_gcc.h ****  * @file     cmsis_gcc.h
   3:Drivers/CMSIS/Include/cmsis_gcc.h ****  * @brief    CMSIS compiler GCC header file
   4:Drivers/CMSIS/Include/cmsis_gcc.h ****  * @version  V5.2.0
   5:Drivers/CMSIS/Include/cmsis_gcc.h ****  * @date     08. May 2019
   6:Drivers/CMSIS/Include/cmsis_gcc.h ****  ******************************************************************************/
   7:Drivers/CMSIS/Include/cmsis_gcc.h **** /*
   8:Drivers/CMSIS/Include/cmsis_gcc.h ****  * Copyright (c) 2009-2019 Arm Limited. All rights reserved.
   9:Drivers/CMSIS/Include/cmsis_gcc.h ****  *
  10:Drivers/CMSIS/Include/cmsis_gcc.h ****  * SPDX-License-Identifier: Apache-2.0
  11:Drivers/CMSIS/Include/cmsis_gcc.h ****  *
  12:Drivers/CMSIS/Include/cmsis_gcc.h ****  * Licensed under the Apache License, Version 2.0 (the License); you may
ARM GAS  /tmp/ccR9F1Rl.s 			page 14


  13:Drivers/CMSIS/Include/cmsis_gcc.h ****  * not use this file except in compliance with the License.
  14:Drivers/CMSIS/Include/cmsis_gcc.h ****  * You may obtain a copy of the License at
  15:Drivers/CMSIS/Include/cmsis_gcc.h ****  *
  16:Drivers/CMSIS/Include/cmsis_gcc.h ****  * www.apache.org/licenses/LICENSE-2.0
  17:Drivers/CMSIS/Include/cmsis_gcc.h ****  *
  18:Drivers/CMSIS/Include/cmsis_gcc.h ****  * Unless required by applicable law or agreed to in writing, software
  19:Drivers/CMSIS/Include/cmsis_gcc.h ****  * distributed under the License is distributed on an AS IS BASIS, WITHOUT
  20:Drivers/CMSIS/Include/cmsis_gcc.h ****  * WARRANTIES OR CONDITIONS OF ANY KIND, either express or implied.
  21:Drivers/CMSIS/Include/cmsis_gcc.h ****  * See the License for the specific language governing permissions and
  22:Drivers/CMSIS/Include/cmsis_gcc.h ****  * limitations under the License.
  23:Drivers/CMSIS/Include/cmsis_gcc.h ****  */
  24:Drivers/CMSIS/Include/cmsis_gcc.h **** 
  25:Drivers/CMSIS/Include/cmsis_gcc.h **** #ifndef __CMSIS_GCC_H
  26:Drivers/CMSIS/Include/cmsis_gcc.h **** #define __CMSIS_GCC_H
  27:Drivers/CMSIS/Include/cmsis_gcc.h **** 
  28:Drivers/CMSIS/Include/cmsis_gcc.h **** /* ignore some GCC warnings */
  29:Drivers/CMSIS/Include/cmsis_gcc.h **** #pragma GCC diagnostic push
  30:Drivers/CMSIS/Include/cmsis_gcc.h **** #pragma GCC diagnostic ignored "-Wsign-conversion"
  31:Drivers/CMSIS/Include/cmsis_gcc.h **** #pragma GCC diagnostic ignored "-Wconversion"
  32:Drivers/CMSIS/Include/cmsis_gcc.h **** #pragma GCC diagnostic ignored "-Wunused-parameter"
  33:Drivers/CMSIS/Include/cmsis_gcc.h **** 
  34:Drivers/CMSIS/Include/cmsis_gcc.h **** /* Fallback for __has_builtin */
  35:Drivers/CMSIS/Include/cmsis_gcc.h **** #ifndef __has_builtin
  36:Drivers/CMSIS/Include/cmsis_gcc.h ****   #define __has_builtin(x) (0)
  37:Drivers/CMSIS/Include/cmsis_gcc.h **** #endif
  38:Drivers/CMSIS/Include/cmsis_gcc.h **** 
  39:Drivers/CMSIS/Include/cmsis_gcc.h **** /* CMSIS compiler specific defines */
  40:Drivers/CMSIS/Include/cmsis_gcc.h **** #ifndef   __ASM
  41:Drivers/CMSIS/Include/cmsis_gcc.h ****   #define __ASM                                  __asm
  42:Drivers/CMSIS/Include/cmsis_gcc.h **** #endif
  43:Drivers/CMSIS/Include/cmsis_gcc.h **** #ifndef   __INLINE
  44:Drivers/CMSIS/Include/cmsis_gcc.h ****   #define __INLINE                               inline
  45:Drivers/CMSIS/Include/cmsis_gcc.h **** #endif
  46:Drivers/CMSIS/Include/cmsis_gcc.h **** #ifndef   __STATIC_INLINE
  47:Drivers/CMSIS/Include/cmsis_gcc.h ****   #define __STATIC_INLINE                        static inline
  48:Drivers/CMSIS/Include/cmsis_gcc.h **** #endif
  49:Drivers/CMSIS/Include/cmsis_gcc.h **** #ifndef   __STATIC_FORCEINLINE                 
  50:Drivers/CMSIS/Include/cmsis_gcc.h ****   #define __STATIC_FORCEINLINE                   __attribute__((always_inline)) static inline
  51:Drivers/CMSIS/Include/cmsis_gcc.h **** #endif                                           
  52:Drivers/CMSIS/Include/cmsis_gcc.h **** #ifndef   __NO_RETURN
  53:Drivers/CMSIS/Include/cmsis_gcc.h ****   #define __NO_RETURN                            __attribute__((__noreturn__))
  54:Drivers/CMSIS/Include/cmsis_gcc.h **** #endif
  55:Drivers/CMSIS/Include/cmsis_gcc.h **** #ifndef   __USED
  56:Drivers/CMSIS/Include/cmsis_gcc.h ****   #define __USED                                 __attribute__((used))
  57:Drivers/CMSIS/Include/cmsis_gcc.h **** #endif
  58:Drivers/CMSIS/Include/cmsis_gcc.h **** #ifndef   __WEAK
  59:Drivers/CMSIS/Include/cmsis_gcc.h ****   #define __WEAK                                 __attribute__((weak))
  60:Drivers/CMSIS/Include/cmsis_gcc.h **** #endif
  61:Drivers/CMSIS/Include/cmsis_gcc.h **** #ifndef   __PACKED
  62:Drivers/CMSIS/Include/cmsis_gcc.h ****   #define __PACKED                               __attribute__((packed, aligned(1)))
  63:Drivers/CMSIS/Include/cmsis_gcc.h **** #endif
  64:Drivers/CMSIS/Include/cmsis_gcc.h **** #ifndef   __PACKED_STRUCT
  65:Drivers/CMSIS/Include/cmsis_gcc.h ****   #define __PACKED_STRUCT                        struct __attribute__((packed, aligned(1)))
  66:Drivers/CMSIS/Include/cmsis_gcc.h **** #endif
  67:Drivers/CMSIS/Include/cmsis_gcc.h **** #ifndef   __PACKED_UNION
  68:Drivers/CMSIS/Include/cmsis_gcc.h ****   #define __PACKED_UNION                         union __attribute__((packed, aligned(1)))
  69:Drivers/CMSIS/Include/cmsis_gcc.h **** #endif
ARM GAS  /tmp/ccR9F1Rl.s 			page 15


  70:Drivers/CMSIS/Include/cmsis_gcc.h **** #ifndef   __UNALIGNED_UINT32        /* deprecated */
  71:Drivers/CMSIS/Include/cmsis_gcc.h ****   #pragma GCC diagnostic push
  72:Drivers/CMSIS/Include/cmsis_gcc.h ****   #pragma GCC diagnostic ignored "-Wpacked"
  73:Drivers/CMSIS/Include/cmsis_gcc.h ****   #pragma GCC diagnostic ignored "-Wattributes"
  74:Drivers/CMSIS/Include/cmsis_gcc.h ****   struct __attribute__((packed)) T_UINT32 { uint32_t v; };
  75:Drivers/CMSIS/Include/cmsis_gcc.h ****   #pragma GCC diagnostic pop
  76:Drivers/CMSIS/Include/cmsis_gcc.h ****   #define __UNALIGNED_UINT32(x)                  (((struct T_UINT32 *)(x))->v)
  77:Drivers/CMSIS/Include/cmsis_gcc.h **** #endif
  78:Drivers/CMSIS/Include/cmsis_gcc.h **** #ifndef   __UNALIGNED_UINT16_WRITE
  79:Drivers/CMSIS/Include/cmsis_gcc.h ****   #pragma GCC diagnostic push
  80:Drivers/CMSIS/Include/cmsis_gcc.h ****   #pragma GCC diagnostic ignored "-Wpacked"
  81:Drivers/CMSIS/Include/cmsis_gcc.h ****   #pragma GCC diagnostic ignored "-Wattributes"
  82:Drivers/CMSIS/Include/cmsis_gcc.h ****   __PACKED_STRUCT T_UINT16_WRITE { uint16_t v; };
  83:Drivers/CMSIS/Include/cmsis_gcc.h ****   #pragma GCC diagnostic pop
  84:Drivers/CMSIS/Include/cmsis_gcc.h ****   #define __UNALIGNED_UINT16_WRITE(addr, val)    (void)((((struct T_UINT16_WRITE *)(void *)(addr))-
  85:Drivers/CMSIS/Include/cmsis_gcc.h **** #endif
  86:Drivers/CMSIS/Include/cmsis_gcc.h **** #ifndef   __UNALIGNED_UINT16_READ
  87:Drivers/CMSIS/Include/cmsis_gcc.h ****   #pragma GCC diagnostic push
  88:Drivers/CMSIS/Include/cmsis_gcc.h ****   #pragma GCC diagnostic ignored "-Wpacked"
  89:Drivers/CMSIS/Include/cmsis_gcc.h ****   #pragma GCC diagnostic ignored "-Wattributes"
  90:Drivers/CMSIS/Include/cmsis_gcc.h ****   __PACKED_STRUCT T_UINT16_READ { uint16_t v; };
  91:Drivers/CMSIS/Include/cmsis_gcc.h ****   #pragma GCC diagnostic pop
  92:Drivers/CMSIS/Include/cmsis_gcc.h ****   #define __UNALIGNED_UINT16_READ(addr)          (((const struct T_UINT16_READ *)(const void *)(add
  93:Drivers/CMSIS/Include/cmsis_gcc.h **** #endif
  94:Drivers/CMSIS/Include/cmsis_gcc.h **** #ifndef   __UNALIGNED_UINT32_WRITE
  95:Drivers/CMSIS/Include/cmsis_gcc.h ****   #pragma GCC diagnostic push
  96:Drivers/CMSIS/Include/cmsis_gcc.h ****   #pragma GCC diagnostic ignored "-Wpacked"
  97:Drivers/CMSIS/Include/cmsis_gcc.h ****   #pragma GCC diagnostic ignored "-Wattributes"
  98:Drivers/CMSIS/Include/cmsis_gcc.h ****   __PACKED_STRUCT T_UINT32_WRITE { uint32_t v; };
  99:Drivers/CMSIS/Include/cmsis_gcc.h ****   #pragma GCC diagnostic pop
 100:Drivers/CMSIS/Include/cmsis_gcc.h ****   #define __UNALIGNED_UINT32_WRITE(addr, val)    (void)((((struct T_UINT32_WRITE *)(void *)(addr))-
 101:Drivers/CMSIS/Include/cmsis_gcc.h **** #endif
 102:Drivers/CMSIS/Include/cmsis_gcc.h **** #ifndef   __UNALIGNED_UINT32_READ
 103:Drivers/CMSIS/Include/cmsis_gcc.h ****   #pragma GCC diagnostic push
 104:Drivers/CMSIS/Include/cmsis_gcc.h ****   #pragma GCC diagnostic ignored "-Wpacked"
 105:Drivers/CMSIS/Include/cmsis_gcc.h ****   #pragma GCC diagnostic ignored "-Wattributes"
 106:Drivers/CMSIS/Include/cmsis_gcc.h ****   __PACKED_STRUCT T_UINT32_READ { uint32_t v; };
 107:Drivers/CMSIS/Include/cmsis_gcc.h ****   #pragma GCC diagnostic pop
 108:Drivers/CMSIS/Include/cmsis_gcc.h ****   #define __UNALIGNED_UINT32_READ(addr)          (((const struct T_UINT32_READ *)(const void *)(add
 109:Drivers/CMSIS/Include/cmsis_gcc.h **** #endif
 110:Drivers/CMSIS/Include/cmsis_gcc.h **** #ifndef   __ALIGNED
 111:Drivers/CMSIS/Include/cmsis_gcc.h ****   #define __ALIGNED(x)                           __attribute__((aligned(x)))
 112:Drivers/CMSIS/Include/cmsis_gcc.h **** #endif
 113:Drivers/CMSIS/Include/cmsis_gcc.h **** #ifndef   __RESTRICT
 114:Drivers/CMSIS/Include/cmsis_gcc.h ****   #define __RESTRICT                             __restrict
 115:Drivers/CMSIS/Include/cmsis_gcc.h **** #endif
 116:Drivers/CMSIS/Include/cmsis_gcc.h **** #ifndef   __COMPILER_BARRIER
 117:Drivers/CMSIS/Include/cmsis_gcc.h ****   #define __COMPILER_BARRIER()                   __ASM volatile("":::"memory")
 118:Drivers/CMSIS/Include/cmsis_gcc.h **** #endif
 119:Drivers/CMSIS/Include/cmsis_gcc.h **** 
 120:Drivers/CMSIS/Include/cmsis_gcc.h **** /* #########################  Startup and Lowlevel Init  ######################## */
 121:Drivers/CMSIS/Include/cmsis_gcc.h **** 
 122:Drivers/CMSIS/Include/cmsis_gcc.h **** #ifndef __PROGRAM_START
 123:Drivers/CMSIS/Include/cmsis_gcc.h **** 
 124:Drivers/CMSIS/Include/cmsis_gcc.h **** /**
 125:Drivers/CMSIS/Include/cmsis_gcc.h ****   \brief   Initializes data and bss sections
 126:Drivers/CMSIS/Include/cmsis_gcc.h ****   \details This default implementations initialized all data and additional bss
ARM GAS  /tmp/ccR9F1Rl.s 			page 16


 127:Drivers/CMSIS/Include/cmsis_gcc.h ****            sections relying on .copy.table and .zero.table specified properly
 128:Drivers/CMSIS/Include/cmsis_gcc.h ****            in the used linker script.
 129:Drivers/CMSIS/Include/cmsis_gcc.h ****   
 130:Drivers/CMSIS/Include/cmsis_gcc.h ****  */
 131:Drivers/CMSIS/Include/cmsis_gcc.h **** __STATIC_FORCEINLINE __NO_RETURN void __cmsis_start(void)
 132:Drivers/CMSIS/Include/cmsis_gcc.h **** {
 133:Drivers/CMSIS/Include/cmsis_gcc.h ****   extern void _start(void) __NO_RETURN;
 134:Drivers/CMSIS/Include/cmsis_gcc.h ****   
 135:Drivers/CMSIS/Include/cmsis_gcc.h ****   typedef struct {
 136:Drivers/CMSIS/Include/cmsis_gcc.h ****     uint32_t const* src;
 137:Drivers/CMSIS/Include/cmsis_gcc.h ****     uint32_t* dest;
 138:Drivers/CMSIS/Include/cmsis_gcc.h ****     uint32_t  wlen;
 139:Drivers/CMSIS/Include/cmsis_gcc.h ****   } __copy_table_t;
 140:Drivers/CMSIS/Include/cmsis_gcc.h ****   
 141:Drivers/CMSIS/Include/cmsis_gcc.h ****   typedef struct {
 142:Drivers/CMSIS/Include/cmsis_gcc.h ****     uint32_t* dest;
 143:Drivers/CMSIS/Include/cmsis_gcc.h ****     uint32_t  wlen;
 144:Drivers/CMSIS/Include/cmsis_gcc.h ****   } __zero_table_t;
 145:Drivers/CMSIS/Include/cmsis_gcc.h ****   
 146:Drivers/CMSIS/Include/cmsis_gcc.h ****   extern const __copy_table_t __copy_table_start__;
 147:Drivers/CMSIS/Include/cmsis_gcc.h ****   extern const __copy_table_t __copy_table_end__;
 148:Drivers/CMSIS/Include/cmsis_gcc.h ****   extern const __zero_table_t __zero_table_start__;
 149:Drivers/CMSIS/Include/cmsis_gcc.h ****   extern const __zero_table_t __zero_table_end__;
 150:Drivers/CMSIS/Include/cmsis_gcc.h **** 
 151:Drivers/CMSIS/Include/cmsis_gcc.h ****   for (__copy_table_t const* pTable = &__copy_table_start__; pTable < &__copy_table_end__; ++pTable
 152:Drivers/CMSIS/Include/cmsis_gcc.h ****     for(uint32_t i=0u; i<pTable->wlen; ++i) {
 153:Drivers/CMSIS/Include/cmsis_gcc.h ****       pTable->dest[i] = pTable->src[i];
 154:Drivers/CMSIS/Include/cmsis_gcc.h ****     }
 155:Drivers/CMSIS/Include/cmsis_gcc.h ****   }
 156:Drivers/CMSIS/Include/cmsis_gcc.h ****  
 157:Drivers/CMSIS/Include/cmsis_gcc.h ****   for (__zero_table_t const* pTable = &__zero_table_start__; pTable < &__zero_table_end__; ++pTable
 158:Drivers/CMSIS/Include/cmsis_gcc.h ****     for(uint32_t i=0u; i<pTable->wlen; ++i) {
 159:Drivers/CMSIS/Include/cmsis_gcc.h ****       pTable->dest[i] = 0u;
 160:Drivers/CMSIS/Include/cmsis_gcc.h ****     }
 161:Drivers/CMSIS/Include/cmsis_gcc.h ****   }
 162:Drivers/CMSIS/Include/cmsis_gcc.h ****  
 163:Drivers/CMSIS/Include/cmsis_gcc.h ****   _start();
 164:Drivers/CMSIS/Include/cmsis_gcc.h **** }
 165:Drivers/CMSIS/Include/cmsis_gcc.h ****   
 166:Drivers/CMSIS/Include/cmsis_gcc.h **** #define __PROGRAM_START           __cmsis_start
 167:Drivers/CMSIS/Include/cmsis_gcc.h **** #endif
 168:Drivers/CMSIS/Include/cmsis_gcc.h **** 
 169:Drivers/CMSIS/Include/cmsis_gcc.h **** #ifndef __INITIAL_SP
 170:Drivers/CMSIS/Include/cmsis_gcc.h **** #define __INITIAL_SP              __StackTop
 171:Drivers/CMSIS/Include/cmsis_gcc.h **** #endif
 172:Drivers/CMSIS/Include/cmsis_gcc.h **** 
 173:Drivers/CMSIS/Include/cmsis_gcc.h **** #ifndef __STACK_LIMIT
 174:Drivers/CMSIS/Include/cmsis_gcc.h **** #define __STACK_LIMIT             __StackLimit
 175:Drivers/CMSIS/Include/cmsis_gcc.h **** #endif
 176:Drivers/CMSIS/Include/cmsis_gcc.h **** 
 177:Drivers/CMSIS/Include/cmsis_gcc.h **** #ifndef __VECTOR_TABLE
 178:Drivers/CMSIS/Include/cmsis_gcc.h **** #define __VECTOR_TABLE            __Vectors
 179:Drivers/CMSIS/Include/cmsis_gcc.h **** #endif
 180:Drivers/CMSIS/Include/cmsis_gcc.h **** 
 181:Drivers/CMSIS/Include/cmsis_gcc.h **** #ifndef __VECTOR_TABLE_ATTRIBUTE
 182:Drivers/CMSIS/Include/cmsis_gcc.h **** #define __VECTOR_TABLE_ATTRIBUTE  __attribute((used, section(".vectors")))
 183:Drivers/CMSIS/Include/cmsis_gcc.h **** #endif
ARM GAS  /tmp/ccR9F1Rl.s 			page 17


 184:Drivers/CMSIS/Include/cmsis_gcc.h **** 
 185:Drivers/CMSIS/Include/cmsis_gcc.h **** /* ###########################  Core Function Access  ########################### */
 186:Drivers/CMSIS/Include/cmsis_gcc.h **** /** \ingroup  CMSIS_Core_FunctionInterface
 187:Drivers/CMSIS/Include/cmsis_gcc.h ****     \defgroup CMSIS_Core_RegAccFunctions CMSIS Core Register Access Functions
 188:Drivers/CMSIS/Include/cmsis_gcc.h ****   @{
 189:Drivers/CMSIS/Include/cmsis_gcc.h ****  */
 190:Drivers/CMSIS/Include/cmsis_gcc.h **** 
 191:Drivers/CMSIS/Include/cmsis_gcc.h **** /**
 192:Drivers/CMSIS/Include/cmsis_gcc.h ****   \brief   Enable IRQ Interrupts
 193:Drivers/CMSIS/Include/cmsis_gcc.h ****   \details Enables IRQ interrupts by clearing the I-bit in the CPSR.
 194:Drivers/CMSIS/Include/cmsis_gcc.h ****            Can only be executed in Privileged modes.
 195:Drivers/CMSIS/Include/cmsis_gcc.h ****  */
 196:Drivers/CMSIS/Include/cmsis_gcc.h **** __STATIC_FORCEINLINE void __enable_irq(void)
 197:Drivers/CMSIS/Include/cmsis_gcc.h **** {
 198:Drivers/CMSIS/Include/cmsis_gcc.h ****   __ASM volatile ("cpsie i" : : : "memory");
 199:Drivers/CMSIS/Include/cmsis_gcc.h **** }
 200:Drivers/CMSIS/Include/cmsis_gcc.h **** 
 201:Drivers/CMSIS/Include/cmsis_gcc.h **** 
 202:Drivers/CMSIS/Include/cmsis_gcc.h **** /**
 203:Drivers/CMSIS/Include/cmsis_gcc.h ****   \brief   Disable IRQ Interrupts
 204:Drivers/CMSIS/Include/cmsis_gcc.h ****   \details Disables IRQ interrupts by setting the I-bit in the CPSR.
 205:Drivers/CMSIS/Include/cmsis_gcc.h ****            Can only be executed in Privileged modes.
 206:Drivers/CMSIS/Include/cmsis_gcc.h ****  */
 207:Drivers/CMSIS/Include/cmsis_gcc.h **** __STATIC_FORCEINLINE void __disable_irq(void)
 304              		.loc 2 207 27 view .LVU91
 305              	.LBB11:
 208:Drivers/CMSIS/Include/cmsis_gcc.h **** {
 209:Drivers/CMSIS/Include/cmsis_gcc.h ****   __ASM volatile ("cpsid i" : : : "memory");
 306              		.loc 2 209 3 view .LVU92
 307              		.syntax divided
 308              	@ 209 "Drivers/CMSIS/Include/cmsis_gcc.h" 1
 309 0000 72B6     		cpsid i
 310              	@ 0 "" 2
 311              		.thumb
 312              		.syntax unified
 313              	.L21:
 314              	.LBE11:
 315              	.LBE10:
 375:Core/Src/main.c ****   while (1) {
 316              		.loc 1 375 3 view .LVU93
 376:Core/Src/main.c ****   }
 317              		.loc 1 376 3 view .LVU94
 375:Core/Src/main.c ****   while (1) {
 318              		.loc 1 375 9 view .LVU95
 319 0002 FEE7     		b	.L21
 320              		.cfi_endproc
 321              	.LFE376:
 323              		.section	.text.MX_TIM1_Init,"ax",%progbits
 324              		.align	1
 325              		.syntax unified
 326              		.code	16
 327              		.thumb_func
 329              	MX_TIM1_Init:
 330              	.LFB372:
 189:Core/Src/main.c **** 
 331              		.loc 1 189 32 view -0
 332              		.cfi_startproc
ARM GAS  /tmp/ccR9F1Rl.s 			page 18


 333              		@ args = 0, pretend = 0, frame = 32
 334              		@ frame_needed = 0, uses_anonymous_args = 0
 335 0000 00B5     		push	{lr}
 336              	.LCFI3:
 337              		.cfi_def_cfa_offset 4
 338              		.cfi_offset 14, -4
 339 0002 89B0     		sub	sp, sp, #36
 340              	.LCFI4:
 341              		.cfi_def_cfa_offset 40
 195:Core/Src/main.c ****   TIM_MasterConfigTypeDef sMasterConfig = {0};
 342              		.loc 1 195 3 view .LVU97
 195:Core/Src/main.c ****   TIM_MasterConfigTypeDef sMasterConfig = {0};
 343              		.loc 1 195 26 is_stmt 0 view .LVU98
 344 0004 1022     		movs	r2, #16
 345 0006 0021     		movs	r1, #0
 346 0008 04A8     		add	r0, sp, #16
 347 000a FFF7FEFF 		bl	memset
 348              	.LVL24:
 196:Core/Src/main.c **** 
 349              		.loc 1 196 3 is_stmt 1 view .LVU99
 196:Core/Src/main.c **** 
 350              		.loc 1 196 27 is_stmt 0 view .LVU100
 351 000e 0C22     		movs	r2, #12
 352 0010 0021     		movs	r1, #0
 353 0012 01A8     		add	r0, sp, #4
 354 0014 FFF7FEFF 		bl	memset
 355              	.LVL25:
 201:Core/Src/main.c ****   htim1.Init.Prescaler = 479;
 356              		.loc 1 201 3 is_stmt 1 view .LVU101
 201:Core/Src/main.c ****   htim1.Init.Prescaler = 479;
 357              		.loc 1 201 18 is_stmt 0 view .LVU102
 358 0018 1548     		ldr	r0, .L29
 359 001a 164B     		ldr	r3, .L29+4
 360 001c 0360     		str	r3, [r0]
 202:Core/Src/main.c ****   htim1.Init.CounterMode = TIM_COUNTERMODE_UP;
 361              		.loc 1 202 3 is_stmt 1 view .LVU103
 202:Core/Src/main.c ****   htim1.Init.CounterMode = TIM_COUNTERMODE_UP;
 362              		.loc 1 202 24 is_stmt 0 view .LVU104
 363 001e E023     		movs	r3, #224
 364 0020 FF33     		adds	r3, r3, #255
 365 0022 4360     		str	r3, [r0, #4]
 203:Core/Src/main.c ****   htim1.Init.Period = 255;
 366              		.loc 1 203 3 is_stmt 1 view .LVU105
 203:Core/Src/main.c ****   htim1.Init.Period = 255;
 367              		.loc 1 203 26 is_stmt 0 view .LVU106
 368 0024 0023     		movs	r3, #0
 369 0026 8360     		str	r3, [r0, #8]
 204:Core/Src/main.c ****   htim1.Init.ClockDivision = TIM_CLOCKDIVISION_DIV1;
 370              		.loc 1 204 3 is_stmt 1 view .LVU107
 204:Core/Src/main.c ****   htim1.Init.ClockDivision = TIM_CLOCKDIVISION_DIV1;
 371              		.loc 1 204 21 is_stmt 0 view .LVU108
 372 0028 FF22     		movs	r2, #255
 373 002a C260     		str	r2, [r0, #12]
 205:Core/Src/main.c ****   htim1.Init.RepetitionCounter = 0;
 374              		.loc 1 205 3 is_stmt 1 view .LVU109
 205:Core/Src/main.c ****   htim1.Init.RepetitionCounter = 0;
 375              		.loc 1 205 28 is_stmt 0 view .LVU110
ARM GAS  /tmp/ccR9F1Rl.s 			page 19


 376 002c 0361     		str	r3, [r0, #16]
 206:Core/Src/main.c ****   htim1.Init.AutoReloadPreload = TIM_AUTORELOAD_PRELOAD_DISABLE;
 377              		.loc 1 206 3 is_stmt 1 view .LVU111
 206:Core/Src/main.c ****   htim1.Init.AutoReloadPreload = TIM_AUTORELOAD_PRELOAD_DISABLE;
 378              		.loc 1 206 32 is_stmt 0 view .LVU112
 379 002e 4361     		str	r3, [r0, #20]
 207:Core/Src/main.c ****   if (HAL_TIM_Base_Init(&htim1) != HAL_OK) {
 380              		.loc 1 207 3 is_stmt 1 view .LVU113
 207:Core/Src/main.c ****   if (HAL_TIM_Base_Init(&htim1) != HAL_OK) {
 381              		.loc 1 207 32 is_stmt 0 view .LVU114
 382 0030 8361     		str	r3, [r0, #24]
 208:Core/Src/main.c ****     Error_Handler();
 383              		.loc 1 208 3 is_stmt 1 view .LVU115
 208:Core/Src/main.c ****     Error_Handler();
 384              		.loc 1 208 7 is_stmt 0 view .LVU116
 385 0032 FFF7FEFF 		bl	HAL_TIM_Base_Init
 386              	.LVL26:
 208:Core/Src/main.c ****     Error_Handler();
 387              		.loc 1 208 6 discriminator 1 view .LVU117
 388 0036 0028     		cmp	r0, #0
 389 0038 14D1     		bne	.L26
 211:Core/Src/main.c ****   if (HAL_TIM_ConfigClockSource(&htim1, &sClockSourceConfig) != HAL_OK) {
 390              		.loc 1 211 3 is_stmt 1 view .LVU118
 211:Core/Src/main.c ****   if (HAL_TIM_ConfigClockSource(&htim1, &sClockSourceConfig) != HAL_OK) {
 391              		.loc 1 211 34 is_stmt 0 view .LVU119
 392 003a 8023     		movs	r3, #128
 393 003c 5B01     		lsls	r3, r3, #5
 394 003e 0493     		str	r3, [sp, #16]
 212:Core/Src/main.c ****     Error_Handler();
 395              		.loc 1 212 3 is_stmt 1 view .LVU120
 212:Core/Src/main.c ****     Error_Handler();
 396              		.loc 1 212 7 is_stmt 0 view .LVU121
 397 0040 0B48     		ldr	r0, .L29
 398 0042 04A9     		add	r1, sp, #16
 399 0044 FFF7FEFF 		bl	HAL_TIM_ConfigClockSource
 400              	.LVL27:
 212:Core/Src/main.c ****     Error_Handler();
 401              		.loc 1 212 6 discriminator 1 view .LVU122
 402 0048 0028     		cmp	r0, #0
 403 004a 0DD1     		bne	.L27
 215:Core/Src/main.c ****   sMasterConfig.MasterOutputTrigger2 = TIM_TRGO2_RESET;
 404              		.loc 1 215 3 is_stmt 1 view .LVU123
 215:Core/Src/main.c ****   sMasterConfig.MasterOutputTrigger2 = TIM_TRGO2_RESET;
 405              		.loc 1 215 37 is_stmt 0 view .LVU124
 406 004c 0023     		movs	r3, #0
 407 004e 0193     		str	r3, [sp, #4]
 216:Core/Src/main.c ****   sMasterConfig.MasterSlaveMode = TIM_MASTERSLAVEMODE_DISABLE;
 408              		.loc 1 216 3 is_stmt 1 view .LVU125
 216:Core/Src/main.c ****   sMasterConfig.MasterSlaveMode = TIM_MASTERSLAVEMODE_DISABLE;
 409              		.loc 1 216 38 is_stmt 0 view .LVU126
 410 0050 0293     		str	r3, [sp, #8]
 217:Core/Src/main.c ****   if (HAL_TIMEx_MasterConfigSynchronization(&htim1, &sMasterConfig) != HAL_OK) {
 411              		.loc 1 217 3 is_stmt 1 view .LVU127
 217:Core/Src/main.c ****   if (HAL_TIMEx_MasterConfigSynchronization(&htim1, &sMasterConfig) != HAL_OK) {
 412              		.loc 1 217 33 is_stmt 0 view .LVU128
 413 0052 0393     		str	r3, [sp, #12]
 218:Core/Src/main.c ****     Error_Handler();
ARM GAS  /tmp/ccR9F1Rl.s 			page 20


 414              		.loc 1 218 3 is_stmt 1 view .LVU129
 218:Core/Src/main.c ****     Error_Handler();
 415              		.loc 1 218 7 is_stmt 0 view .LVU130
 416 0054 0648     		ldr	r0, .L29
 417 0056 01A9     		add	r1, sp, #4
 418 0058 FFF7FEFF 		bl	HAL_TIMEx_MasterConfigSynchronization
 419              	.LVL28:
 218:Core/Src/main.c ****     Error_Handler();
 420              		.loc 1 218 6 discriminator 1 view .LVU131
 421 005c 0028     		cmp	r0, #0
 422 005e 05D1     		bne	.L28
 224:Core/Src/main.c **** 
 423              		.loc 1 224 1 view .LVU132
 424 0060 09B0     		add	sp, sp, #36
 425              		@ sp needed
 426 0062 00BD     		pop	{pc}
 427              	.L26:
 209:Core/Src/main.c ****   }
 428              		.loc 1 209 5 is_stmt 1 view .LVU133
 429 0064 FFF7FEFF 		bl	Error_Handler
 430              	.LVL29:
 431              	.L27:
 213:Core/Src/main.c ****   }
 432              		.loc 1 213 5 view .LVU134
 433 0068 FFF7FEFF 		bl	Error_Handler
 434              	.LVL30:
 435              	.L28:
 219:Core/Src/main.c ****   }
 436              		.loc 1 219 5 view .LVU135
 437 006c FFF7FEFF 		bl	Error_Handler
 438              	.LVL31:
 439              	.L30:
 440              		.align	2
 441              	.L29:
 442 0070 00000000 		.word	htim1
 443 0074 002C0140 		.word	1073818624
 444              		.cfi_endproc
 445              	.LFE372:
 447              		.section	.text.MX_USART1_UART_Init,"ax",%progbits
 448              		.align	1
 449              		.syntax unified
 450              		.code	16
 451              		.thumb_func
 453              	MX_USART1_UART_Init:
 454              	.LFB373:
 231:Core/Src/main.c **** 
 455              		.loc 1 231 39 view -0
 456              		.cfi_startproc
 457              		@ args = 0, pretend = 0, frame = 0
 458              		@ frame_needed = 0, uses_anonymous_args = 0
 459 0000 10B5     		push	{r4, lr}
 460              	.LCFI5:
 461              		.cfi_def_cfa_offset 8
 462              		.cfi_offset 4, -8
 463              		.cfi_offset 14, -4
 240:Core/Src/main.c ****   huart1.Init.BaudRate = 1000000;
 464              		.loc 1 240 3 view .LVU137
ARM GAS  /tmp/ccR9F1Rl.s 			page 21


 240:Core/Src/main.c ****   huart1.Init.BaudRate = 1000000;
 465              		.loc 1 240 19 is_stmt 0 view .LVU138
 466 0002 1948     		ldr	r0, .L40
 467 0004 194B     		ldr	r3, .L40+4
 468 0006 0360     		str	r3, [r0]
 241:Core/Src/main.c ****   huart1.Init.WordLength = UART_WORDLENGTH_8B;
 469              		.loc 1 241 3 is_stmt 1 view .LVU139
 241:Core/Src/main.c ****   huart1.Init.WordLength = UART_WORDLENGTH_8B;
 470              		.loc 1 241 24 is_stmt 0 view .LVU140
 471 0008 194B     		ldr	r3, .L40+8
 472 000a 4360     		str	r3, [r0, #4]
 242:Core/Src/main.c ****   huart1.Init.StopBits = UART_STOPBITS_1;
 473              		.loc 1 242 3 is_stmt 1 view .LVU141
 242:Core/Src/main.c ****   huart1.Init.StopBits = UART_STOPBITS_1;
 474              		.loc 1 242 26 is_stmt 0 view .LVU142
 475 000c 0023     		movs	r3, #0
 476 000e 8360     		str	r3, [r0, #8]
 243:Core/Src/main.c ****   huart1.Init.Parity = UART_PARITY_NONE;
 477              		.loc 1 243 3 is_stmt 1 view .LVU143
 243:Core/Src/main.c ****   huart1.Init.Parity = UART_PARITY_NONE;
 478              		.loc 1 243 24 is_stmt 0 view .LVU144
 479 0010 C360     		str	r3, [r0, #12]
 244:Core/Src/main.c ****   huart1.Init.Mode = UART_MODE_TX_RX;
 480              		.loc 1 244 3 is_stmt 1 view .LVU145
 244:Core/Src/main.c ****   huart1.Init.Mode = UART_MODE_TX_RX;
 481              		.loc 1 244 22 is_stmt 0 view .LVU146
 482 0012 0361     		str	r3, [r0, #16]
 245:Core/Src/main.c ****   huart1.Init.HwFlowCtl = UART_HWCONTROL_NONE;
 483              		.loc 1 245 3 is_stmt 1 view .LVU147
 245:Core/Src/main.c ****   huart1.Init.HwFlowCtl = UART_HWCONTROL_NONE;
 484              		.loc 1 245 20 is_stmt 0 view .LVU148
 485 0014 0C22     		movs	r2, #12
 486 0016 4261     		str	r2, [r0, #20]
 246:Core/Src/main.c ****   huart1.Init.OverSampling = UART_OVERSAMPLING_16;
 487              		.loc 1 246 3 is_stmt 1 view .LVU149
 246:Core/Src/main.c ****   huart1.Init.OverSampling = UART_OVERSAMPLING_16;
 488              		.loc 1 246 25 is_stmt 0 view .LVU150
 489 0018 8361     		str	r3, [r0, #24]
 247:Core/Src/main.c ****   huart1.Init.OneBitSampling = UART_ONE_BIT_SAMPLE_DISABLE;
 490              		.loc 1 247 3 is_stmt 1 view .LVU151
 247:Core/Src/main.c ****   huart1.Init.OneBitSampling = UART_ONE_BIT_SAMPLE_DISABLE;
 491              		.loc 1 247 28 is_stmt 0 view .LVU152
 492 001a C361     		str	r3, [r0, #28]
 248:Core/Src/main.c ****   huart1.Init.ClockPrescaler = UART_PRESCALER_DIV1;
 493              		.loc 1 248 3 is_stmt 1 view .LVU153
 248:Core/Src/main.c ****   huart1.Init.ClockPrescaler = UART_PRESCALER_DIV1;
 494              		.loc 1 248 30 is_stmt 0 view .LVU154
 495 001c 0362     		str	r3, [r0, #32]
 249:Core/Src/main.c ****   huart1.AdvancedInit.AdvFeatureInit = UART_ADVFEATURE_RXOVERRUNDISABLE_INIT;
 496              		.loc 1 249 3 is_stmt 1 view .LVU155
 249:Core/Src/main.c ****   huart1.AdvancedInit.AdvFeatureInit = UART_ADVFEATURE_RXOVERRUNDISABLE_INIT;
 497              		.loc 1 249 30 is_stmt 0 view .LVU156
 498 001e 4362     		str	r3, [r0, #36]
 250:Core/Src/main.c ****   huart1.AdvancedInit.OverrunDisable = UART_ADVFEATURE_OVERRUN_DISABLE;
 499              		.loc 1 250 3 is_stmt 1 view .LVU157
 250:Core/Src/main.c ****   huart1.AdvancedInit.OverrunDisable = UART_ADVFEATURE_OVERRUN_DISABLE;
 500              		.loc 1 250 38 is_stmt 0 view .LVU158
ARM GAS  /tmp/ccR9F1Rl.s 			page 22


 501 0020 1033     		adds	r3, r3, #16
 502 0022 8362     		str	r3, [r0, #40]
 251:Core/Src/main.c ****   if (HAL_HalfDuplex_Init(&huart1) != HAL_OK) {
 503              		.loc 1 251 3 is_stmt 1 view .LVU159
 251:Core/Src/main.c ****   if (HAL_HalfDuplex_Init(&huart1) != HAL_OK) {
 504              		.loc 1 251 38 is_stmt 0 view .LVU160
 505 0024 8023     		movs	r3, #128
 506 0026 5B01     		lsls	r3, r3, #5
 507 0028 C363     		str	r3, [r0, #60]
 252:Core/Src/main.c ****     Error_Handler();
 508              		.loc 1 252 3 is_stmt 1 view .LVU161
 252:Core/Src/main.c ****     Error_Handler();
 509              		.loc 1 252 7 is_stmt 0 view .LVU162
 510 002a FFF7FEFF 		bl	HAL_HalfDuplex_Init
 511              	.LVL32:
 252:Core/Src/main.c ****     Error_Handler();
 512              		.loc 1 252 6 discriminator 1 view .LVU163
 513 002e 0028     		cmp	r0, #0
 514 0030 11D1     		bne	.L36
 255:Core/Src/main.c ****       HAL_OK) {
 515              		.loc 1 255 3 is_stmt 1 view .LVU164
 255:Core/Src/main.c ****       HAL_OK) {
 516              		.loc 1 255 7 is_stmt 0 view .LVU165
 517 0032 0D48     		ldr	r0, .L40
 518 0034 0021     		movs	r1, #0
 519 0036 FFF7FEFF 		bl	HAL_UARTEx_SetTxFifoThreshold
 520              	.LVL33:
 255:Core/Src/main.c ****       HAL_OK) {
 521              		.loc 1 255 6 discriminator 1 view .LVU166
 522 003a 0028     		cmp	r0, #0
 523 003c 0DD1     		bne	.L37
 259:Core/Src/main.c ****       HAL_OK) {
 524              		.loc 1 259 3 is_stmt 1 view .LVU167
 259:Core/Src/main.c ****       HAL_OK) {
 525              		.loc 1 259 7 is_stmt 0 view .LVU168
 526 003e 0A48     		ldr	r0, .L40
 527 0040 0021     		movs	r1, #0
 528 0042 FFF7FEFF 		bl	HAL_UARTEx_SetRxFifoThreshold
 529              	.LVL34:
 259:Core/Src/main.c ****       HAL_OK) {
 530              		.loc 1 259 6 discriminator 1 view .LVU169
 531 0046 0028     		cmp	r0, #0
 532 0048 09D1     		bne	.L38
 263:Core/Src/main.c ****     Error_Handler();
 533              		.loc 1 263 3 is_stmt 1 view .LVU170
 263:Core/Src/main.c ****     Error_Handler();
 534              		.loc 1 263 7 is_stmt 0 view .LVU171
 535 004a 0748     		ldr	r0, .L40
 536 004c FFF7FEFF 		bl	HAL_UARTEx_DisableFifoMode
 537              	.LVL35:
 263:Core/Src/main.c ****     Error_Handler();
 538              		.loc 1 263 6 discriminator 1 view .LVU172
 539 0050 0028     		cmp	r0, #0
 540 0052 06D1     		bne	.L39
 269:Core/Src/main.c **** 
 541              		.loc 1 269 1 view .LVU173
 542              		@ sp needed
ARM GAS  /tmp/ccR9F1Rl.s 			page 23


 543 0054 10BD     		pop	{r4, pc}
 544              	.L36:
 253:Core/Src/main.c ****   }
 545              		.loc 1 253 5 is_stmt 1 view .LVU174
 546 0056 FFF7FEFF 		bl	Error_Handler
 547              	.LVL36:
 548              	.L37:
 257:Core/Src/main.c ****   }
 549              		.loc 1 257 5 view .LVU175
 550 005a FFF7FEFF 		bl	Error_Handler
 551              	.LVL37:
 552              	.L38:
 261:Core/Src/main.c ****   }
 553              		.loc 1 261 5 view .LVU176
 554 005e FFF7FEFF 		bl	Error_Handler
 555              	.LVL38:
 556              	.L39:
 264:Core/Src/main.c ****   }
 557              		.loc 1 264 5 view .LVU177
 558 0062 FFF7FEFF 		bl	Error_Handler
 559              	.LVL39:
 560              	.L41:
 561 0066 C046     		.align	2
 562              	.L40:
 563 0068 00000000 		.word	huart1
 564 006c 00380140 		.word	1073821696
 565 0070 40420F00 		.word	1000000
 566              		.cfi_endproc
 567              	.LFE373:
 569              		.section	.text.SystemClock_Config,"ax",%progbits
 570              		.align	1
 571              		.global	SystemClock_Config
 572              		.syntax unified
 573              		.code	16
 574              		.thumb_func
 576              	SystemClock_Config:
 577              	.LFB371:
 143:Core/Src/main.c ****   RCC_OscInitTypeDef RCC_OscInitStruct = {0};
 578              		.loc 1 143 31 view -0
 579              		.cfi_startproc
 580              		@ args = 0, pretend = 0, frame = 80
 581              		@ frame_needed = 0, uses_anonymous_args = 0
 582 0000 00B5     		push	{lr}
 583              	.LCFI6:
 584              		.cfi_def_cfa_offset 4
 585              		.cfi_offset 14, -4
 586 0002 95B0     		sub	sp, sp, #84
 587              	.LCFI7:
 588              		.cfi_def_cfa_offset 88
 144:Core/Src/main.c ****   RCC_ClkInitTypeDef RCC_ClkInitStruct = {0};
 589              		.loc 1 144 3 view .LVU179
 144:Core/Src/main.c ****   RCC_ClkInitTypeDef RCC_ClkInitStruct = {0};
 590              		.loc 1 144 22 is_stmt 0 view .LVU180
 591 0004 3C22     		movs	r2, #60
 592 0006 0021     		movs	r1, #0
 593 0008 05A8     		add	r0, sp, #20
 594 000a FFF7FEFF 		bl	memset
ARM GAS  /tmp/ccR9F1Rl.s 			page 24


 595              	.LVL40:
 145:Core/Src/main.c **** 
 596              		.loc 1 145 3 is_stmt 1 view .LVU181
 145:Core/Src/main.c **** 
 597              		.loc 1 145 22 is_stmt 0 view .LVU182
 598 000e 1022     		movs	r2, #16
 599 0010 0021     		movs	r1, #0
 600 0012 01A8     		add	r0, sp, #4
 601 0014 FFF7FEFF 		bl	memset
 602              	.LVL41:
 149:Core/Src/main.c **** 
 603              		.loc 1 149 3 is_stmt 1 view .LVU183
 604 0018 8020     		movs	r0, #128
 605 001a 8000     		lsls	r0, r0, #2
 606 001c FFF7FEFF 		bl	HAL_PWREx_ControlVoltageScaling
 607              	.LVL42:
 154:Core/Src/main.c ****       RCC_OSCILLATORTYPE_HSI | RCC_OSCILLATORTYPE_HSI48;
 608              		.loc 1 154 3 view .LVU184
 154:Core/Src/main.c ****       RCC_OSCILLATORTYPE_HSI | RCC_OSCILLATORTYPE_HSI48;
 609              		.loc 1 154 36 is_stmt 0 view .LVU185
 610 0020 2223     		movs	r3, #34
 611 0022 0593     		str	r3, [sp, #20]
 156:Core/Src/main.c ****   RCC_OscInitStruct.HSI48State = RCC_HSI48_ON;
 612              		.loc 1 156 3 is_stmt 1 view .LVU186
 156:Core/Src/main.c ****   RCC_OscInitStruct.HSI48State = RCC_HSI48_ON;
 613              		.loc 1 156 30 is_stmt 0 view .LVU187
 614 0024 DE33     		adds	r3, r3, #222
 615 0026 0893     		str	r3, [sp, #32]
 157:Core/Src/main.c ****   RCC_OscInitStruct.HSIDiv = RCC_HSI_DIV1;
 616              		.loc 1 157 3 is_stmt 1 view .LVU188
 157:Core/Src/main.c ****   RCC_OscInitStruct.HSIDiv = RCC_HSI_DIV1;
 617              		.loc 1 157 32 is_stmt 0 view .LVU189
 618 0028 8023     		movs	r3, #128
 619 002a DB03     		lsls	r3, r3, #15
 620 002c 0C93     		str	r3, [sp, #48]
 158:Core/Src/main.c ****   RCC_OscInitStruct.HSICalibrationValue = RCC_HSICALIBRATION_DEFAULT;
 621              		.loc 1 158 3 is_stmt 1 view .LVU190
 158:Core/Src/main.c ****   RCC_OscInitStruct.HSICalibrationValue = RCC_HSICALIBRATION_DEFAULT;
 622              		.loc 1 158 28 is_stmt 0 view .LVU191
 623 002e 0023     		movs	r3, #0
 624 0030 0993     		str	r3, [sp, #36]
 159:Core/Src/main.c ****   RCC_OscInitStruct.PLL.PLLState = RCC_PLL_ON;
 625              		.loc 1 159 3 is_stmt 1 view .LVU192
 159:Core/Src/main.c ****   RCC_OscInitStruct.PLL.PLLState = RCC_PLL_ON;
 626              		.loc 1 159 41 is_stmt 0 view .LVU193
 627 0032 4022     		movs	r2, #64
 628 0034 0A92     		str	r2, [sp, #40]
 160:Core/Src/main.c ****   RCC_OscInitStruct.PLL.PLLSource = RCC_PLLSOURCE_HSI;
 629              		.loc 1 160 3 is_stmt 1 view .LVU194
 160:Core/Src/main.c ****   RCC_OscInitStruct.PLL.PLLSource = RCC_PLLSOURCE_HSI;
 630              		.loc 1 160 34 is_stmt 0 view .LVU195
 631 0036 3E3A     		subs	r2, r2, #62
 632 0038 0D92     		str	r2, [sp, #52]
 161:Core/Src/main.c ****   RCC_OscInitStruct.PLL.PLLM = RCC_PLLM_DIV1;
 633              		.loc 1 161 3 is_stmt 1 view .LVU196
 161:Core/Src/main.c ****   RCC_OscInitStruct.PLL.PLLM = RCC_PLLM_DIV1;
 634              		.loc 1 161 35 is_stmt 0 view .LVU197
ARM GAS  /tmp/ccR9F1Rl.s 			page 25


 635 003a 0E92     		str	r2, [sp, #56]
 162:Core/Src/main.c ****   RCC_OscInitStruct.PLL.PLLN = 15;
 636              		.loc 1 162 3 is_stmt 1 view .LVU198
 162:Core/Src/main.c ****   RCC_OscInitStruct.PLL.PLLN = 15;
 637              		.loc 1 162 30 is_stmt 0 view .LVU199
 638 003c 0F93     		str	r3, [sp, #60]
 163:Core/Src/main.c ****   RCC_OscInitStruct.PLL.PLLP = RCC_PLLP_DIV2;
 639              		.loc 1 163 3 is_stmt 1 view .LVU200
 163:Core/Src/main.c ****   RCC_OscInitStruct.PLL.PLLP = RCC_PLLP_DIV2;
 640              		.loc 1 163 30 is_stmt 0 view .LVU201
 641 003e 0F33     		adds	r3, r3, #15
 642 0040 1093     		str	r3, [sp, #64]
 164:Core/Src/main.c ****   RCC_OscInitStruct.PLL.PLLQ = RCC_PLLQ_DIV2;
 643              		.loc 1 164 3 is_stmt 1 view .LVU202
 164:Core/Src/main.c ****   RCC_OscInitStruct.PLL.PLLQ = RCC_PLLQ_DIV2;
 644              		.loc 1 164 30 is_stmt 0 view .LVU203
 645 0042 8023     		movs	r3, #128
 646 0044 9B02     		lsls	r3, r3, #10
 647 0046 1193     		str	r3, [sp, #68]
 165:Core/Src/main.c ****   RCC_OscInitStruct.PLL.PLLR = RCC_PLLR_DIV4;
 648              		.loc 1 165 3 is_stmt 1 view .LVU204
 165:Core/Src/main.c ****   RCC_OscInitStruct.PLL.PLLR = RCC_PLLR_DIV4;
 649              		.loc 1 165 30 is_stmt 0 view .LVU205
 650 0048 8023     		movs	r3, #128
 651 004a 9B04     		lsls	r3, r3, #18
 652 004c 1293     		str	r3, [sp, #72]
 166:Core/Src/main.c ****   if (HAL_RCC_OscConfig(&RCC_OscInitStruct) != HAL_OK) {
 653              		.loc 1 166 3 is_stmt 1 view .LVU206
 166:Core/Src/main.c ****   if (HAL_RCC_OscConfig(&RCC_OscInitStruct) != HAL_OK) {
 654              		.loc 1 166 30 is_stmt 0 view .LVU207
 655 004e C023     		movs	r3, #192
 656 0050 DB05     		lsls	r3, r3, #23
 657 0052 1393     		str	r3, [sp, #76]
 167:Core/Src/main.c ****     Error_Handler();
 658              		.loc 1 167 3 is_stmt 1 view .LVU208
 167:Core/Src/main.c ****     Error_Handler();
 659              		.loc 1 167 7 is_stmt 0 view .LVU209
 660 0054 05A8     		add	r0, sp, #20
 661 0056 FFF7FEFF 		bl	HAL_RCC_OscConfig
 662              	.LVL43:
 167:Core/Src/main.c ****     Error_Handler();
 663              		.loc 1 167 6 discriminator 1 view .LVU210
 664 005a 0028     		cmp	r0, #0
 665 005c 0ED1     		bne	.L45
 173:Core/Src/main.c ****       RCC_CLOCKTYPE_HCLK | RCC_CLOCKTYPE_SYSCLK | RCC_CLOCKTYPE_PCLK1;
 666              		.loc 1 173 3 is_stmt 1 view .LVU211
 173:Core/Src/main.c ****       RCC_CLOCKTYPE_HCLK | RCC_CLOCKTYPE_SYSCLK | RCC_CLOCKTYPE_PCLK1;
 667              		.loc 1 173 31 is_stmt 0 view .LVU212
 668 005e 0723     		movs	r3, #7
 669 0060 0193     		str	r3, [sp, #4]
 175:Core/Src/main.c ****   RCC_ClkInitStruct.AHBCLKDivider = RCC_SYSCLK_DIV1;
 670              		.loc 1 175 3 is_stmt 1 view .LVU213
 175:Core/Src/main.c ****   RCC_ClkInitStruct.AHBCLKDivider = RCC_SYSCLK_DIV1;
 671              		.loc 1 175 34 is_stmt 0 view .LVU214
 672 0062 053B     		subs	r3, r3, #5
 673 0064 0293     		str	r3, [sp, #8]
 176:Core/Src/main.c ****   RCC_ClkInitStruct.APB1CLKDivider = RCC_HCLK_DIV1;
ARM GAS  /tmp/ccR9F1Rl.s 			page 26


 674              		.loc 1 176 3 is_stmt 1 view .LVU215
 176:Core/Src/main.c ****   RCC_ClkInitStruct.APB1CLKDivider = RCC_HCLK_DIV1;
 675              		.loc 1 176 35 is_stmt 0 view .LVU216
 676 0066 0023     		movs	r3, #0
 677 0068 0393     		str	r3, [sp, #12]
 177:Core/Src/main.c **** 
 678              		.loc 1 177 3 is_stmt 1 view .LVU217
 177:Core/Src/main.c **** 
 679              		.loc 1 177 36 is_stmt 0 view .LVU218
 680 006a 0493     		str	r3, [sp, #16]
 179:Core/Src/main.c ****     Error_Handler();
 681              		.loc 1 179 3 is_stmt 1 view .LVU219
 179:Core/Src/main.c ****     Error_Handler();
 682              		.loc 1 179 7 is_stmt 0 view .LVU220
 683 006c 0221     		movs	r1, #2
 684 006e 01A8     		add	r0, sp, #4
 685 0070 FFF7FEFF 		bl	HAL_RCC_ClockConfig
 686              	.LVL44:
 179:Core/Src/main.c ****     Error_Handler();
 687              		.loc 1 179 6 discriminator 1 view .LVU221
 688 0074 0028     		cmp	r0, #0
 689 0076 03D1     		bne	.L46
 182:Core/Src/main.c **** 
 690              		.loc 1 182 1 view .LVU222
 691 0078 15B0     		add	sp, sp, #84
 692              		@ sp needed
 693 007a 00BD     		pop	{pc}
 694              	.L45:
 168:Core/Src/main.c ****   }
 695              		.loc 1 168 5 is_stmt 1 view .LVU223
 696 007c FFF7FEFF 		bl	Error_Handler
 697              	.LVL45:
 698              	.L46:
 180:Core/Src/main.c ****   }
 699              		.loc 1 180 5 view .LVU224
 700 0080 FFF7FEFF 		bl	Error_Handler
 701              	.LVL46:
 702              		.cfi_endproc
 703              	.LFE371:
 705              		.section	.text.main,"ax",%progbits
 706              		.align	1
 707              		.global	main
 708              		.syntax unified
 709              		.code	16
 710              		.thumb_func
 712              	main:
 713              	.LFB370:
  80:Core/Src/main.c **** 
 714              		.loc 1 80 16 view -0
 715              		.cfi_startproc
 716              		@ args = 0, pretend = 0, frame = 8
 717              		@ frame_needed = 0, uses_anonymous_args = 0
 718 0000 00B5     		push	{lr}
 719              	.LCFI8:
 720              		.cfi_def_cfa_offset 4
 721              		.cfi_offset 14, -4
 722 0002 83B0     		sub	sp, sp, #12
ARM GAS  /tmp/ccR9F1Rl.s 			page 27


 723              	.LCFI9:
 724              		.cfi_def_cfa_offset 16
  90:Core/Src/main.c **** 
 725              		.loc 1 90 3 view .LVU226
 726 0004 FFF7FEFF 		bl	HAL_Init
 727              	.LVL47:
  97:Core/Src/main.c **** 
 728              		.loc 1 97 3 view .LVU227
 729 0008 FFF7FEFF 		bl	SystemClock_Config
 730              	.LVL48:
 104:Core/Src/main.c ****   MX_TIM1_Init();
 731              		.loc 1 104 3 view .LVU228
 732 000c FFF7FEFF 		bl	MX_GPIO_Init
 733              	.LVL49:
 105:Core/Src/main.c ****   MX_USART1_UART_Init();
 734              		.loc 1 105 3 view .LVU229
 735 0010 FFF7FEFF 		bl	MX_TIM1_Init
 736              	.LVL50:
 106:Core/Src/main.c ****   MX_USB_Device_Init();
 737              		.loc 1 106 3 view .LVU230
 738 0014 FFF7FEFF 		bl	MX_USART1_UART_Init
 739              	.LVL51:
 107:Core/Src/main.c ****   /* USER CODE BEGIN 2 */
 740              		.loc 1 107 3 view .LVU231
 741 0018 FFF7FEFF 		bl	MX_USB_Device_Init
 742              	.LVL52:
 111:Core/Src/main.c **** 
 743              		.loc 1 111 3 view .LVU232
 744 001c 0120     		movs	r0, #1
 745 001e FFF7FEFF 		bl	servo_init
 746              	.LVL53:
 113:Core/Src/main.c **** 
 747              		.loc 1 113 3 view .LVU233
 748 0022 6420     		movs	r0, #100
 749 0024 FFF7FEFF 		bl	HAL_Delay
 750              	.LVL54:
 116:Core/Src/main.c ****   servo_status_t status;
 751              		.loc 1 116 3 view .LVU234
 116:Core/Src/main.c ****   servo_status_t status;
 752              		.loc 1 116 12 is_stmt 0 view .LVU235
 753 0028 6B46     		mov	r3, sp
 754 002a 0022     		movs	r2, #0
 755 002c DA80     		strh	r2, [r3, #6]
 756              	.L50:
 117:Core/Src/main.c ****   while (1) {
 757              		.loc 1 117 3 is_stmt 1 view .LVU236
 118:Core/Src/main.c ****     status = servo_read_position(&startup_pos);
 758              		.loc 1 118 3 view .LVU237
 119:Core/Src/main.c ****     if (status == SERVO_OK) {
 759              		.loc 1 119 5 view .LVU238
 119:Core/Src/main.c ****     if (status == SERVO_OK) {
 760              		.loc 1 119 14 is_stmt 0 view .LVU239
 761 002e 6B46     		mov	r3, sp
 762 0030 981D     		adds	r0, r3, #6
 763 0032 FFF7FEFF 		bl	servo_read_position
 764              	.LVL55:
 120:Core/Src/main.c ****       position_offset = startup_pos;
ARM GAS  /tmp/ccR9F1Rl.s 			page 28


 765              		.loc 1 120 5 is_stmt 1 view .LVU240
 120:Core/Src/main.c ****       position_offset = startup_pos;
 766              		.loc 1 120 8 is_stmt 0 view .LVU241
 767 0036 0028     		cmp	r0, #0
 768 0038 03D0     		beq	.L51
 124:Core/Src/main.c ****   }
 769              		.loc 1 124 5 is_stmt 1 view .LVU242
 770 003a 6420     		movs	r0, #100
 771              	.LVL56:
 124:Core/Src/main.c ****   }
 772              		.loc 1 124 5 is_stmt 0 view .LVU243
 773 003c FFF7FEFF 		bl	HAL_Delay
 774              	.LVL57:
 118:Core/Src/main.c ****     status = servo_read_position(&startup_pos);
 775              		.loc 1 118 9 is_stmt 1 view .LVU244
 119:Core/Src/main.c ****     if (status == SERVO_OK) {
 776              		.loc 1 119 12 is_stmt 0 view .LVU245
 777 0040 F5E7     		b	.L50
 778              	.LVL58:
 779              	.L51:
 121:Core/Src/main.c ****       break;
 780              		.loc 1 121 7 is_stmt 1 view .LVU246
 121:Core/Src/main.c ****       break;
 781              		.loc 1 121 23 is_stmt 0 view .LVU247
 782 0042 034B     		ldr	r3, .L52
 783 0044 6A46     		mov	r2, sp
 784 0046 0632     		adds	r2, r2, #6
 785 0048 1288     		ldrh	r2, [r2]
 786 004a 1A80     		strh	r2, [r3]
 122:Core/Src/main.c ****     }
 787              		.loc 1 122 7 is_stmt 1 view .LVU248
 788              	.L49:
 131:Core/Src/main.c ****     /* USER CODE END WHILE */
 789              		.loc 1 131 3 view .LVU249
 135:Core/Src/main.c ****   /* USER CODE END 3 */
 790              		.loc 1 135 3 view .LVU250
 131:Core/Src/main.c ****     /* USER CODE END WHILE */
 791              		.loc 1 131 9 view .LVU251
 792 004c FEE7     		b	.L49
 793              	.L53:
 794 004e C046     		.align	2
 795              	.L52:
 796 0050 00000000 		.word	position_offset
 797              		.cfi_endproc
 798              	.LFE370:
 800              		.section	.bss.position_offset,"aw",%nobits
 801              		.align	1
 804              	position_offset:
 805 0000 0000     		.space	2
 806              		.global	huart1
 807              		.section	.bss.huart1,"aw",%nobits
 808              		.align	2
 811              	huart1:
 812 0000 00000000 		.space	148
 812      00000000 
 812      00000000 
 812      00000000 
ARM GAS  /tmp/ccR9F1Rl.s 			page 29


 812      00000000 
 813              		.global	htim1
 814              		.section	.bss.htim1,"aw",%nobits
 815              		.align	2
 818              	htim1:
 819 0000 00000000 		.space	76
 819      00000000 
 819      00000000 
 819      00000000 
 819      00000000 
 820              		.text
 821              	.Letext0:
 822              		.file 3 "/usr/lib/gcc/arm-none-eabi/13.2.1/include/stdint.h"
 823              		.file 4 "Drivers/CMSIS/Device/ST/STM32G0xx/Include/stm32g0b1xx.h"
 824              		.file 5 "Drivers/STM32G0xx_HAL_Driver/Inc/stm32g0xx_hal_def.h"
 825              		.file 6 "Drivers/STM32G0xx_HAL_Driver/Inc/stm32g0xx_hal_rcc.h"
 826              		.file 7 "Drivers/STM32G0xx_HAL_Driver/Inc/stm32g0xx_hal_dma.h"
 827              		.file 8 "Drivers/STM32G0xx_HAL_Driver/Inc/stm32g0xx_hal_tim.h"
 828              		.file 9 "Drivers/STM32G0xx_HAL_Driver/Inc/stm32g0xx_hal_uart.h"
 829              		.file 10 "Core/Inc/servo.h"
 830              		.file 11 "Drivers/STM32G0xx_HAL_Driver/Inc/stm32g0xx_ll_dma.h"
 831              		.file 12 "Drivers/STM32G0xx_HAL_Driver/Inc/stm32g0xx_hal_pwr_ex.h"
 832              		.file 13 "Drivers/STM32G0xx_HAL_Driver/Inc/stm32g0xx_hal_uart_ex.h"
 833              		.file 14 "Drivers/STM32G0xx_HAL_Driver/Inc/stm32g0xx_hal_tim_ex.h"
 834              		.file 15 "Drivers/STM32G0xx_HAL_Driver/Inc/stm32g0xx_hal.h"
 835              		.file 16 "USB_Device/App/usb_device.h"
 836              		.file 17 "<built-in>"
ARM GAS  /tmp/ccR9F1Rl.s 			page 30


DEFINED SYMBOLS
                            *ABS*:00000000 main.c
     /tmp/ccR9F1Rl.s:19     .text.MX_GPIO_Init:00000000 $t
     /tmp/ccR9F1Rl.s:24     .text.MX_GPIO_Init:00000000 MX_GPIO_Init
     /tmp/ccR9F1Rl.s:74     .text.MX_GPIO_Init:00000028 $d
     /tmp/ccR9F1Rl.s:79     .text.process_degree_command:00000000 $t
     /tmp/ccR9F1Rl.s:85     .text.process_degree_command:00000000 process_degree_command
     /tmp/ccR9F1Rl.s:280    .text.process_degree_command:0000008c $d
     /tmp/ccR9F1Rl.s:804    .bss.position_offset:00000000 position_offset
     /tmp/ccR9F1Rl.s:286    .text.Error_Handler:00000000 $t
     /tmp/ccR9F1Rl.s:292    .text.Error_Handler:00000000 Error_Handler
     /tmp/ccR9F1Rl.s:324    .text.MX_TIM1_Init:00000000 $t
     /tmp/ccR9F1Rl.s:329    .text.MX_TIM1_Init:00000000 MX_TIM1_Init
     /tmp/ccR9F1Rl.s:442    .text.MX_TIM1_Init:00000070 $d
     /tmp/ccR9F1Rl.s:818    .bss.htim1:00000000 htim1
     /tmp/ccR9F1Rl.s:448    .text.MX_USART1_UART_Init:00000000 $t
     /tmp/ccR9F1Rl.s:453    .text.MX_USART1_UART_Init:00000000 MX_USART1_UART_Init
     /tmp/ccR9F1Rl.s:563    .text.MX_USART1_UART_Init:00000068 $d
     /tmp/ccR9F1Rl.s:811    .bss.huart1:00000000 huart1
     /tmp/ccR9F1Rl.s:570    .text.SystemClock_Config:00000000 $t
     /tmp/ccR9F1Rl.s:576    .text.SystemClock_Config:00000000 SystemClock_Config
     /tmp/ccR9F1Rl.s:706    .text.main:00000000 $t
     /tmp/ccR9F1Rl.s:712    .text.main:00000000 main
     /tmp/ccR9F1Rl.s:796    .text.main:00000050 $d
     /tmp/ccR9F1Rl.s:801    .bss.position_offset:00000000 $d
     /tmp/ccR9F1Rl.s:808    .bss.huart1:00000000 $d
     /tmp/ccR9F1Rl.s:815    .bss.htim1:00000000 $d

UNDEFINED SYMBOLS
servo_set_position
servo_read_position
CDC_Transmit_FS
memset
HAL_TIM_Base_Init
HAL_TIM_ConfigClockSource
HAL_TIMEx_MasterConfigSynchronization
HAL_HalfDuplex_Init
HAL_UARTEx_SetTxFifoThreshold
HAL_UARTEx_SetRxFifoThreshold
HAL_UARTEx_DisableFifoMode
HAL_PWREx_ControlVoltageScaling
HAL_RCC_OscConfig
HAL_RCC_ClockConfig
HAL_Init
MX_USB_Device_Init
servo_init
HAL_Delay
