ARM GAS  /tmp/ccqDTMd2.s 			page 1


   1              		.cpu cortex-m0plus
   2              		.arch armv6s-m
   3              		.fpu softvfp
   4              		.eabi_attribute 20, 1
   5              		.eabi_attribute 21, 1
   6              		.eabi_attribute 23, 3
   7              		.eabi_attribute 24, 1
   8              		.eabi_attribute 25, 1
   9              		.eabi_attribute 26, 1
  10              		.eabi_attribute 30, 1
  11              		.eabi_attribute 34, 0
  12              		.eabi_attribute 18, 4
  13              		.file	"stm32g0xx_hal_pwr_ex.c"
  14              		.text
  15              	.Ltext0:
  16              		.cfi_sections	.debug_frame
  17              		.file 1 "Drivers/STM32G0xx_HAL_Driver/Src/stm32g0xx_hal_pwr_ex.c"
  18              		.section	.text.HAL_PWREx_EnableBatteryCharging,"ax",%progbits
  19              		.align	1
  20              		.global	HAL_PWREx_EnableBatteryCharging
  21              		.syntax unified
  22              		.code	16
  23              		.thumb_func
  25              	HAL_PWREx_EnableBatteryCharging:
  26              	.LVL0:
  27              	.LFB366:
   1:Drivers/STM32G0xx_HAL_Driver/Src/stm32g0xx_hal_pwr_ex.c **** /**
   2:Drivers/STM32G0xx_HAL_Driver/Src/stm32g0xx_hal_pwr_ex.c ****   ******************************************************************************
   3:Drivers/STM32G0xx_HAL_Driver/Src/stm32g0xx_hal_pwr_ex.c ****   * @file    stm32g0xx_hal_pwr_ex.c
   4:Drivers/STM32G0xx_HAL_Driver/Src/stm32g0xx_hal_pwr_ex.c ****   * @author  MCD Application Team
   5:Drivers/STM32G0xx_HAL_Driver/Src/stm32g0xx_hal_pwr_ex.c ****   * @brief   Extended PWR HAL module driver.
   6:Drivers/STM32G0xx_HAL_Driver/Src/stm32g0xx_hal_pwr_ex.c ****   *          This file provides firmware functions to manage the following
   7:Drivers/STM32G0xx_HAL_Driver/Src/stm32g0xx_hal_pwr_ex.c ****   *          functionalities of the Power Controller (PWR) peripheral:
   8:Drivers/STM32G0xx_HAL_Driver/Src/stm32g0xx_hal_pwr_ex.c ****   *           + Extended Initialization and de-initialization functions
   9:Drivers/STM32G0xx_HAL_Driver/Src/stm32g0xx_hal_pwr_ex.c ****   *           + Extended Peripheral Control functions
  10:Drivers/STM32G0xx_HAL_Driver/Src/stm32g0xx_hal_pwr_ex.c ****   *
  11:Drivers/STM32G0xx_HAL_Driver/Src/stm32g0xx_hal_pwr_ex.c ****   ******************************************************************************
  12:Drivers/STM32G0xx_HAL_Driver/Src/stm32g0xx_hal_pwr_ex.c ****   * @attention
  13:Drivers/STM32G0xx_HAL_Driver/Src/stm32g0xx_hal_pwr_ex.c ****   *
  14:Drivers/STM32G0xx_HAL_Driver/Src/stm32g0xx_hal_pwr_ex.c ****   * Copyright (c) 2018 STMicroelectronics.
  15:Drivers/STM32G0xx_HAL_Driver/Src/stm32g0xx_hal_pwr_ex.c ****   * All rights reserved.
  16:Drivers/STM32G0xx_HAL_Driver/Src/stm32g0xx_hal_pwr_ex.c ****   *
  17:Drivers/STM32G0xx_HAL_Driver/Src/stm32g0xx_hal_pwr_ex.c ****   * This software is licensed under terms that can be found in the LICENSE file
  18:Drivers/STM32G0xx_HAL_Driver/Src/stm32g0xx_hal_pwr_ex.c ****   * in the root directory of this software component.
  19:Drivers/STM32G0xx_HAL_Driver/Src/stm32g0xx_hal_pwr_ex.c ****   * If no LICENSE file comes with this software, it is provided AS-IS.
  20:Drivers/STM32G0xx_HAL_Driver/Src/stm32g0xx_hal_pwr_ex.c ****   *
  21:Drivers/STM32G0xx_HAL_Driver/Src/stm32g0xx_hal_pwr_ex.c ****   ******************************************************************************
  22:Drivers/STM32G0xx_HAL_Driver/Src/stm32g0xx_hal_pwr_ex.c ****   */
  23:Drivers/STM32G0xx_HAL_Driver/Src/stm32g0xx_hal_pwr_ex.c **** 
  24:Drivers/STM32G0xx_HAL_Driver/Src/stm32g0xx_hal_pwr_ex.c **** /* Includes ------------------------------------------------------------------*/
  25:Drivers/STM32G0xx_HAL_Driver/Src/stm32g0xx_hal_pwr_ex.c **** #include "stm32g0xx_hal.h"
  26:Drivers/STM32G0xx_HAL_Driver/Src/stm32g0xx_hal_pwr_ex.c **** 
  27:Drivers/STM32G0xx_HAL_Driver/Src/stm32g0xx_hal_pwr_ex.c **** /** @addtogroup STM32G0xx_HAL_Driver
  28:Drivers/STM32G0xx_HAL_Driver/Src/stm32g0xx_hal_pwr_ex.c ****   * @{
  29:Drivers/STM32G0xx_HAL_Driver/Src/stm32g0xx_hal_pwr_ex.c ****   */
  30:Drivers/STM32G0xx_HAL_Driver/Src/stm32g0xx_hal_pwr_ex.c **** 
  31:Drivers/STM32G0xx_HAL_Driver/Src/stm32g0xx_hal_pwr_ex.c **** /** @addtogroup PWREx
ARM GAS  /tmp/ccqDTMd2.s 			page 2


  32:Drivers/STM32G0xx_HAL_Driver/Src/stm32g0xx_hal_pwr_ex.c ****   * @{
  33:Drivers/STM32G0xx_HAL_Driver/Src/stm32g0xx_hal_pwr_ex.c ****   */
  34:Drivers/STM32G0xx_HAL_Driver/Src/stm32g0xx_hal_pwr_ex.c **** 
  35:Drivers/STM32G0xx_HAL_Driver/Src/stm32g0xx_hal_pwr_ex.c **** #ifdef HAL_PWR_MODULE_ENABLED
  36:Drivers/STM32G0xx_HAL_Driver/Src/stm32g0xx_hal_pwr_ex.c **** 
  37:Drivers/STM32G0xx_HAL_Driver/Src/stm32g0xx_hal_pwr_ex.c **** /* Private typedef -----------------------------------------------------------*/
  38:Drivers/STM32G0xx_HAL_Driver/Src/stm32g0xx_hal_pwr_ex.c **** /* Private define ------------------------------------------------------------*/
  39:Drivers/STM32G0xx_HAL_Driver/Src/stm32g0xx_hal_pwr_ex.c **** /** @defgroup PWR_Extended_Private_Defines PWR Extended Private Defines
  40:Drivers/STM32G0xx_HAL_Driver/Src/stm32g0xx_hal_pwr_ex.c ****   * @{
  41:Drivers/STM32G0xx_HAL_Driver/Src/stm32g0xx_hal_pwr_ex.c ****   */
  42:Drivers/STM32G0xx_HAL_Driver/Src/stm32g0xx_hal_pwr_ex.c **** 
  43:Drivers/STM32G0xx_HAL_Driver/Src/stm32g0xx_hal_pwr_ex.c **** #if defined(PWR_PVD_SUPPORT)
  44:Drivers/STM32G0xx_HAL_Driver/Src/stm32g0xx_hal_pwr_ex.c **** /** @defgroup PWR_PVD_Mode_Mask PWR PVD Mode Mask
  45:Drivers/STM32G0xx_HAL_Driver/Src/stm32g0xx_hal_pwr_ex.c ****   * @{
  46:Drivers/STM32G0xx_HAL_Driver/Src/stm32g0xx_hal_pwr_ex.c ****   */
  47:Drivers/STM32G0xx_HAL_Driver/Src/stm32g0xx_hal_pwr_ex.c **** #define PVD_MODE_IT           0x00010000U  /*!< Mask for interruption yielded
  48:Drivers/STM32G0xx_HAL_Driver/Src/stm32g0xx_hal_pwr_ex.c ****                                                 by PVD threshold crossing     */
  49:Drivers/STM32G0xx_HAL_Driver/Src/stm32g0xx_hal_pwr_ex.c **** #define PVD_MODE_EVT          0x00020000U  /*!< Mask for event yielded
  50:Drivers/STM32G0xx_HAL_Driver/Src/stm32g0xx_hal_pwr_ex.c ****                                                 by PVD threshold crossing     */
  51:Drivers/STM32G0xx_HAL_Driver/Src/stm32g0xx_hal_pwr_ex.c **** #define PVD_RISING_EDGE       0x00000001U  /*!< Mask for rising edge set as
  52:Drivers/STM32G0xx_HAL_Driver/Src/stm32g0xx_hal_pwr_ex.c ****                                                 PVD trigger                   */
  53:Drivers/STM32G0xx_HAL_Driver/Src/stm32g0xx_hal_pwr_ex.c **** #define PVD_FALLING_EDGE      0x00000002U  /*!< Mask for falling edge set as
  54:Drivers/STM32G0xx_HAL_Driver/Src/stm32g0xx_hal_pwr_ex.c ****                                                 PVD trigger                   */
  55:Drivers/STM32G0xx_HAL_Driver/Src/stm32g0xx_hal_pwr_ex.c **** /**
  56:Drivers/STM32G0xx_HAL_Driver/Src/stm32g0xx_hal_pwr_ex.c ****   * @}
  57:Drivers/STM32G0xx_HAL_Driver/Src/stm32g0xx_hal_pwr_ex.c ****   */
  58:Drivers/STM32G0xx_HAL_Driver/Src/stm32g0xx_hal_pwr_ex.c **** #endif /* PWR_PVD_SUPPORT */
  59:Drivers/STM32G0xx_HAL_Driver/Src/stm32g0xx_hal_pwr_ex.c **** 
  60:Drivers/STM32G0xx_HAL_Driver/Src/stm32g0xx_hal_pwr_ex.c **** /** @defgroup PWREx_TimeOut_Value  PWREx Flag Setting Time Out Value
  61:Drivers/STM32G0xx_HAL_Driver/Src/stm32g0xx_hal_pwr_ex.c ****   * @{
  62:Drivers/STM32G0xx_HAL_Driver/Src/stm32g0xx_hal_pwr_ex.c ****   */
  63:Drivers/STM32G0xx_HAL_Driver/Src/stm32g0xx_hal_pwr_ex.c **** #define PWR_REGLPF_SETTING_DELAY_6_US       6u  /*!< REGLPF should rise in about 5 us plus
  64:Drivers/STM32G0xx_HAL_Driver/Src/stm32g0xx_hal_pwr_ex.c ****                                                      2 APB clock. Taking in account max Sysclk at
  65:Drivers/STM32G0xx_HAL_Driver/Src/stm32g0xx_hal_pwr_ex.c ****                                                      2 MHz, and rounded to upper value */
  66:Drivers/STM32G0xx_HAL_Driver/Src/stm32g0xx_hal_pwr_ex.c **** 
  67:Drivers/STM32G0xx_HAL_Driver/Src/stm32g0xx_hal_pwr_ex.c **** #define PWR_VOSF_SETTING_DELAY_6_US         6u  /*!< VOSF should rise in about 5 us plus
  68:Drivers/STM32G0xx_HAL_Driver/Src/stm32g0xx_hal_pwr_ex.c ****                                                      2 APB clock. Taking in account max Sysclk at
  69:Drivers/STM32G0xx_HAL_Driver/Src/stm32g0xx_hal_pwr_ex.c ****                                                      16 MHz, and rounded to upper value */
  70:Drivers/STM32G0xx_HAL_Driver/Src/stm32g0xx_hal_pwr_ex.c **** /**
  71:Drivers/STM32G0xx_HAL_Driver/Src/stm32g0xx_hal_pwr_ex.c ****   * @}
  72:Drivers/STM32G0xx_HAL_Driver/Src/stm32g0xx_hal_pwr_ex.c ****   */
  73:Drivers/STM32G0xx_HAL_Driver/Src/stm32g0xx_hal_pwr_ex.c **** 
  74:Drivers/STM32G0xx_HAL_Driver/Src/stm32g0xx_hal_pwr_ex.c **** /** @defgroup PWREx_Gpio_Pin_Number  PWREx Gpio Pin Number
  75:Drivers/STM32G0xx_HAL_Driver/Src/stm32g0xx_hal_pwr_ex.c ****   * @{
  76:Drivers/STM32G0xx_HAL_Driver/Src/stm32g0xx_hal_pwr_ex.c ****   */
  77:Drivers/STM32G0xx_HAL_Driver/Src/stm32g0xx_hal_pwr_ex.c **** #define PWR_GPIO_PIN_NB                     16u  /*!< Number of gpio pin in bank */
  78:Drivers/STM32G0xx_HAL_Driver/Src/stm32g0xx_hal_pwr_ex.c **** /**
  79:Drivers/STM32G0xx_HAL_Driver/Src/stm32g0xx_hal_pwr_ex.c ****   * @}
  80:Drivers/STM32G0xx_HAL_Driver/Src/stm32g0xx_hal_pwr_ex.c ****   */
  81:Drivers/STM32G0xx_HAL_Driver/Src/stm32g0xx_hal_pwr_ex.c **** 
  82:Drivers/STM32G0xx_HAL_Driver/Src/stm32g0xx_hal_pwr_ex.c **** /**
  83:Drivers/STM32G0xx_HAL_Driver/Src/stm32g0xx_hal_pwr_ex.c ****   * @}
  84:Drivers/STM32G0xx_HAL_Driver/Src/stm32g0xx_hal_pwr_ex.c ****   */
  85:Drivers/STM32G0xx_HAL_Driver/Src/stm32g0xx_hal_pwr_ex.c **** 
  86:Drivers/STM32G0xx_HAL_Driver/Src/stm32g0xx_hal_pwr_ex.c **** /* Private macro -------------------------------------------------------------*/
  87:Drivers/STM32G0xx_HAL_Driver/Src/stm32g0xx_hal_pwr_ex.c **** /* Private variables ---------------------------------------------------------*/
  88:Drivers/STM32G0xx_HAL_Driver/Src/stm32g0xx_hal_pwr_ex.c **** /* Private function prototypes -----------------------------------------------*/
ARM GAS  /tmp/ccqDTMd2.s 			page 3


  89:Drivers/STM32G0xx_HAL_Driver/Src/stm32g0xx_hal_pwr_ex.c **** /* Exported functions --------------------------------------------------------*/
  90:Drivers/STM32G0xx_HAL_Driver/Src/stm32g0xx_hal_pwr_ex.c **** /** @addtogroup PWREx_Exported_Functions PWR Extended Exported Functions
  91:Drivers/STM32G0xx_HAL_Driver/Src/stm32g0xx_hal_pwr_ex.c ****   * @{
  92:Drivers/STM32G0xx_HAL_Driver/Src/stm32g0xx_hal_pwr_ex.c ****   */
  93:Drivers/STM32G0xx_HAL_Driver/Src/stm32g0xx_hal_pwr_ex.c **** 
  94:Drivers/STM32G0xx_HAL_Driver/Src/stm32g0xx_hal_pwr_ex.c **** /** @addtogroup PWREx_Exported_Functions_Group1 Extended Peripheral Control functions
  95:Drivers/STM32G0xx_HAL_Driver/Src/stm32g0xx_hal_pwr_ex.c ****   *  @brief   Extended Peripheral Control functions
  96:Drivers/STM32G0xx_HAL_Driver/Src/stm32g0xx_hal_pwr_ex.c ****   *
  97:Drivers/STM32G0xx_HAL_Driver/Src/stm32g0xx_hal_pwr_ex.c **** @verbatim
  98:Drivers/STM32G0xx_HAL_Driver/Src/stm32g0xx_hal_pwr_ex.c ****  ===============================================================================
  99:Drivers/STM32G0xx_HAL_Driver/Src/stm32g0xx_hal_pwr_ex.c ****   ##### Extended Peripheral Initialization and de-initialization functions #####
 100:Drivers/STM32G0xx_HAL_Driver/Src/stm32g0xx_hal_pwr_ex.c ****  ===============================================================================
 101:Drivers/STM32G0xx_HAL_Driver/Src/stm32g0xx_hal_pwr_ex.c ****     [..]
 102:Drivers/STM32G0xx_HAL_Driver/Src/stm32g0xx_hal_pwr_ex.c ****      *** PVD configuration ***
 103:Drivers/STM32G0xx_HAL_Driver/Src/stm32g0xx_hal_pwr_ex.c ****     =========================
 104:Drivers/STM32G0xx_HAL_Driver/Src/stm32g0xx_hal_pwr_ex.c ****     [..]
 105:Drivers/STM32G0xx_HAL_Driver/Src/stm32g0xx_hal_pwr_ex.c ****       (+) The PVD is used to monitor the VDD power supply by comparing it to a
 106:Drivers/STM32G0xx_HAL_Driver/Src/stm32g0xx_hal_pwr_ex.c ****           threshold selected by the PVD Level (PVDRT[2:0] & PVDFT[2:0] bits in
 107:Drivers/STM32G0xx_HAL_Driver/Src/stm32g0xx_hal_pwr_ex.c ****           PWR CR2 register).
 108:Drivers/STM32G0xx_HAL_Driver/Src/stm32g0xx_hal_pwr_ex.c ****       (+) PVDO flag is available to indicate if VDD/VDDA is higher or lower
 109:Drivers/STM32G0xx_HAL_Driver/Src/stm32g0xx_hal_pwr_ex.c ****           than the PVD threshold. This event is internally connected to the EXTI
 110:Drivers/STM32G0xx_HAL_Driver/Src/stm32g0xx_hal_pwr_ex.c ****           line 16 and can generate an interrupt if enabled.
 111:Drivers/STM32G0xx_HAL_Driver/Src/stm32g0xx_hal_pwr_ex.c ****       (+) The PVD is stopped in Standby & Shutdown mode.
 112:Drivers/STM32G0xx_HAL_Driver/Src/stm32g0xx_hal_pwr_ex.c **** 
 113:Drivers/STM32G0xx_HAL_Driver/Src/stm32g0xx_hal_pwr_ex.c ****      *** PVM configuration ***
 114:Drivers/STM32G0xx_HAL_Driver/Src/stm32g0xx_hal_pwr_ex.c ****     =========================
 115:Drivers/STM32G0xx_HAL_Driver/Src/stm32g0xx_hal_pwr_ex.c ****       (+) The PVM is used to monitor the VDDIO2 power supply by comparing it to 
 116:Drivers/STM32G0xx_HAL_Driver/Src/stm32g0xx_hal_pwr_ex.c ****           1.2 V threshold (PVM_VDDIO2[2:0] in PWR CR2 register).
 117:Drivers/STM32G0xx_HAL_Driver/Src/stm32g0xx_hal_pwr_ex.c ****       (+) PVMOVDDIO2 flag is available to indicate if VDDIO2 is higher or lower
 118:Drivers/STM32G0xx_HAL_Driver/Src/stm32g0xx_hal_pwr_ex.c ****           than the 1.2 threshold. This event is internally connected to the EXTI
 119:Drivers/STM32G0xx_HAL_Driver/Src/stm32g0xx_hal_pwr_ex.c ****           line 34 and can generate an interrupt if enabled.
 120:Drivers/STM32G0xx_HAL_Driver/Src/stm32g0xx_hal_pwr_ex.c ****       (+) This feature is supported on STM32G0C1xx and STM32G0B1xx devices.
 121:Drivers/STM32G0xx_HAL_Driver/Src/stm32g0xx_hal_pwr_ex.c **** 
 122:Drivers/STM32G0xx_HAL_Driver/Src/stm32g0xx_hal_pwr_ex.c **** @endverbatim
 123:Drivers/STM32G0xx_HAL_Driver/Src/stm32g0xx_hal_pwr_ex.c ****   * @{
 124:Drivers/STM32G0xx_HAL_Driver/Src/stm32g0xx_hal_pwr_ex.c ****   */
 125:Drivers/STM32G0xx_HAL_Driver/Src/stm32g0xx_hal_pwr_ex.c **** 
 126:Drivers/STM32G0xx_HAL_Driver/Src/stm32g0xx_hal_pwr_ex.c **** /**
 127:Drivers/STM32G0xx_HAL_Driver/Src/stm32g0xx_hal_pwr_ex.c ****   * @brief  Enable battery charging.
 128:Drivers/STM32G0xx_HAL_Driver/Src/stm32g0xx_hal_pwr_ex.c ****   * @note   When VDD is present, charge the external battery on VBAT through an
 129:Drivers/STM32G0xx_HAL_Driver/Src/stm32g0xx_hal_pwr_ex.c ****   *         internal resistor.
 130:Drivers/STM32G0xx_HAL_Driver/Src/stm32g0xx_hal_pwr_ex.c ****   * @param  ResistorSelection specifies the resistor impedance.
 131:Drivers/STM32G0xx_HAL_Driver/Src/stm32g0xx_hal_pwr_ex.c ****   *         This parameter can be one of the following values:
 132:Drivers/STM32G0xx_HAL_Driver/Src/stm32g0xx_hal_pwr_ex.c ****   *           @arg @ref PWR_BATTERY_CHARGING_RESISTOR_5     5 kOhms resistor
 133:Drivers/STM32G0xx_HAL_Driver/Src/stm32g0xx_hal_pwr_ex.c ****   *           @arg @ref PWR_BATTERY_CHARGING_RESISTOR_1_5 1.5 kOhms resistor
 134:Drivers/STM32G0xx_HAL_Driver/Src/stm32g0xx_hal_pwr_ex.c ****   * @retval None
 135:Drivers/STM32G0xx_HAL_Driver/Src/stm32g0xx_hal_pwr_ex.c ****   */
 136:Drivers/STM32G0xx_HAL_Driver/Src/stm32g0xx_hal_pwr_ex.c **** void HAL_PWREx_EnableBatteryCharging(uint32_t ResistorSelection)
 137:Drivers/STM32G0xx_HAL_Driver/Src/stm32g0xx_hal_pwr_ex.c **** {
  28              		.loc 1 137 1 view -0
  29              		.cfi_startproc
  30              		@ args = 0, pretend = 0, frame = 0
  31              		@ frame_needed = 0, uses_anonymous_args = 0
  32              		@ link register save eliminated.
 138:Drivers/STM32G0xx_HAL_Driver/Src/stm32g0xx_hal_pwr_ex.c ****   uint32_t tmpreg;
  33              		.loc 1 138 3 view .LVU1
 139:Drivers/STM32G0xx_HAL_Driver/Src/stm32g0xx_hal_pwr_ex.c ****   assert_param(IS_PWR_BATTERY_RESISTOR_SELECT(ResistorSelection));
ARM GAS  /tmp/ccqDTMd2.s 			page 4


  34              		.loc 1 139 3 view .LVU2
 140:Drivers/STM32G0xx_HAL_Driver/Src/stm32g0xx_hal_pwr_ex.c **** 
 141:Drivers/STM32G0xx_HAL_Driver/Src/stm32g0xx_hal_pwr_ex.c ****   /* Specify resistor selection and enable battery charging */
 142:Drivers/STM32G0xx_HAL_Driver/Src/stm32g0xx_hal_pwr_ex.c ****   tmpreg = (PWR->CR4 & ~PWR_CR4_VBRS);
  35              		.loc 1 142 3 view .LVU3
  36              		.loc 1 142 16 is_stmt 0 view .LVU4
  37 0000 0449     		ldr	r1, .L2
  38 0002 CB68     		ldr	r3, [r1, #12]
  39              		.loc 1 142 10 view .LVU5
  40 0004 044A     		ldr	r2, .L2+4
  41 0006 1340     		ands	r3, r2
  42              	.LVL1:
 143:Drivers/STM32G0xx_HAL_Driver/Src/stm32g0xx_hal_pwr_ex.c ****   PWR->CR4 = (tmpreg | ResistorSelection | PWR_CR4_VBE);
  43              		.loc 1 143 3 is_stmt 1 view .LVU6
  44              		.loc 1 143 22 is_stmt 0 view .LVU7
  45 0008 0343     		orrs	r3, r0
  46              	.LVL2:
  47              		.loc 1 143 42 view .LVU8
  48 000a 8022     		movs	r2, #128
  49 000c 5200     		lsls	r2, r2, #1
  50 000e 1343     		orrs	r3, r2
  51              		.loc 1 143 12 view .LVU9
  52 0010 CB60     		str	r3, [r1, #12]
 144:Drivers/STM32G0xx_HAL_Driver/Src/stm32g0xx_hal_pwr_ex.c **** }
  53              		.loc 1 144 1 view .LVU10
  54              		@ sp needed
  55 0012 7047     		bx	lr
  56              	.L3:
  57              		.align	2
  58              	.L2:
  59 0014 00700040 		.word	1073770496
  60 0018 FFFDFFFF 		.word	-513
  61              		.cfi_endproc
  62              	.LFE366:
  64              		.section	.text.HAL_PWREx_DisableBatteryCharging,"ax",%progbits
  65              		.align	1
  66              		.global	HAL_PWREx_DisableBatteryCharging
  67              		.syntax unified
  68              		.code	16
  69              		.thumb_func
  71              	HAL_PWREx_DisableBatteryCharging:
  72              	.LFB367:
 145:Drivers/STM32G0xx_HAL_Driver/Src/stm32g0xx_hal_pwr_ex.c **** 
 146:Drivers/STM32G0xx_HAL_Driver/Src/stm32g0xx_hal_pwr_ex.c **** 
 147:Drivers/STM32G0xx_HAL_Driver/Src/stm32g0xx_hal_pwr_ex.c **** /**
 148:Drivers/STM32G0xx_HAL_Driver/Src/stm32g0xx_hal_pwr_ex.c ****   * @brief Disable battery charging.
 149:Drivers/STM32G0xx_HAL_Driver/Src/stm32g0xx_hal_pwr_ex.c ****   * @retval None
 150:Drivers/STM32G0xx_HAL_Driver/Src/stm32g0xx_hal_pwr_ex.c ****   */
 151:Drivers/STM32G0xx_HAL_Driver/Src/stm32g0xx_hal_pwr_ex.c **** void HAL_PWREx_DisableBatteryCharging(void)
 152:Drivers/STM32G0xx_HAL_Driver/Src/stm32g0xx_hal_pwr_ex.c **** {
  73              		.loc 1 152 1 is_stmt 1 view -0
  74              		.cfi_startproc
  75              		@ args = 0, pretend = 0, frame = 0
  76              		@ frame_needed = 0, uses_anonymous_args = 0
  77              		@ link register save eliminated.
 153:Drivers/STM32G0xx_HAL_Driver/Src/stm32g0xx_hal_pwr_ex.c ****   CLEAR_BIT(PWR->CR4, PWR_CR4_VBE);
  78              		.loc 1 153 3 view .LVU12
ARM GAS  /tmp/ccqDTMd2.s 			page 5


  79 0000 024A     		ldr	r2, .L5
  80 0002 D368     		ldr	r3, [r2, #12]
  81 0004 0249     		ldr	r1, .L5+4
  82 0006 0B40     		ands	r3, r1
  83 0008 D360     		str	r3, [r2, #12]
 154:Drivers/STM32G0xx_HAL_Driver/Src/stm32g0xx_hal_pwr_ex.c **** }
  84              		.loc 1 154 1 is_stmt 0 view .LVU13
  85              		@ sp needed
  86 000a 7047     		bx	lr
  87              	.L6:
  88              		.align	2
  89              	.L5:
  90 000c 00700040 		.word	1073770496
  91 0010 FFFEFFFF 		.word	-257
  92              		.cfi_endproc
  93              	.LFE367:
  95              		.section	.text.HAL_PWREx_EnablePORMonitorSampling,"ax",%progbits
  96              		.align	1
  97              		.global	HAL_PWREx_EnablePORMonitorSampling
  98              		.syntax unified
  99              		.code	16
 100              		.thumb_func
 102              	HAL_PWREx_EnablePORMonitorSampling:
 103              	.LFB368:
 155:Drivers/STM32G0xx_HAL_Driver/Src/stm32g0xx_hal_pwr_ex.c **** 
 156:Drivers/STM32G0xx_HAL_Driver/Src/stm32g0xx_hal_pwr_ex.c **** #if defined(PWR_CR3_ENB_ULP)
 157:Drivers/STM32G0xx_HAL_Driver/Src/stm32g0xx_hal_pwr_ex.c **** /**
 158:Drivers/STM32G0xx_HAL_Driver/Src/stm32g0xx_hal_pwr_ex.c ****   * @brief  Enable POR Monitor sampling mode.
 159:Drivers/STM32G0xx_HAL_Driver/Src/stm32g0xx_hal_pwr_ex.c ****   * @note   When entering ultra low power modes (standby, shutdown) this feature
 160:Drivers/STM32G0xx_HAL_Driver/Src/stm32g0xx_hal_pwr_ex.c ****   *         can be enabled to reduce further consumption: Power On Reset monitor
 161:Drivers/STM32G0xx_HAL_Driver/Src/stm32g0xx_hal_pwr_ex.c ****   *         is then set in sampling mode, and no more in always on mode.
 162:Drivers/STM32G0xx_HAL_Driver/Src/stm32g0xx_hal_pwr_ex.c ****   * @retval None
 163:Drivers/STM32G0xx_HAL_Driver/Src/stm32g0xx_hal_pwr_ex.c ****   */
 164:Drivers/STM32G0xx_HAL_Driver/Src/stm32g0xx_hal_pwr_ex.c **** void HAL_PWREx_EnablePORMonitorSampling(void)
 165:Drivers/STM32G0xx_HAL_Driver/Src/stm32g0xx_hal_pwr_ex.c **** {
 104              		.loc 1 165 1 is_stmt 1 view -0
 105              		.cfi_startproc
 106              		@ args = 0, pretend = 0, frame = 0
 107              		@ frame_needed = 0, uses_anonymous_args = 0
 108              		@ link register save eliminated.
 166:Drivers/STM32G0xx_HAL_Driver/Src/stm32g0xx_hal_pwr_ex.c ****   PWR->CR3 |= PWR_CR3_ENB_ULP;
 109              		.loc 1 166 3 view .LVU15
 110              		.loc 1 166 6 is_stmt 0 view .LVU16
 111 0000 034A     		ldr	r2, .L8
 112 0002 9168     		ldr	r1, [r2, #8]
 113              		.loc 1 166 12 view .LVU17
 114 0004 8023     		movs	r3, #128
 115 0006 9B00     		lsls	r3, r3, #2
 116 0008 0B43     		orrs	r3, r1
 117 000a 9360     		str	r3, [r2, #8]
 167:Drivers/STM32G0xx_HAL_Driver/Src/stm32g0xx_hal_pwr_ex.c **** }
 118              		.loc 1 167 1 view .LVU18
 119              		@ sp needed
 120 000c 7047     		bx	lr
 121              	.L9:
 122 000e C046     		.align	2
 123              	.L8:
ARM GAS  /tmp/ccqDTMd2.s 			page 6


 124 0010 00700040 		.word	1073770496
 125              		.cfi_endproc
 126              	.LFE368:
 128              		.section	.text.HAL_PWREx_DisablePORMonitorSampling,"ax",%progbits
 129              		.align	1
 130              		.global	HAL_PWREx_DisablePORMonitorSampling
 131              		.syntax unified
 132              		.code	16
 133              		.thumb_func
 135              	HAL_PWREx_DisablePORMonitorSampling:
 136              	.LFB369:
 168:Drivers/STM32G0xx_HAL_Driver/Src/stm32g0xx_hal_pwr_ex.c **** 
 169:Drivers/STM32G0xx_HAL_Driver/Src/stm32g0xx_hal_pwr_ex.c **** 
 170:Drivers/STM32G0xx_HAL_Driver/Src/stm32g0xx_hal_pwr_ex.c **** /**
 171:Drivers/STM32G0xx_HAL_Driver/Src/stm32g0xx_hal_pwr_ex.c ****   * @brief  Disable POR Monitor sampling mode.
 172:Drivers/STM32G0xx_HAL_Driver/Src/stm32g0xx_hal_pwr_ex.c ****   * @retval None
 173:Drivers/STM32G0xx_HAL_Driver/Src/stm32g0xx_hal_pwr_ex.c ****   */
 174:Drivers/STM32G0xx_HAL_Driver/Src/stm32g0xx_hal_pwr_ex.c **** void HAL_PWREx_DisablePORMonitorSampling(void)
 175:Drivers/STM32G0xx_HAL_Driver/Src/stm32g0xx_hal_pwr_ex.c **** {
 137              		.loc 1 175 1 is_stmt 1 view -0
 138              		.cfi_startproc
 139              		@ args = 0, pretend = 0, frame = 0
 140              		@ frame_needed = 0, uses_anonymous_args = 0
 141              		@ link register save eliminated.
 176:Drivers/STM32G0xx_HAL_Driver/Src/stm32g0xx_hal_pwr_ex.c ****   PWR->CR3 &= ~PWR_CR3_ENB_ULP;
 142              		.loc 1 176 3 view .LVU20
 143              		.loc 1 176 6 is_stmt 0 view .LVU21
 144 0000 024A     		ldr	r2, .L11
 145 0002 9368     		ldr	r3, [r2, #8]
 146              		.loc 1 176 12 view .LVU22
 147 0004 0249     		ldr	r1, .L11+4
 148 0006 0B40     		ands	r3, r1
 149 0008 9360     		str	r3, [r2, #8]
 177:Drivers/STM32G0xx_HAL_Driver/Src/stm32g0xx_hal_pwr_ex.c **** }
 150              		.loc 1 177 1 view .LVU23
 151              		@ sp needed
 152 000a 7047     		bx	lr
 153              	.L12:
 154              		.align	2
 155              	.L11:
 156 000c 00700040 		.word	1073770496
 157 0010 FFFDFFFF 		.word	-513
 158              		.cfi_endproc
 159              	.LFE369:
 161              		.section	.text.HAL_PWREx_ConfigPVD,"ax",%progbits
 162              		.align	1
 163              		.global	HAL_PWREx_ConfigPVD
 164              		.syntax unified
 165              		.code	16
 166              		.thumb_func
 168              	HAL_PWREx_ConfigPVD:
 169              	.LVL3:
 170              	.LFB370:
 178:Drivers/STM32G0xx_HAL_Driver/Src/stm32g0xx_hal_pwr_ex.c **** #endif /* PWR_CR3_ENB_ULP */
 179:Drivers/STM32G0xx_HAL_Driver/Src/stm32g0xx_hal_pwr_ex.c **** 
 180:Drivers/STM32G0xx_HAL_Driver/Src/stm32g0xx_hal_pwr_ex.c **** #if defined(PWR_PVD_SUPPORT)
 181:Drivers/STM32G0xx_HAL_Driver/Src/stm32g0xx_hal_pwr_ex.c **** /**
ARM GAS  /tmp/ccqDTMd2.s 			page 7


 182:Drivers/STM32G0xx_HAL_Driver/Src/stm32g0xx_hal_pwr_ex.c ****   * @brief  Configure the Power Voltage Detector (PVD).
 183:Drivers/STM32G0xx_HAL_Driver/Src/stm32g0xx_hal_pwr_ex.c ****   * @param  sConfigPVD pointer to a PWR_PVDTypeDef structure that contains the
 184:Drivers/STM32G0xx_HAL_Driver/Src/stm32g0xx_hal_pwr_ex.c ****             PVD configuration information: threshold levels, operating mode.
 185:Drivers/STM32G0xx_HAL_Driver/Src/stm32g0xx_hal_pwr_ex.c ****   * @note   Refer to the electrical characteristics of your device datasheet for
 186:Drivers/STM32G0xx_HAL_Driver/Src/stm32g0xx_hal_pwr_ex.c ****   *         more details about the voltage thresholds corresponding to each
 187:Drivers/STM32G0xx_HAL_Driver/Src/stm32g0xx_hal_pwr_ex.c ****   *         detection level.
 188:Drivers/STM32G0xx_HAL_Driver/Src/stm32g0xx_hal_pwr_ex.c ****   * @note   User should take care that rising threshold is higher than falling
 189:Drivers/STM32G0xx_HAL_Driver/Src/stm32g0xx_hal_pwr_ex.c ****   *         one in order to avoid having always PVDO output set.
 190:Drivers/STM32G0xx_HAL_Driver/Src/stm32g0xx_hal_pwr_ex.c ****   * @retval HAL_OK
 191:Drivers/STM32G0xx_HAL_Driver/Src/stm32g0xx_hal_pwr_ex.c ****   */
 192:Drivers/STM32G0xx_HAL_Driver/Src/stm32g0xx_hal_pwr_ex.c **** HAL_StatusTypeDef HAL_PWREx_ConfigPVD(PWR_PVDTypeDef const *sConfigPVD)
 193:Drivers/STM32G0xx_HAL_Driver/Src/stm32g0xx_hal_pwr_ex.c **** {
 171              		.loc 1 193 1 is_stmt 1 view -0
 172              		.cfi_startproc
 173              		@ args = 0, pretend = 0, frame = 0
 174              		@ frame_needed = 0, uses_anonymous_args = 0
 175              		.loc 1 193 1 is_stmt 0 view .LVU25
 176 0000 10B5     		push	{r4, lr}
 177              	.LCFI0:
 178              		.cfi_def_cfa_offset 8
 179              		.cfi_offset 4, -8
 180              		.cfi_offset 14, -4
 194:Drivers/STM32G0xx_HAL_Driver/Src/stm32g0xx_hal_pwr_ex.c ****   /* Check the parameters */
 195:Drivers/STM32G0xx_HAL_Driver/Src/stm32g0xx_hal_pwr_ex.c ****   assert_param(IS_PWR_PVD_LEVEL(sConfigPVD->PVDLevel));
 181              		.loc 1 195 3 is_stmt 1 view .LVU26
 196:Drivers/STM32G0xx_HAL_Driver/Src/stm32g0xx_hal_pwr_ex.c ****   assert_param(IS_PWR_PVD_MODE(sConfigPVD->Mode));
 182              		.loc 1 196 3 view .LVU27
 197:Drivers/STM32G0xx_HAL_Driver/Src/stm32g0xx_hal_pwr_ex.c **** 
 198:Drivers/STM32G0xx_HAL_Driver/Src/stm32g0xx_hal_pwr_ex.c ****   /* Set PVD level bits only according to PVDLevel value */
 199:Drivers/STM32G0xx_HAL_Driver/Src/stm32g0xx_hal_pwr_ex.c ****   MODIFY_REG(PWR->CR2, (PWR_CR2_PVDFT | PWR_CR2_PVDRT), sConfigPVD->PVDLevel);
 183              		.loc 1 199 3 view .LVU28
 184 0002 1F4A     		ldr	r2, .L22
 185 0004 5368     		ldr	r3, [r2, #4]
 186 0006 7E21     		movs	r1, #126
 187 0008 8B43     		bics	r3, r1
 188 000a 0168     		ldr	r1, [r0]
 189 000c 0B43     		orrs	r3, r1
 190 000e 5360     		str	r3, [r2, #4]
 200:Drivers/STM32G0xx_HAL_Driver/Src/stm32g0xx_hal_pwr_ex.c **** 
 201:Drivers/STM32G0xx_HAL_Driver/Src/stm32g0xx_hal_pwr_ex.c ****   /* Clear any previous config, in case no event or IT mode is selected */
 202:Drivers/STM32G0xx_HAL_Driver/Src/stm32g0xx_hal_pwr_ex.c ****   __HAL_PWR_PVD_EXTI_DISABLE_EVENT();
 191              		.loc 1 202 3 view .LVU29
 192 0010 1C4B     		ldr	r3, .L22+4
 193 0012 8424     		movs	r4, #132
 194 0014 1959     		ldr	r1, [r3, r4]
 195 0016 1C4A     		ldr	r2, .L22+8
 196 0018 1140     		ands	r1, r2
 197 001a 1951     		str	r1, [r3, r4]
 203:Drivers/STM32G0xx_HAL_Driver/Src/stm32g0xx_hal_pwr_ex.c ****   __HAL_PWR_PVD_EXTI_DISABLE_IT();
 198              		.loc 1 203 3 view .LVU30
 199 001c 043C     		subs	r4, r4, #4
 200 001e 1959     		ldr	r1, [r3, r4]
 201 0020 1140     		ands	r1, r2
 202 0022 1951     		str	r1, [r3, r4]
 204:Drivers/STM32G0xx_HAL_Driver/Src/stm32g0xx_hal_pwr_ex.c ****   __HAL_PWR_PVD_EXTI_DISABLE_FALLING_EDGE();
 203              		.loc 1 204 3 view .LVU31
 204 0024 5968     		ldr	r1, [r3, #4]
ARM GAS  /tmp/ccqDTMd2.s 			page 8


 205 0026 1140     		ands	r1, r2
 206 0028 5960     		str	r1, [r3, #4]
 205:Drivers/STM32G0xx_HAL_Driver/Src/stm32g0xx_hal_pwr_ex.c ****   __HAL_PWR_PVD_EXTI_DISABLE_RISING_EDGE();
 207              		.loc 1 205 3 view .LVU32
 208 002a 1968     		ldr	r1, [r3]
 209 002c 0A40     		ands	r2, r1
 210 002e 1A60     		str	r2, [r3]
 206:Drivers/STM32G0xx_HAL_Driver/Src/stm32g0xx_hal_pwr_ex.c **** 
 207:Drivers/STM32G0xx_HAL_Driver/Src/stm32g0xx_hal_pwr_ex.c ****   /* Configure interrupt mode */
 208:Drivers/STM32G0xx_HAL_Driver/Src/stm32g0xx_hal_pwr_ex.c ****   if ((sConfigPVD->Mode & PVD_MODE_IT) == PVD_MODE_IT)
 211              		.loc 1 208 3 view .LVU33
 212              		.loc 1 208 18 is_stmt 0 view .LVU34
 213 0030 4368     		ldr	r3, [r0, #4]
 214              		.loc 1 208 6 view .LVU35
 215 0032 DB03     		lsls	r3, r3, #15
 216 0034 06D5     		bpl	.L14
 209:Drivers/STM32G0xx_HAL_Driver/Src/stm32g0xx_hal_pwr_ex.c ****   {
 210:Drivers/STM32G0xx_HAL_Driver/Src/stm32g0xx_hal_pwr_ex.c ****     __HAL_PWR_PVD_EXTI_ENABLE_IT();
 217              		.loc 1 210 5 is_stmt 1 view .LVU36
 218 0036 1349     		ldr	r1, .L22+4
 219 0038 8022     		movs	r2, #128
 220 003a 8C58     		ldr	r4, [r1, r2]
 221 003c 8023     		movs	r3, #128
 222 003e 5B02     		lsls	r3, r3, #9
 223 0040 2343     		orrs	r3, r4
 224 0042 8B50     		str	r3, [r1, r2]
 225              	.L14:
 211:Drivers/STM32G0xx_HAL_Driver/Src/stm32g0xx_hal_pwr_ex.c ****   }
 212:Drivers/STM32G0xx_HAL_Driver/Src/stm32g0xx_hal_pwr_ex.c **** 
 213:Drivers/STM32G0xx_HAL_Driver/Src/stm32g0xx_hal_pwr_ex.c ****   /* Configure event mode */
 214:Drivers/STM32G0xx_HAL_Driver/Src/stm32g0xx_hal_pwr_ex.c ****   if ((sConfigPVD->Mode & PVD_MODE_EVT) == PVD_MODE_EVT)
 226              		.loc 1 214 3 view .LVU37
 227              		.loc 1 214 18 is_stmt 0 view .LVU38
 228 0044 4368     		ldr	r3, [r0, #4]
 229              		.loc 1 214 6 view .LVU39
 230 0046 9B03     		lsls	r3, r3, #14
 231 0048 06D5     		bpl	.L15
 215:Drivers/STM32G0xx_HAL_Driver/Src/stm32g0xx_hal_pwr_ex.c ****   {
 216:Drivers/STM32G0xx_HAL_Driver/Src/stm32g0xx_hal_pwr_ex.c ****     __HAL_PWR_PVD_EXTI_ENABLE_EVENT();
 232              		.loc 1 216 5 is_stmt 1 view .LVU40
 233 004a 0E49     		ldr	r1, .L22+4
 234 004c 8422     		movs	r2, #132
 235 004e 8C58     		ldr	r4, [r1, r2]
 236 0050 8023     		movs	r3, #128
 237 0052 5B02     		lsls	r3, r3, #9
 238 0054 2343     		orrs	r3, r4
 239 0056 8B50     		str	r3, [r1, r2]
 240              	.L15:
 217:Drivers/STM32G0xx_HAL_Driver/Src/stm32g0xx_hal_pwr_ex.c ****   }
 218:Drivers/STM32G0xx_HAL_Driver/Src/stm32g0xx_hal_pwr_ex.c **** 
 219:Drivers/STM32G0xx_HAL_Driver/Src/stm32g0xx_hal_pwr_ex.c ****   /* Configure the edge */
 220:Drivers/STM32G0xx_HAL_Driver/Src/stm32g0xx_hal_pwr_ex.c ****   if ((sConfigPVD->Mode & PVD_RISING_EDGE) == PVD_RISING_EDGE)
 241              		.loc 1 220 3 view .LVU41
 242              		.loc 1 220 18 is_stmt 0 view .LVU42
 243 0058 4368     		ldr	r3, [r0, #4]
 244              		.loc 1 220 6 view .LVU43
 245 005a DB07     		lsls	r3, r3, #31
ARM GAS  /tmp/ccqDTMd2.s 			page 9


 246 005c 05D5     		bpl	.L16
 221:Drivers/STM32G0xx_HAL_Driver/Src/stm32g0xx_hal_pwr_ex.c ****   {
 222:Drivers/STM32G0xx_HAL_Driver/Src/stm32g0xx_hal_pwr_ex.c ****     __HAL_PWR_PVD_EXTI_ENABLE_RISING_EDGE();
 247              		.loc 1 222 5 is_stmt 1 view .LVU44
 248 005e 094A     		ldr	r2, .L22+4
 249 0060 1168     		ldr	r1, [r2]
 250 0062 8023     		movs	r3, #128
 251 0064 5B02     		lsls	r3, r3, #9
 252 0066 0B43     		orrs	r3, r1
 253 0068 1360     		str	r3, [r2]
 254              	.L16:
 223:Drivers/STM32G0xx_HAL_Driver/Src/stm32g0xx_hal_pwr_ex.c ****   }
 224:Drivers/STM32G0xx_HAL_Driver/Src/stm32g0xx_hal_pwr_ex.c **** 
 225:Drivers/STM32G0xx_HAL_Driver/Src/stm32g0xx_hal_pwr_ex.c ****   if ((sConfigPVD->Mode & PVD_FALLING_EDGE) == PVD_FALLING_EDGE)
 255              		.loc 1 225 3 view .LVU45
 256              		.loc 1 225 18 is_stmt 0 view .LVU46
 257 006a 4368     		ldr	r3, [r0, #4]
 258              		.loc 1 225 6 view .LVU47
 259 006c 9B07     		lsls	r3, r3, #30
 260 006e 05D5     		bpl	.L17
 226:Drivers/STM32G0xx_HAL_Driver/Src/stm32g0xx_hal_pwr_ex.c ****   {
 227:Drivers/STM32G0xx_HAL_Driver/Src/stm32g0xx_hal_pwr_ex.c ****     __HAL_PWR_PVD_EXTI_ENABLE_FALLING_EDGE();
 261              		.loc 1 227 5 is_stmt 1 view .LVU48
 262 0070 044A     		ldr	r2, .L22+4
 263 0072 5168     		ldr	r1, [r2, #4]
 264 0074 8023     		movs	r3, #128
 265 0076 5B02     		lsls	r3, r3, #9
 266 0078 0B43     		orrs	r3, r1
 267 007a 5360     		str	r3, [r2, #4]
 268              	.L17:
 228:Drivers/STM32G0xx_HAL_Driver/Src/stm32g0xx_hal_pwr_ex.c ****   }
 229:Drivers/STM32G0xx_HAL_Driver/Src/stm32g0xx_hal_pwr_ex.c **** 
 230:Drivers/STM32G0xx_HAL_Driver/Src/stm32g0xx_hal_pwr_ex.c ****   return HAL_OK;
 269              		.loc 1 230 3 view .LVU49
 231:Drivers/STM32G0xx_HAL_Driver/Src/stm32g0xx_hal_pwr_ex.c **** }
 270              		.loc 1 231 1 is_stmt 0 view .LVU50
 271 007c 0020     		movs	r0, #0
 272              	.LVL4:
 273              		.loc 1 231 1 view .LVU51
 274              		@ sp needed
 275 007e 10BD     		pop	{r4, pc}
 276              	.L23:
 277              		.align	2
 278              	.L22:
 279 0080 00700040 		.word	1073770496
 280 0084 00180240 		.word	1073879040
 281 0088 FFFFFEFF 		.word	-65537
 282              		.cfi_endproc
 283              	.LFE370:
 285              		.section	.text.HAL_PWREx_EnablePVD,"ax",%progbits
 286              		.align	1
 287              		.global	HAL_PWREx_EnablePVD
 288              		.syntax unified
 289              		.code	16
 290              		.thumb_func
 292              	HAL_PWREx_EnablePVD:
 293              	.LFB371:
ARM GAS  /tmp/ccqDTMd2.s 			page 10


 232:Drivers/STM32G0xx_HAL_Driver/Src/stm32g0xx_hal_pwr_ex.c **** 
 233:Drivers/STM32G0xx_HAL_Driver/Src/stm32g0xx_hal_pwr_ex.c **** 
 234:Drivers/STM32G0xx_HAL_Driver/Src/stm32g0xx_hal_pwr_ex.c **** /**
 235:Drivers/STM32G0xx_HAL_Driver/Src/stm32g0xx_hal_pwr_ex.c ****   * @brief  Enable the Power Voltage Detector (PVD).
 236:Drivers/STM32G0xx_HAL_Driver/Src/stm32g0xx_hal_pwr_ex.c ****   * @retval None
 237:Drivers/STM32G0xx_HAL_Driver/Src/stm32g0xx_hal_pwr_ex.c ****   */
 238:Drivers/STM32G0xx_HAL_Driver/Src/stm32g0xx_hal_pwr_ex.c **** void HAL_PWREx_EnablePVD(void)
 239:Drivers/STM32G0xx_HAL_Driver/Src/stm32g0xx_hal_pwr_ex.c **** {
 294              		.loc 1 239 1 is_stmt 1 view -0
 295              		.cfi_startproc
 296              		@ args = 0, pretend = 0, frame = 0
 297              		@ frame_needed = 0, uses_anonymous_args = 0
 298              		@ link register save eliminated.
 240:Drivers/STM32G0xx_HAL_Driver/Src/stm32g0xx_hal_pwr_ex.c ****   SET_BIT(PWR->CR2, PWR_CR2_PVDE);
 299              		.loc 1 240 3 view .LVU53
 300 0000 024A     		ldr	r2, .L25
 301 0002 5368     		ldr	r3, [r2, #4]
 302 0004 0121     		movs	r1, #1
 303 0006 0B43     		orrs	r3, r1
 304 0008 5360     		str	r3, [r2, #4]
 241:Drivers/STM32G0xx_HAL_Driver/Src/stm32g0xx_hal_pwr_ex.c **** }
 305              		.loc 1 241 1 is_stmt 0 view .LVU54
 306              		@ sp needed
 307 000a 7047     		bx	lr
 308              	.L26:
 309              		.align	2
 310              	.L25:
 311 000c 00700040 		.word	1073770496
 312              		.cfi_endproc
 313              	.LFE371:
 315              		.section	.text.HAL_PWREx_DisablePVD,"ax",%progbits
 316              		.align	1
 317              		.global	HAL_PWREx_DisablePVD
 318              		.syntax unified
 319              		.code	16
 320              		.thumb_func
 322              	HAL_PWREx_DisablePVD:
 323              	.LFB372:
 242:Drivers/STM32G0xx_HAL_Driver/Src/stm32g0xx_hal_pwr_ex.c **** 
 243:Drivers/STM32G0xx_HAL_Driver/Src/stm32g0xx_hal_pwr_ex.c **** 
 244:Drivers/STM32G0xx_HAL_Driver/Src/stm32g0xx_hal_pwr_ex.c **** /**
 245:Drivers/STM32G0xx_HAL_Driver/Src/stm32g0xx_hal_pwr_ex.c ****   * @brief  Disable the Power Voltage Detector (PVD).
 246:Drivers/STM32G0xx_HAL_Driver/Src/stm32g0xx_hal_pwr_ex.c ****   * @retval None
 247:Drivers/STM32G0xx_HAL_Driver/Src/stm32g0xx_hal_pwr_ex.c ****   */
 248:Drivers/STM32G0xx_HAL_Driver/Src/stm32g0xx_hal_pwr_ex.c **** void HAL_PWREx_DisablePVD(void)
 249:Drivers/STM32G0xx_HAL_Driver/Src/stm32g0xx_hal_pwr_ex.c **** {
 324              		.loc 1 249 1 is_stmt 1 view -0
 325              		.cfi_startproc
 326              		@ args = 0, pretend = 0, frame = 0
 327              		@ frame_needed = 0, uses_anonymous_args = 0
 328              		@ link register save eliminated.
 250:Drivers/STM32G0xx_HAL_Driver/Src/stm32g0xx_hal_pwr_ex.c ****   CLEAR_BIT(PWR->CR2, PWR_CR2_PVDE);
 329              		.loc 1 250 3 view .LVU56
 330 0000 024A     		ldr	r2, .L28
 331 0002 5368     		ldr	r3, [r2, #4]
 332 0004 0121     		movs	r1, #1
 333 0006 8B43     		bics	r3, r1
ARM GAS  /tmp/ccqDTMd2.s 			page 11


 334 0008 5360     		str	r3, [r2, #4]
 251:Drivers/STM32G0xx_HAL_Driver/Src/stm32g0xx_hal_pwr_ex.c **** }
 335              		.loc 1 251 1 is_stmt 0 view .LVU57
 336              		@ sp needed
 337 000a 7047     		bx	lr
 338              	.L29:
 339              		.align	2
 340              	.L28:
 341 000c 00700040 		.word	1073770496
 342              		.cfi_endproc
 343              	.LFE372:
 345              		.section	.text.HAL_PWREx_EnableVddUSB,"ax",%progbits
 346              		.align	1
 347              		.global	HAL_PWREx_EnableVddUSB
 348              		.syntax unified
 349              		.code	16
 350              		.thumb_func
 352              	HAL_PWREx_EnableVddUSB:
 353              	.LFB373:
 252:Drivers/STM32G0xx_HAL_Driver/Src/stm32g0xx_hal_pwr_ex.c **** #endif /* PWR_PVD_SUPPORT */
 253:Drivers/STM32G0xx_HAL_Driver/Src/stm32g0xx_hal_pwr_ex.c **** 
 254:Drivers/STM32G0xx_HAL_Driver/Src/stm32g0xx_hal_pwr_ex.c **** #if defined(PWR_CR2_USV)
 255:Drivers/STM32G0xx_HAL_Driver/Src/stm32g0xx_hal_pwr_ex.c **** /**
 256:Drivers/STM32G0xx_HAL_Driver/Src/stm32g0xx_hal_pwr_ex.c ****   * @brief Enable VDDUSB supply.
 257:Drivers/STM32G0xx_HAL_Driver/Src/stm32g0xx_hal_pwr_ex.c ****   * @note  Remove VDDUSB electrical and logical isolation, once VDDUSB supply is present.
 258:Drivers/STM32G0xx_HAL_Driver/Src/stm32g0xx_hal_pwr_ex.c ****   * @note  For STM32G0C1xx and STM32G0B1xx devices, this function is deprecated and retained only t
 259:Drivers/STM32G0xx_HAL_Driver/Src/stm32g0xx_hal_pwr_ex.c ****   *        Power Voltage Monitoring configuration is now handled by the HAL_PWREx_ConfigPVM() API.
 260:Drivers/STM32G0xx_HAL_Driver/Src/stm32g0xx_hal_pwr_ex.c ****   *        The USV, IOSV, and PVMENUSB bits have been merged into the PVM_VDDIO2 bitfield of the PW
 261:Drivers/STM32G0xx_HAL_Driver/Src/stm32g0xx_hal_pwr_ex.c ****   *        Please refer to RM0444 Rev6 or later, section "Power control register 2 (PWR_CR2)".
 262:Drivers/STM32G0xx_HAL_Driver/Src/stm32g0xx_hal_pwr_ex.c ****   * @retval None
 263:Drivers/STM32G0xx_HAL_Driver/Src/stm32g0xx_hal_pwr_ex.c ****   */
 264:Drivers/STM32G0xx_HAL_Driver/Src/stm32g0xx_hal_pwr_ex.c **** void HAL_PWREx_EnableVddUSB(void)
 265:Drivers/STM32G0xx_HAL_Driver/Src/stm32g0xx_hal_pwr_ex.c **** {
 354              		.loc 1 265 1 is_stmt 1 view -0
 355              		.cfi_startproc
 356              		@ args = 0, pretend = 0, frame = 0
 357              		@ frame_needed = 0, uses_anonymous_args = 0
 358              		@ link register save eliminated.
 266:Drivers/STM32G0xx_HAL_Driver/Src/stm32g0xx_hal_pwr_ex.c ****   SET_BIT(PWR->CR2, PWR_CR2_USV);
 359              		.loc 1 266 3 view .LVU59
 360 0000 034A     		ldr	r2, .L31
 361 0002 5168     		ldr	r1, [r2, #4]
 362 0004 8023     		movs	r3, #128
 363 0006 DB00     		lsls	r3, r3, #3
 364 0008 0B43     		orrs	r3, r1
 365 000a 5360     		str	r3, [r2, #4]
 267:Drivers/STM32G0xx_HAL_Driver/Src/stm32g0xx_hal_pwr_ex.c **** }
 366              		.loc 1 267 1 is_stmt 0 view .LVU60
 367              		@ sp needed
 368 000c 7047     		bx	lr
 369              	.L32:
 370 000e C046     		.align	2
 371              	.L31:
 372 0010 00700040 		.word	1073770496
 373              		.cfi_endproc
 374              	.LFE373:
 376              		.section	.text.HAL_PWREx_DisableVddUSB,"ax",%progbits
ARM GAS  /tmp/ccqDTMd2.s 			page 12


 377              		.align	1
 378              		.global	HAL_PWREx_DisableVddUSB
 379              		.syntax unified
 380              		.code	16
 381              		.thumb_func
 383              	HAL_PWREx_DisableVddUSB:
 384              	.LFB374:
 268:Drivers/STM32G0xx_HAL_Driver/Src/stm32g0xx_hal_pwr_ex.c **** 
 269:Drivers/STM32G0xx_HAL_Driver/Src/stm32g0xx_hal_pwr_ex.c **** /**
 270:Drivers/STM32G0xx_HAL_Driver/Src/stm32g0xx_hal_pwr_ex.c ****   * @brief Disable VDDUSB supply.
 271:Drivers/STM32G0xx_HAL_Driver/Src/stm32g0xx_hal_pwr_ex.c ****   * @note  For STM32G0C1xx and STM32G0B1xx devices, this function is deprecated and retained only t
 272:Drivers/STM32G0xx_HAL_Driver/Src/stm32g0xx_hal_pwr_ex.c ****   *        Power Voltage Monitoring configuration is now handled by the HAL_PWREx_ConfigPVM() API.
 273:Drivers/STM32G0xx_HAL_Driver/Src/stm32g0xx_hal_pwr_ex.c ****   *        The USV, IOSV, and PVMENUSB bits have been merged into the PVM_VDDIO2 bitfield of the PW
 274:Drivers/STM32G0xx_HAL_Driver/Src/stm32g0xx_hal_pwr_ex.c ****   *        Please refer to RM0444 Rev 6 or later, section "Power control register 2 (PWR_CR2)".
 275:Drivers/STM32G0xx_HAL_Driver/Src/stm32g0xx_hal_pwr_ex.c ****   * @retval None
 276:Drivers/STM32G0xx_HAL_Driver/Src/stm32g0xx_hal_pwr_ex.c ****   */
 277:Drivers/STM32G0xx_HAL_Driver/Src/stm32g0xx_hal_pwr_ex.c **** void HAL_PWREx_DisableVddUSB(void)
 278:Drivers/STM32G0xx_HAL_Driver/Src/stm32g0xx_hal_pwr_ex.c **** {
 385              		.loc 1 278 1 is_stmt 1 view -0
 386              		.cfi_startproc
 387              		@ args = 0, pretend = 0, frame = 0
 388              		@ frame_needed = 0, uses_anonymous_args = 0
 389              		@ link register save eliminated.
 279:Drivers/STM32G0xx_HAL_Driver/Src/stm32g0xx_hal_pwr_ex.c ****   CLEAR_BIT(PWR->CR2, PWR_CR2_USV);
 390              		.loc 1 279 3 view .LVU62
 391 0000 024A     		ldr	r2, .L34
 392 0002 5368     		ldr	r3, [r2, #4]
 393 0004 0249     		ldr	r1, .L34+4
 394 0006 0B40     		ands	r3, r1
 395 0008 5360     		str	r3, [r2, #4]
 280:Drivers/STM32G0xx_HAL_Driver/Src/stm32g0xx_hal_pwr_ex.c **** }
 396              		.loc 1 280 1 is_stmt 0 view .LVU63
 397              		@ sp needed
 398 000a 7047     		bx	lr
 399              	.L35:
 400              		.align	2
 401              	.L34:
 402 000c 00700040 		.word	1073770496
 403 0010 FFFBFFFF 		.word	-1025
 404              		.cfi_endproc
 405              	.LFE374:
 407              		.section	.text.HAL_PWREx_EnableVddIO2,"ax",%progbits
 408              		.align	1
 409              		.global	HAL_PWREx_EnableVddIO2
 410              		.syntax unified
 411              		.code	16
 412              		.thumb_func
 414              	HAL_PWREx_EnableVddIO2:
 415              	.LFB375:
 281:Drivers/STM32G0xx_HAL_Driver/Src/stm32g0xx_hal_pwr_ex.c **** #endif /* PWR_CR2_USV */
 282:Drivers/STM32G0xx_HAL_Driver/Src/stm32g0xx_hal_pwr_ex.c **** 
 283:Drivers/STM32G0xx_HAL_Driver/Src/stm32g0xx_hal_pwr_ex.c **** #if defined(PWR_CR2_IOSV)
 284:Drivers/STM32G0xx_HAL_Driver/Src/stm32g0xx_hal_pwr_ex.c **** /**
 285:Drivers/STM32G0xx_HAL_Driver/Src/stm32g0xx_hal_pwr_ex.c ****   * @brief Enable VDDIO2 supply.
 286:Drivers/STM32G0xx_HAL_Driver/Src/stm32g0xx_hal_pwr_ex.c ****   * @note  Remove VDDIO2 electrical and logical isolation, once VDDIO2 supply is present.
 287:Drivers/STM32G0xx_HAL_Driver/Src/stm32g0xx_hal_pwr_ex.c ****   * @note  For STM32G0C1xx and STM32G0B1xx devices, this function is deprecated and retained only t
 288:Drivers/STM32G0xx_HAL_Driver/Src/stm32g0xx_hal_pwr_ex.c ****   *        Power Voltage Monitoring configuration is now handled by the HAL_PWREx_ConfigPVM() API.
ARM GAS  /tmp/ccqDTMd2.s 			page 13


 289:Drivers/STM32G0xx_HAL_Driver/Src/stm32g0xx_hal_pwr_ex.c ****   *        The USV, IOSV, and PVMENUSB bits have been merged into the PVM_VDDIO2 bitfield of the PW
 290:Drivers/STM32G0xx_HAL_Driver/Src/stm32g0xx_hal_pwr_ex.c ****   *        Please refer to RM0444 Rev 6 or later, section "Power control register 2 (PWR_CR2)".
 291:Drivers/STM32G0xx_HAL_Driver/Src/stm32g0xx_hal_pwr_ex.c ****   * @retval None
 292:Drivers/STM32G0xx_HAL_Driver/Src/stm32g0xx_hal_pwr_ex.c ****   */
 293:Drivers/STM32G0xx_HAL_Driver/Src/stm32g0xx_hal_pwr_ex.c **** void HAL_PWREx_EnableVddIO2(void)
 294:Drivers/STM32G0xx_HAL_Driver/Src/stm32g0xx_hal_pwr_ex.c **** {
 416              		.loc 1 294 1 is_stmt 1 view -0
 417              		.cfi_startproc
 418              		@ args = 0, pretend = 0, frame = 0
 419              		@ frame_needed = 0, uses_anonymous_args = 0
 420              		@ link register save eliminated.
 295:Drivers/STM32G0xx_HAL_Driver/Src/stm32g0xx_hal_pwr_ex.c ****   SET_BIT(PWR->CR2, PWR_CR2_IOSV);
 421              		.loc 1 295 3 view .LVU65
 422 0000 034A     		ldr	r2, .L37
 423 0002 5168     		ldr	r1, [r2, #4]
 424 0004 8023     		movs	r3, #128
 425 0006 9B00     		lsls	r3, r3, #2
 426 0008 0B43     		orrs	r3, r1
 427 000a 5360     		str	r3, [r2, #4]
 296:Drivers/STM32G0xx_HAL_Driver/Src/stm32g0xx_hal_pwr_ex.c **** }
 428              		.loc 1 296 1 is_stmt 0 view .LVU66
 429              		@ sp needed
 430 000c 7047     		bx	lr
 431              	.L38:
 432 000e C046     		.align	2
 433              	.L37:
 434 0010 00700040 		.word	1073770496
 435              		.cfi_endproc
 436              	.LFE375:
 438              		.section	.text.HAL_PWREx_DisableVddIO2,"ax",%progbits
 439              		.align	1
 440              		.global	HAL_PWREx_DisableVddIO2
 441              		.syntax unified
 442              		.code	16
 443              		.thumb_func
 445              	HAL_PWREx_DisableVddIO2:
 446              	.LFB376:
 297:Drivers/STM32G0xx_HAL_Driver/Src/stm32g0xx_hal_pwr_ex.c **** 
 298:Drivers/STM32G0xx_HAL_Driver/Src/stm32g0xx_hal_pwr_ex.c **** 
 299:Drivers/STM32G0xx_HAL_Driver/Src/stm32g0xx_hal_pwr_ex.c **** /**
 300:Drivers/STM32G0xx_HAL_Driver/Src/stm32g0xx_hal_pwr_ex.c ****   * @brief Disable VDDIO2 supply.
 301:Drivers/STM32G0xx_HAL_Driver/Src/stm32g0xx_hal_pwr_ex.c ****   * @note  For STM32G0C1xx and STM32G0B1xx devices, this function is deprecated and retained only t
 302:Drivers/STM32G0xx_HAL_Driver/Src/stm32g0xx_hal_pwr_ex.c ****   *        Power Voltage Monitoring configuration is now handled by the HAL_PWREx_ConfigPVM() API.
 303:Drivers/STM32G0xx_HAL_Driver/Src/stm32g0xx_hal_pwr_ex.c ****   *        The USV, IOSV, and PVMENUSB bits have been merged into the PVM_VDDIO2 bitfield of the PW
 304:Drivers/STM32G0xx_HAL_Driver/Src/stm32g0xx_hal_pwr_ex.c ****   *        Please refer to RM0444 Rev 6 or later, section "Power control register 2 (PWR_CR2)".
 305:Drivers/STM32G0xx_HAL_Driver/Src/stm32g0xx_hal_pwr_ex.c ****   * @retval None
 306:Drivers/STM32G0xx_HAL_Driver/Src/stm32g0xx_hal_pwr_ex.c ****   */
 307:Drivers/STM32G0xx_HAL_Driver/Src/stm32g0xx_hal_pwr_ex.c **** void HAL_PWREx_DisableVddIO2(void)
 308:Drivers/STM32G0xx_HAL_Driver/Src/stm32g0xx_hal_pwr_ex.c **** {
 447              		.loc 1 308 1 is_stmt 1 view -0
 448              		.cfi_startproc
 449              		@ args = 0, pretend = 0, frame = 0
 450              		@ frame_needed = 0, uses_anonymous_args = 0
 451              		@ link register save eliminated.
 309:Drivers/STM32G0xx_HAL_Driver/Src/stm32g0xx_hal_pwr_ex.c ****   CLEAR_BIT(PWR->CR2, PWR_CR2_IOSV);
 452              		.loc 1 309 3 view .LVU68
 453 0000 024A     		ldr	r2, .L40
ARM GAS  /tmp/ccqDTMd2.s 			page 14


 454 0002 5368     		ldr	r3, [r2, #4]
 455 0004 0249     		ldr	r1, .L40+4
 456 0006 0B40     		ands	r3, r1
 457 0008 5360     		str	r3, [r2, #4]
 310:Drivers/STM32G0xx_HAL_Driver/Src/stm32g0xx_hal_pwr_ex.c **** }
 458              		.loc 1 310 1 is_stmt 0 view .LVU69
 459              		@ sp needed
 460 000a 7047     		bx	lr
 461              	.L41:
 462              		.align	2
 463              	.L40:
 464 000c 00700040 		.word	1073770496
 465 0010 FFFDFFFF 		.word	-513
 466              		.cfi_endproc
 467              	.LFE376:
 469              		.section	.text.HAL_PWREx_EnablePVMUSB,"ax",%progbits
 470              		.align	1
 471              		.global	HAL_PWREx_EnablePVMUSB
 472              		.syntax unified
 473              		.code	16
 474              		.thumb_func
 476              	HAL_PWREx_EnablePVMUSB:
 477              	.LFB377:
 311:Drivers/STM32G0xx_HAL_Driver/Src/stm32g0xx_hal_pwr_ex.c **** #endif /* PWR_CR2_IOSV */
 312:Drivers/STM32G0xx_HAL_Driver/Src/stm32g0xx_hal_pwr_ex.c **** 
 313:Drivers/STM32G0xx_HAL_Driver/Src/stm32g0xx_hal_pwr_ex.c **** #if defined (PWR_PVM_SUPPORT)
 314:Drivers/STM32G0xx_HAL_Driver/Src/stm32g0xx_hal_pwr_ex.c **** /**
 315:Drivers/STM32G0xx_HAL_Driver/Src/stm32g0xx_hal_pwr_ex.c ****   * @brief Enable the Power Voltage Monitoring for USB peripheral (power domain Vddio2)
 316:Drivers/STM32G0xx_HAL_Driver/Src/stm32g0xx_hal_pwr_ex.c ****   * @note  For STM32G0C1xx and STM32G0B1xx devices, this function is deprecated and retained only t
 317:Drivers/STM32G0xx_HAL_Driver/Src/stm32g0xx_hal_pwr_ex.c ****   *        Power Voltage Monitoring configuration is now handled by the HAL_PWREx_ConfigPVM() API.
 318:Drivers/STM32G0xx_HAL_Driver/Src/stm32g0xx_hal_pwr_ex.c ****   *        The USV, IOSV, and PVMENUSB bits have been merged into the PVM_VDDIO2 bitfield of the PW
 319:Drivers/STM32G0xx_HAL_Driver/Src/stm32g0xx_hal_pwr_ex.c ****   *        Please refer to RM0444 Rev 6 or later, section "Power control register 2 (PWR_CR2)".
 320:Drivers/STM32G0xx_HAL_Driver/Src/stm32g0xx_hal_pwr_ex.c ****   * @retval None
 321:Drivers/STM32G0xx_HAL_Driver/Src/stm32g0xx_hal_pwr_ex.c ****   */
 322:Drivers/STM32G0xx_HAL_Driver/Src/stm32g0xx_hal_pwr_ex.c **** void HAL_PWREx_EnablePVMUSB(void)
 323:Drivers/STM32G0xx_HAL_Driver/Src/stm32g0xx_hal_pwr_ex.c **** {
 478              		.loc 1 323 1 is_stmt 1 view -0
 479              		.cfi_startproc
 480              		@ args = 0, pretend = 0, frame = 0
 481              		@ frame_needed = 0, uses_anonymous_args = 0
 482              		@ link register save eliminated.
 324:Drivers/STM32G0xx_HAL_Driver/Src/stm32g0xx_hal_pwr_ex.c ****   SET_BIT(PWR->CR2, PWR_PVM_USB);
 483              		.loc 1 324 3 view .LVU71
 484 0000 034A     		ldr	r2, .L43
 485 0002 5168     		ldr	r1, [r2, #4]
 486 0004 8023     		movs	r3, #128
 487 0006 5B00     		lsls	r3, r3, #1
 488 0008 0B43     		orrs	r3, r1
 489 000a 5360     		str	r3, [r2, #4]
 325:Drivers/STM32G0xx_HAL_Driver/Src/stm32g0xx_hal_pwr_ex.c **** }
 490              		.loc 1 325 1 is_stmt 0 view .LVU72
 491              		@ sp needed
 492 000c 7047     		bx	lr
 493              	.L44:
 494 000e C046     		.align	2
 495              	.L43:
 496 0010 00700040 		.word	1073770496
ARM GAS  /tmp/ccqDTMd2.s 			page 15


 497              		.cfi_endproc
 498              	.LFE377:
 500              		.section	.text.HAL_PWREx_DisablePVMUSB,"ax",%progbits
 501              		.align	1
 502              		.global	HAL_PWREx_DisablePVMUSB
 503              		.syntax unified
 504              		.code	16
 505              		.thumb_func
 507              	HAL_PWREx_DisablePVMUSB:
 508              	.LFB378:
 326:Drivers/STM32G0xx_HAL_Driver/Src/stm32g0xx_hal_pwr_ex.c **** 
 327:Drivers/STM32G0xx_HAL_Driver/Src/stm32g0xx_hal_pwr_ex.c **** /**
 328:Drivers/STM32G0xx_HAL_Driver/Src/stm32g0xx_hal_pwr_ex.c ****   * @brief Disable the Power Voltage Monitoring for USB peripheral (power domain Vddio2)
 329:Drivers/STM32G0xx_HAL_Driver/Src/stm32g0xx_hal_pwr_ex.c ****   * @note  For STM32G0C1xx and STM32G0B1xx devices, this function is deprecated and retained only t
 330:Drivers/STM32G0xx_HAL_Driver/Src/stm32g0xx_hal_pwr_ex.c ****   *        Power Voltage Monitoring configuration is now handled by the HAL_PWREx_ConfigPVM() API.
 331:Drivers/STM32G0xx_HAL_Driver/Src/stm32g0xx_hal_pwr_ex.c ****   *        The USV, IOSV, and PVMENUSB bits have been merged into the PVM_VDDIO2 bitfield of the PW
 332:Drivers/STM32G0xx_HAL_Driver/Src/stm32g0xx_hal_pwr_ex.c ****   *        Please refer to RM0444 Rev 6 or later, section "Power control register 2 (PWR_CR2)".
 333:Drivers/STM32G0xx_HAL_Driver/Src/stm32g0xx_hal_pwr_ex.c ****   * @retval None
 334:Drivers/STM32G0xx_HAL_Driver/Src/stm32g0xx_hal_pwr_ex.c ****   */
 335:Drivers/STM32G0xx_HAL_Driver/Src/stm32g0xx_hal_pwr_ex.c **** void HAL_PWREx_DisablePVMUSB(void)
 336:Drivers/STM32G0xx_HAL_Driver/Src/stm32g0xx_hal_pwr_ex.c **** {
 509              		.loc 1 336 1 is_stmt 1 view -0
 510              		.cfi_startproc
 511              		@ args = 0, pretend = 0, frame = 0
 512              		@ frame_needed = 0, uses_anonymous_args = 0
 513              		@ link register save eliminated.
 337:Drivers/STM32G0xx_HAL_Driver/Src/stm32g0xx_hal_pwr_ex.c ****   CLEAR_BIT(PWR->CR2, PWR_PVM_USB);
 514              		.loc 1 337 3 view .LVU74
 515 0000 024A     		ldr	r2, .L46
 516 0002 5368     		ldr	r3, [r2, #4]
 517 0004 0249     		ldr	r1, .L46+4
 518 0006 0B40     		ands	r3, r1
 519 0008 5360     		str	r3, [r2, #4]
 338:Drivers/STM32G0xx_HAL_Driver/Src/stm32g0xx_hal_pwr_ex.c **** }
 520              		.loc 1 338 1 is_stmt 0 view .LVU75
 521              		@ sp needed
 522 000a 7047     		bx	lr
 523              	.L47:
 524              		.align	2
 525              	.L46:
 526 000c 00700040 		.word	1073770496
 527 0010 FFFEFFFF 		.word	-257
 528              		.cfi_endproc
 529              	.LFE378:
 531              		.section	.text.HAL_PWREx_ConfigPVM,"ax",%progbits
 532              		.align	1
 533              		.global	HAL_PWREx_ConfigPVM
 534              		.syntax unified
 535              		.code	16
 536              		.thumb_func
 538              	HAL_PWREx_ConfigPVM:
 539              	.LVL5:
 540              	.LFB379:
 339:Drivers/STM32G0xx_HAL_Driver/Src/stm32g0xx_hal_pwr_ex.c **** #endif /* PWR_PVM_SUPPORT */
 340:Drivers/STM32G0xx_HAL_Driver/Src/stm32g0xx_hal_pwr_ex.c **** 
 341:Drivers/STM32G0xx_HAL_Driver/Src/stm32g0xx_hal_pwr_ex.c **** #if defined(PWR_PVM_SUPPORT)
 342:Drivers/STM32G0xx_HAL_Driver/Src/stm32g0xx_hal_pwr_ex.c **** /**
ARM GAS  /tmp/ccqDTMd2.s 			page 16


 343:Drivers/STM32G0xx_HAL_Driver/Src/stm32g0xx_hal_pwr_ex.c ****   * @brief Configure the Power Voltage Monitoring (PVM).
 344:Drivers/STM32G0xx_HAL_Driver/Src/stm32g0xx_hal_pwr_ex.c ****   * @param sConfigPVM: pointer to a PWR_PVMTypeDef structure that contains the
 345:Drivers/STM32G0xx_HAL_Driver/Src/stm32g0xx_hal_pwr_ex.c ****   *        PVM configuration information.
 346:Drivers/STM32G0xx_HAL_Driver/Src/stm32g0xx_hal_pwr_ex.c ****   * @note The API configures a single PVM according to the information contained
 347:Drivers/STM32G0xx_HAL_Driver/Src/stm32g0xx_hal_pwr_ex.c ****   *       in the input structure. To configure several PVMs, the API must be singly
 348:Drivers/STM32G0xx_HAL_Driver/Src/stm32g0xx_hal_pwr_ex.c ****   *       called for each PVM used.
 349:Drivers/STM32G0xx_HAL_Driver/Src/stm32g0xx_hal_pwr_ex.c ****   * @note The API configures the voltage monitoring for the USB peripheral, 
 350:Drivers/STM32G0xx_HAL_Driver/Src/stm32g0xx_hal_pwr_ex.c ****   *       which is on the VDDIO2 domain(refer to the device's datasheet).
 351:Drivers/STM32G0xx_HAL_Driver/Src/stm32g0xx_hal_pwr_ex.c ****   * @note Refer to the electrical characteristics of your device datasheet for
 352:Drivers/STM32G0xx_HAL_Driver/Src/stm32g0xx_hal_pwr_ex.c ****   *         more details about the voltage thresholds corresponding to each
 353:Drivers/STM32G0xx_HAL_Driver/Src/stm32g0xx_hal_pwr_ex.c ****   *         detection level and to each monitored supply.
 354:Drivers/STM32G0xx_HAL_Driver/Src/stm32g0xx_hal_pwr_ex.c ****   * @retval HAL status
 355:Drivers/STM32G0xx_HAL_Driver/Src/stm32g0xx_hal_pwr_ex.c ****   */
 356:Drivers/STM32G0xx_HAL_Driver/Src/stm32g0xx_hal_pwr_ex.c **** HAL_StatusTypeDef HAL_PWREx_ConfigPVM(PWR_PVMTypeDef const *sConfigPVM)
 357:Drivers/STM32G0xx_HAL_Driver/Src/stm32g0xx_hal_pwr_ex.c **** {
 541              		.loc 1 357 1 is_stmt 1 view -0
 542              		.cfi_startproc
 543              		@ args = 0, pretend = 0, frame = 0
 544              		@ frame_needed = 0, uses_anonymous_args = 0
 545              		.loc 1 357 1 is_stmt 0 view .LVU77
 546 0000 10B5     		push	{r4, lr}
 547              	.LCFI1:
 548              		.cfi_def_cfa_offset 8
 549              		.cfi_offset 4, -8
 550              		.cfi_offset 14, -4
 358:Drivers/STM32G0xx_HAL_Driver/Src/stm32g0xx_hal_pwr_ex.c ****   HAL_StatusTypeDef status = HAL_OK;
 551              		.loc 1 358 3 is_stmt 1 view .LVU78
 552              	.LVL6:
 359:Drivers/STM32G0xx_HAL_Driver/Src/stm32g0xx_hal_pwr_ex.c **** 
 360:Drivers/STM32G0xx_HAL_Driver/Src/stm32g0xx_hal_pwr_ex.c ****   /* Check the parameters */
 361:Drivers/STM32G0xx_HAL_Driver/Src/stm32g0xx_hal_pwr_ex.c ****   assert_param(IS_PWR_PVM_TYPE(sConfigPVM->PVMType));
 553              		.loc 1 361 3 view .LVU79
 362:Drivers/STM32G0xx_HAL_Driver/Src/stm32g0xx_hal_pwr_ex.c **** 
 363:Drivers/STM32G0xx_HAL_Driver/Src/stm32g0xx_hal_pwr_ex.c ****   /* Configure EXTI 34 interrupts if so required:
 364:Drivers/STM32G0xx_HAL_Driver/Src/stm32g0xx_hal_pwr_ex.c ****      scan through PVMType to detect which PVMx is set and
 365:Drivers/STM32G0xx_HAL_Driver/Src/stm32g0xx_hal_pwr_ex.c ****      configure the corresponding EXTI line accordingly. */
 366:Drivers/STM32G0xx_HAL_Driver/Src/stm32g0xx_hal_pwr_ex.c ****   switch (sConfigPVM->PVMType)
 554              		.loc 1 366 3 view .LVU80
 555              		.loc 1 366 21 is_stmt 0 view .LVU81
 556 0002 0368     		ldr	r3, [r0]
 557              		.loc 1 366 3 view .LVU82
 558 0004 8022     		movs	r2, #128
 559 0006 5200     		lsls	r2, r2, #1
 560 0008 9342     		cmp	r3, r2
 561 000a 07D0     		beq	.L49
 562 000c C022     		movs	r2, #192
 563 000e D200     		lsls	r2, r2, #3
 564 0010 9342     		cmp	r3, r2
 565 0012 3FD0     		beq	.L50
 566 0014 002B     		cmp	r3, #0
 567 0016 47D0     		beq	.L51
 568 0018 0120     		movs	r0, #1
 569              	.LVL7:
 570              		.loc 1 366 3 view .LVU83
 571 001a 44E0     		b	.L52
 572              	.LVL8:
 573              	.L49:
ARM GAS  /tmp/ccqDTMd2.s 			page 17


 367:Drivers/STM32G0xx_HAL_Driver/Src/stm32g0xx_hal_pwr_ex.c ****   {
 368:Drivers/STM32G0xx_HAL_Driver/Src/stm32g0xx_hal_pwr_ex.c ****     case PWR_PVM_ENABLE:
 369:Drivers/STM32G0xx_HAL_Driver/Src/stm32g0xx_hal_pwr_ex.c ****       assert_param(IS_PWR_PVM_MODE(sConfigPVM->Mode));
 574              		.loc 1 369 7 is_stmt 1 view .LVU84
 370:Drivers/STM32G0xx_HAL_Driver/Src/stm32g0xx_hal_pwr_ex.c ****       /* Enable the Power Voltage Monitoring */
 371:Drivers/STM32G0xx_HAL_Driver/Src/stm32g0xx_hal_pwr_ex.c ****       MODIFY_REG(PWR->CR2, PWR_CR2_PVM_VDDIO2, PWR_PVM_ENABLE);
 575              		.loc 1 371 7 view .LVU85
 576 001c 2749     		ldr	r1, .L60
 577 001e 4A68     		ldr	r2, [r1, #4]
 578 0020 274B     		ldr	r3, .L60+4
 579 0022 1A40     		ands	r2, r3
 580 0024 8023     		movs	r3, #128
 581 0026 5B00     		lsls	r3, r3, #1
 582 0028 1343     		orrs	r3, r2
 583 002a 4B60     		str	r3, [r1, #4]
 372:Drivers/STM32G0xx_HAL_Driver/Src/stm32g0xx_hal_pwr_ex.c **** 
 373:Drivers/STM32G0xx_HAL_Driver/Src/stm32g0xx_hal_pwr_ex.c ****       /* Clear any previous config. Keep it clear if no event or IT mode is selected */
 374:Drivers/STM32G0xx_HAL_Driver/Src/stm32g0xx_hal_pwr_ex.c ****       __HAL_PWR_PVM_EXTI_DISABLE_EVENT();
 584              		.loc 1 374 7 view .LVU86
 585 002c 254B     		ldr	r3, .L60+8
 586 002e 9424     		movs	r4, #148
 587 0030 1959     		ldr	r1, [r3, r4]
 588 0032 0422     		movs	r2, #4
 589 0034 9143     		bics	r1, r2
 590 0036 1951     		str	r1, [r3, r4]
 375:Drivers/STM32G0xx_HAL_Driver/Src/stm32g0xx_hal_pwr_ex.c ****       __HAL_PWR_PVM_EXTI_DISABLE_IT();
 591              		.loc 1 375 7 view .LVU87
 592 0038 043C     		subs	r4, r4, #4
 593 003a 1959     		ldr	r1, [r3, r4]
 594 003c 9143     		bics	r1, r2
 595 003e 1951     		str	r1, [r3, r4]
 376:Drivers/STM32G0xx_HAL_Driver/Src/stm32g0xx_hal_pwr_ex.c ****       __HAL_PWR_PVM_EXTI_DISABLE_FALLING_EDGE();
 596              		.loc 1 376 7 view .LVU88
 597 0040 596A     		ldr	r1, [r3, #36]
 598 0042 9143     		bics	r1, r2
 599 0044 5962     		str	r1, [r3, #36]
 377:Drivers/STM32G0xx_HAL_Driver/Src/stm32g0xx_hal_pwr_ex.c ****       __HAL_PWR_PVM_EXTI_DISABLE_RISING_EDGE();
 600              		.loc 1 377 7 view .LVU89
 601 0046 196A     		ldr	r1, [r3, #32]
 602 0048 9143     		bics	r1, r2
 603 004a 1962     		str	r1, [r3, #32]
 378:Drivers/STM32G0xx_HAL_Driver/Src/stm32g0xx_hal_pwr_ex.c **** 
 379:Drivers/STM32G0xx_HAL_Driver/Src/stm32g0xx_hal_pwr_ex.c ****       /* Configure interrupt mode */
 380:Drivers/STM32G0xx_HAL_Driver/Src/stm32g0xx_hal_pwr_ex.c ****       if ((sConfigPVM->Mode & PVM_MODE_IT) == PVM_MODE_IT)
 604              		.loc 1 380 7 view .LVU90
 605              		.loc 1 380 22 is_stmt 0 view .LVU91
 606 004c 4368     		ldr	r3, [r0, #4]
 607              		.loc 1 380 10 view .LVU92
 608 004e DB03     		lsls	r3, r3, #15
 609 0050 05D5     		bpl	.L53
 381:Drivers/STM32G0xx_HAL_Driver/Src/stm32g0xx_hal_pwr_ex.c ****       {
 382:Drivers/STM32G0xx_HAL_Driver/Src/stm32g0xx_hal_pwr_ex.c ****         __HAL_PWR_PVM_EXTI_ENABLE_IT();
 610              		.loc 1 382 9 is_stmt 1 view .LVU93
 611 0052 1C49     		ldr	r1, .L60+8
 612 0054 8C32     		adds	r2, r2, #140
 613 0056 8B58     		ldr	r3, [r1, r2]
 614 0058 8C3C     		subs	r4, r4, #140
ARM GAS  /tmp/ccqDTMd2.s 			page 18


 615 005a 2343     		orrs	r3, r4
 616 005c 8B50     		str	r3, [r1, r2]
 617              	.L53:
 383:Drivers/STM32G0xx_HAL_Driver/Src/stm32g0xx_hal_pwr_ex.c ****       }
 384:Drivers/STM32G0xx_HAL_Driver/Src/stm32g0xx_hal_pwr_ex.c **** 
 385:Drivers/STM32G0xx_HAL_Driver/Src/stm32g0xx_hal_pwr_ex.c ****       /* Configure event mode */
 386:Drivers/STM32G0xx_HAL_Driver/Src/stm32g0xx_hal_pwr_ex.c ****       if ((sConfigPVM->Mode & PVM_MODE_EVT) == PVM_MODE_EVT)
 618              		.loc 1 386 7 view .LVU94
 619              		.loc 1 386 22 is_stmt 0 view .LVU95
 620 005e 4368     		ldr	r3, [r0, #4]
 621              		.loc 1 386 10 view .LVU96
 622 0060 9B03     		lsls	r3, r3, #14
 623 0062 05D5     		bpl	.L54
 387:Drivers/STM32G0xx_HAL_Driver/Src/stm32g0xx_hal_pwr_ex.c ****       {
 388:Drivers/STM32G0xx_HAL_Driver/Src/stm32g0xx_hal_pwr_ex.c ****         __HAL_PWR_PVM_EXTI_ENABLE_EVENT();
 624              		.loc 1 388 9 is_stmt 1 view .LVU97
 625 0064 1749     		ldr	r1, .L60+8
 626 0066 9422     		movs	r2, #148
 627 0068 8B58     		ldr	r3, [r1, r2]
 628 006a 0424     		movs	r4, #4
 629 006c 2343     		orrs	r3, r4
 630 006e 8B50     		str	r3, [r1, r2]
 631              	.L54:
 389:Drivers/STM32G0xx_HAL_Driver/Src/stm32g0xx_hal_pwr_ex.c ****       }
 390:Drivers/STM32G0xx_HAL_Driver/Src/stm32g0xx_hal_pwr_ex.c **** 
 391:Drivers/STM32G0xx_HAL_Driver/Src/stm32g0xx_hal_pwr_ex.c ****       /* Configure the edge */
 392:Drivers/STM32G0xx_HAL_Driver/Src/stm32g0xx_hal_pwr_ex.c ****       if ((sConfigPVM->Mode & PVM_RISING_EDGE) == PVM_RISING_EDGE)
 632              		.loc 1 392 7 view .LVU98
 633              		.loc 1 392 22 is_stmt 0 view .LVU99
 634 0070 4368     		ldr	r3, [r0, #4]
 635              		.loc 1 392 10 view .LVU100
 636 0072 DB07     		lsls	r3, r3, #31
 637 0074 04D5     		bpl	.L55
 393:Drivers/STM32G0xx_HAL_Driver/Src/stm32g0xx_hal_pwr_ex.c ****       {
 394:Drivers/STM32G0xx_HAL_Driver/Src/stm32g0xx_hal_pwr_ex.c ****         __HAL_PWR_PVM_EXTI_ENABLE_RISING_EDGE();
 638              		.loc 1 394 9 is_stmt 1 view .LVU101
 639 0076 134A     		ldr	r2, .L60+8
 640 0078 136A     		ldr	r3, [r2, #32]
 641 007a 0421     		movs	r1, #4
 642 007c 0B43     		orrs	r3, r1
 643 007e 1362     		str	r3, [r2, #32]
 644              	.L55:
 395:Drivers/STM32G0xx_HAL_Driver/Src/stm32g0xx_hal_pwr_ex.c ****       }
 396:Drivers/STM32G0xx_HAL_Driver/Src/stm32g0xx_hal_pwr_ex.c **** 
 397:Drivers/STM32G0xx_HAL_Driver/Src/stm32g0xx_hal_pwr_ex.c ****       if ((sConfigPVM->Mode & PVM_FALLING_EDGE) == PVM_FALLING_EDGE)
 645              		.loc 1 397 7 view .LVU102
 646              		.loc 1 397 22 is_stmt 0 view .LVU103
 647 0080 4368     		ldr	r3, [r0, #4]
 648              		.loc 1 397 10 view .LVU104
 649 0082 9B07     		lsls	r3, r3, #30
 650 0084 17D5     		bpl	.L56
 398:Drivers/STM32G0xx_HAL_Driver/Src/stm32g0xx_hal_pwr_ex.c ****       {
 399:Drivers/STM32G0xx_HAL_Driver/Src/stm32g0xx_hal_pwr_ex.c ****         __HAL_PWR_PVM_EXTI_ENABLE_FALLING_EDGE();
 651              		.loc 1 399 9 is_stmt 1 view .LVU105
 652 0086 0F4A     		ldr	r2, .L60+8
 653 0088 536A     		ldr	r3, [r2, #36]
 654 008a 0421     		movs	r1, #4
ARM GAS  /tmp/ccqDTMd2.s 			page 19


 655 008c 0B43     		orrs	r3, r1
 656 008e 5362     		str	r3, [r2, #36]
 358:Drivers/STM32G0xx_HAL_Driver/Src/stm32g0xx_hal_pwr_ex.c **** 
 657              		.loc 1 358 21 is_stmt 0 view .LVU106
 658 0090 0020     		movs	r0, #0
 659              	.LVL9:
 358:Drivers/STM32G0xx_HAL_Driver/Src/stm32g0xx_hal_pwr_ex.c **** 
 660              		.loc 1 358 21 view .LVU107
 661 0092 08E0     		b	.L52
 662              	.LVL10:
 663              	.L50:
 400:Drivers/STM32G0xx_HAL_Driver/Src/stm32g0xx_hal_pwr_ex.c ****       }
 401:Drivers/STM32G0xx_HAL_Driver/Src/stm32g0xx_hal_pwr_ex.c ****       break;
 402:Drivers/STM32G0xx_HAL_Driver/Src/stm32g0xx_hal_pwr_ex.c **** 
 403:Drivers/STM32G0xx_HAL_Driver/Src/stm32g0xx_hal_pwr_ex.c ****     case PWR_PVM_BYPASS:
 404:Drivers/STM32G0xx_HAL_Driver/Src/stm32g0xx_hal_pwr_ex.c ****       /* Bypass the Power Voltage Monitoring */
 405:Drivers/STM32G0xx_HAL_Driver/Src/stm32g0xx_hal_pwr_ex.c ****       MODIFY_REG(PWR->CR2, PWR_CR2_PVM_VDDIO2, PWR_PVM_BYPASS);
 664              		.loc 1 405 7 is_stmt 1 view .LVU108
 665 0094 0949     		ldr	r1, .L60
 666 0096 4A68     		ldr	r2, [r1, #4]
 667 0098 094B     		ldr	r3, .L60+4
 668 009a 1A40     		ands	r2, r3
 669 009c C023     		movs	r3, #192
 670 009e DB00     		lsls	r3, r3, #3
 671 00a0 1343     		orrs	r3, r2
 672 00a2 4B60     		str	r3, [r1, #4]
 406:Drivers/STM32G0xx_HAL_Driver/Src/stm32g0xx_hal_pwr_ex.c ****       break;
 673              		.loc 1 406 7 view .LVU109
 358:Drivers/STM32G0xx_HAL_Driver/Src/stm32g0xx_hal_pwr_ex.c **** 
 674              		.loc 1 358 21 is_stmt 0 view .LVU110
 675 00a4 0020     		movs	r0, #0
 676              	.LVL11:
 677              	.L52:
 407:Drivers/STM32G0xx_HAL_Driver/Src/stm32g0xx_hal_pwr_ex.c **** 
 408:Drivers/STM32G0xx_HAL_Driver/Src/stm32g0xx_hal_pwr_ex.c ****     case PWR_PVM_DISABLE:
 409:Drivers/STM32G0xx_HAL_Driver/Src/stm32g0xx_hal_pwr_ex.c ****       /* Disable the Power Voltage Monitoring */
 410:Drivers/STM32G0xx_HAL_Driver/Src/stm32g0xx_hal_pwr_ex.c ****       CLEAR_BIT(PWR->CR2, PWR_CR2_PVM_VDDIO2);
 411:Drivers/STM32G0xx_HAL_Driver/Src/stm32g0xx_hal_pwr_ex.c ****       break;
 412:Drivers/STM32G0xx_HAL_Driver/Src/stm32g0xx_hal_pwr_ex.c **** 
 413:Drivers/STM32G0xx_HAL_Driver/Src/stm32g0xx_hal_pwr_ex.c ****     default:
 414:Drivers/STM32G0xx_HAL_Driver/Src/stm32g0xx_hal_pwr_ex.c ****       status = HAL_ERROR;
 415:Drivers/STM32G0xx_HAL_Driver/Src/stm32g0xx_hal_pwr_ex.c ****       break;
 416:Drivers/STM32G0xx_HAL_Driver/Src/stm32g0xx_hal_pwr_ex.c ****   }
 417:Drivers/STM32G0xx_HAL_Driver/Src/stm32g0xx_hal_pwr_ex.c **** 
 418:Drivers/STM32G0xx_HAL_Driver/Src/stm32g0xx_hal_pwr_ex.c ****   return status;
 678              		.loc 1 418 3 is_stmt 1 view .LVU111
 419:Drivers/STM32G0xx_HAL_Driver/Src/stm32g0xx_hal_pwr_ex.c **** }
 679              		.loc 1 419 1 is_stmt 0 view .LVU112
 680              		@ sp needed
 681 00a6 10BD     		pop	{r4, pc}
 682              	.LVL12:
 683              	.L51:
 410:Drivers/STM32G0xx_HAL_Driver/Src/stm32g0xx_hal_pwr_ex.c ****       break;
 684              		.loc 1 410 7 is_stmt 1 view .LVU113
 685 00a8 044A     		ldr	r2, .L60
 686 00aa 5368     		ldr	r3, [r2, #4]
 687 00ac 0449     		ldr	r1, .L60+4
ARM GAS  /tmp/ccqDTMd2.s 			page 20


 688 00ae 0B40     		ands	r3, r1
 689 00b0 5360     		str	r3, [r2, #4]
 411:Drivers/STM32G0xx_HAL_Driver/Src/stm32g0xx_hal_pwr_ex.c **** 
 690              		.loc 1 411 7 view .LVU114
 358:Drivers/STM32G0xx_HAL_Driver/Src/stm32g0xx_hal_pwr_ex.c **** 
 691              		.loc 1 358 21 is_stmt 0 view .LVU115
 692 00b2 0020     		movs	r0, #0
 693              	.LVL13:
 411:Drivers/STM32G0xx_HAL_Driver/Src/stm32g0xx_hal_pwr_ex.c **** 
 694              		.loc 1 411 7 view .LVU116
 695 00b4 F7E7     		b	.L52
 696              	.LVL14:
 697              	.L56:
 358:Drivers/STM32G0xx_HAL_Driver/Src/stm32g0xx_hal_pwr_ex.c **** 
 698              		.loc 1 358 21 view .LVU117
 699 00b6 0020     		movs	r0, #0
 700              	.LVL15:
 358:Drivers/STM32G0xx_HAL_Driver/Src/stm32g0xx_hal_pwr_ex.c **** 
 701              		.loc 1 358 21 view .LVU118
 702 00b8 F5E7     		b	.L52
 703              	.L61:
 704 00ba C046     		.align	2
 705              	.L60:
 706 00bc 00700040 		.word	1073770496
 707 00c0 FFF8FFFF 		.word	-1793
 708 00c4 00180240 		.word	1073879040
 709              		.cfi_endproc
 710              	.LFE379:
 712              		.section	.text.HAL_PWREx_EnableInternalWakeUpLine,"ax",%progbits
 713              		.align	1
 714              		.global	HAL_PWREx_EnableInternalWakeUpLine
 715              		.syntax unified
 716              		.code	16
 717              		.thumb_func
 719              	HAL_PWREx_EnableInternalWakeUpLine:
 720              	.LFB380:
 420:Drivers/STM32G0xx_HAL_Driver/Src/stm32g0xx_hal_pwr_ex.c **** #endif /* PWR_PVM_SUPPORT */
 421:Drivers/STM32G0xx_HAL_Driver/Src/stm32g0xx_hal_pwr_ex.c **** /**
 422:Drivers/STM32G0xx_HAL_Driver/Src/stm32g0xx_hal_pwr_ex.c ****   * @brief  Enable Internal Wake-up Line.
 423:Drivers/STM32G0xx_HAL_Driver/Src/stm32g0xx_hal_pwr_ex.c ****   * @retval None
 424:Drivers/STM32G0xx_HAL_Driver/Src/stm32g0xx_hal_pwr_ex.c ****   */
 425:Drivers/STM32G0xx_HAL_Driver/Src/stm32g0xx_hal_pwr_ex.c **** void HAL_PWREx_EnableInternalWakeUpLine(void)
 426:Drivers/STM32G0xx_HAL_Driver/Src/stm32g0xx_hal_pwr_ex.c **** {
 721              		.loc 1 426 1 is_stmt 1 view -0
 722              		.cfi_startproc
 723              		@ args = 0, pretend = 0, frame = 0
 724              		@ frame_needed = 0, uses_anonymous_args = 0
 725              		@ link register save eliminated.
 427:Drivers/STM32G0xx_HAL_Driver/Src/stm32g0xx_hal_pwr_ex.c ****   SET_BIT(PWR->CR3, PWR_CR3_EIWUL);
 726              		.loc 1 427 3 view .LVU120
 727 0000 034A     		ldr	r2, .L63
 728 0002 9168     		ldr	r1, [r2, #8]
 729 0004 8023     		movs	r3, #128
 730 0006 1B02     		lsls	r3, r3, #8
 731 0008 0B43     		orrs	r3, r1
 732 000a 9360     		str	r3, [r2, #8]
 428:Drivers/STM32G0xx_HAL_Driver/Src/stm32g0xx_hal_pwr_ex.c **** }
ARM GAS  /tmp/ccqDTMd2.s 			page 21


 733              		.loc 1 428 1 is_stmt 0 view .LVU121
 734              		@ sp needed
 735 000c 7047     		bx	lr
 736              	.L64:
 737 000e C046     		.align	2
 738              	.L63:
 739 0010 00700040 		.word	1073770496
 740              		.cfi_endproc
 741              	.LFE380:
 743              		.section	.text.HAL_PWREx_DisableInternalWakeUpLine,"ax",%progbits
 744              		.align	1
 745              		.global	HAL_PWREx_DisableInternalWakeUpLine
 746              		.syntax unified
 747              		.code	16
 748              		.thumb_func
 750              	HAL_PWREx_DisableInternalWakeUpLine:
 751              	.LFB381:
 429:Drivers/STM32G0xx_HAL_Driver/Src/stm32g0xx_hal_pwr_ex.c **** 
 430:Drivers/STM32G0xx_HAL_Driver/Src/stm32g0xx_hal_pwr_ex.c **** /**
 431:Drivers/STM32G0xx_HAL_Driver/Src/stm32g0xx_hal_pwr_ex.c ****   * @brief  Disable Internal Wake-up Line.
 432:Drivers/STM32G0xx_HAL_Driver/Src/stm32g0xx_hal_pwr_ex.c ****   * @retval None
 433:Drivers/STM32G0xx_HAL_Driver/Src/stm32g0xx_hal_pwr_ex.c ****   */
 434:Drivers/STM32G0xx_HAL_Driver/Src/stm32g0xx_hal_pwr_ex.c **** void HAL_PWREx_DisableInternalWakeUpLine(void)
 435:Drivers/STM32G0xx_HAL_Driver/Src/stm32g0xx_hal_pwr_ex.c **** {
 752              		.loc 1 435 1 is_stmt 1 view -0
 753              		.cfi_startproc
 754              		@ args = 0, pretend = 0, frame = 0
 755              		@ frame_needed = 0, uses_anonymous_args = 0
 756              		@ link register save eliminated.
 436:Drivers/STM32G0xx_HAL_Driver/Src/stm32g0xx_hal_pwr_ex.c ****   CLEAR_BIT(PWR->CR3, PWR_CR3_EIWUL);
 757              		.loc 1 436 3 view .LVU123
 758 0000 024A     		ldr	r2, .L66
 759 0002 9368     		ldr	r3, [r2, #8]
 760 0004 0249     		ldr	r1, .L66+4
 761 0006 0B40     		ands	r3, r1
 762 0008 9360     		str	r3, [r2, #8]
 437:Drivers/STM32G0xx_HAL_Driver/Src/stm32g0xx_hal_pwr_ex.c **** }
 763              		.loc 1 437 1 is_stmt 0 view .LVU124
 764              		@ sp needed
 765 000a 7047     		bx	lr
 766              	.L67:
 767              		.align	2
 768              	.L66:
 769 000c 00700040 		.word	1073770496
 770 0010 FF7FFFFF 		.word	-32769
 771              		.cfi_endproc
 772              	.LFE381:
 774              		.section	.text.HAL_PWREx_EnableGPIOPullUp,"ax",%progbits
 775              		.align	1
 776              		.global	HAL_PWREx_EnableGPIOPullUp
 777              		.syntax unified
 778              		.code	16
 779              		.thumb_func
 781              	HAL_PWREx_EnableGPIOPullUp:
 782              	.LVL16:
 783              	.LFB382:
 438:Drivers/STM32G0xx_HAL_Driver/Src/stm32g0xx_hal_pwr_ex.c **** 
ARM GAS  /tmp/ccqDTMd2.s 			page 22


 439:Drivers/STM32G0xx_HAL_Driver/Src/stm32g0xx_hal_pwr_ex.c **** /**
 440:Drivers/STM32G0xx_HAL_Driver/Src/stm32g0xx_hal_pwr_ex.c ****   * @brief  Enable GPIO pull-up state in Standby and Shutdown modes.
 441:Drivers/STM32G0xx_HAL_Driver/Src/stm32g0xx_hal_pwr_ex.c ****   * @note   Set the relevant PUy bit of PWR_PUCRx register to configure the I/O in
 442:Drivers/STM32G0xx_HAL_Driver/Src/stm32g0xx_hal_pwr_ex.c ****   *         pull-up state in Standby and Shutdown modes.
 443:Drivers/STM32G0xx_HAL_Driver/Src/stm32g0xx_hal_pwr_ex.c ****   * @note   This state is effective in Standby and Shutdown modes only if APC bit
 444:Drivers/STM32G0xx_HAL_Driver/Src/stm32g0xx_hal_pwr_ex.c ****   *         is set through HAL_PWREx_EnablePullUpPullDownConfig() API.
 445:Drivers/STM32G0xx_HAL_Driver/Src/stm32g0xx_hal_pwr_ex.c ****   * @note   The configuration is lost when exiting the Shutdown mode due to the
 446:Drivers/STM32G0xx_HAL_Driver/Src/stm32g0xx_hal_pwr_ex.c ****   *         power-on reset, maintained when exiting the Standby mode.
 447:Drivers/STM32G0xx_HAL_Driver/Src/stm32g0xx_hal_pwr_ex.c ****   * @note   To avoid any conflict at Standby and Shutdown modes exits, the corresponding
 448:Drivers/STM32G0xx_HAL_Driver/Src/stm32g0xx_hal_pwr_ex.c ****   *         PDy bit of PWR_PDCRx register is cleared unless it is reserved.
 449:Drivers/STM32G0xx_HAL_Driver/Src/stm32g0xx_hal_pwr_ex.c ****   * @param  GPIO Specify the IO port. This parameter can be PWR_GPIO_A, ..., PWR_GPIO_F
 450:Drivers/STM32G0xx_HAL_Driver/Src/stm32g0xx_hal_pwr_ex.c ****   *         to select the GPIO peripheral.
 451:Drivers/STM32G0xx_HAL_Driver/Src/stm32g0xx_hal_pwr_ex.c ****   * @param  GPIONumber Specify the I/O pins numbers.
 452:Drivers/STM32G0xx_HAL_Driver/Src/stm32g0xx_hal_pwr_ex.c ****   *         This parameter can be one of the following values:
 453:Drivers/STM32G0xx_HAL_Driver/Src/stm32g0xx_hal_pwr_ex.c ****   *         PWR_GPIO_BIT_0, ..., PWR_GPIO_BIT_15 (except for ports where less
 454:Drivers/STM32G0xx_HAL_Driver/Src/stm32g0xx_hal_pwr_ex.c ****   *         I/O pins are available) or the logical OR of several of them to set
 455:Drivers/STM32G0xx_HAL_Driver/Src/stm32g0xx_hal_pwr_ex.c ****   *         several bits for a given port in a single API call.
 456:Drivers/STM32G0xx_HAL_Driver/Src/stm32g0xx_hal_pwr_ex.c ****   * @retval HAL Status
 457:Drivers/STM32G0xx_HAL_Driver/Src/stm32g0xx_hal_pwr_ex.c ****   */
 458:Drivers/STM32G0xx_HAL_Driver/Src/stm32g0xx_hal_pwr_ex.c **** HAL_StatusTypeDef HAL_PWREx_EnableGPIOPullUp(uint32_t GPIO, uint32_t GPIONumber)
 459:Drivers/STM32G0xx_HAL_Driver/Src/stm32g0xx_hal_pwr_ex.c **** {
 784              		.loc 1 459 1 is_stmt 1 view -0
 785              		.cfi_startproc
 786              		@ args = 0, pretend = 0, frame = 0
 787              		@ frame_needed = 0, uses_anonymous_args = 0
 788              		@ link register save eliminated.
 460:Drivers/STM32G0xx_HAL_Driver/Src/stm32g0xx_hal_pwr_ex.c ****   HAL_StatusTypeDef status = HAL_OK;
 789              		.loc 1 460 3 view .LVU126
 461:Drivers/STM32G0xx_HAL_Driver/Src/stm32g0xx_hal_pwr_ex.c **** 
 462:Drivers/STM32G0xx_HAL_Driver/Src/stm32g0xx_hal_pwr_ex.c ****   assert_param(IS_PWR_GPIO(GPIO));
 790              		.loc 1 462 3 view .LVU127
 463:Drivers/STM32G0xx_HAL_Driver/Src/stm32g0xx_hal_pwr_ex.c ****   assert_param(IS_PWR_GPIO_BIT_NUMBER(GPIONumber));
 791              		.loc 1 463 3 view .LVU128
 464:Drivers/STM32G0xx_HAL_Driver/Src/stm32g0xx_hal_pwr_ex.c **** 
 465:Drivers/STM32G0xx_HAL_Driver/Src/stm32g0xx_hal_pwr_ex.c ****   switch (GPIO)
 792              		.loc 1 465 3 view .LVU129
 793 0000 0528     		cmp	r0, #5
 794 0002 34D8     		bhi	.L76
 795 0004 8000     		lsls	r0, r0, #2
 796              	.LVL17:
 797              		.loc 1 465 3 is_stmt 0 view .LVU130
 798 0006 1B4B     		ldr	r3, .L77
 799 0008 1B58     		ldr	r3, [r3, r0]
 800 000a 9F46     		mov	pc, r3
 801              		.section	.rodata.HAL_PWREx_EnableGPIOPullUp,"a",%progbits
 802              		.align	2
 803              	.L71:
 804 0000 0C000000 		.word	.L75
 805 0004 26000000 		.word	.L74
 806 0008 38000000 		.word	.L73
 807 000c 4A000000 		.word	.L72
 808 0010 6E000000 		.word	.L76
 809 0014 5C000000 		.word	.L70
 810              		.section	.text.HAL_PWREx_EnableGPIOPullUp
 811              	.L75:
 466:Drivers/STM32G0xx_HAL_Driver/Src/stm32g0xx_hal_pwr_ex.c ****   {
 467:Drivers/STM32G0xx_HAL_Driver/Src/stm32g0xx_hal_pwr_ex.c ****     case PWR_GPIO_A:
ARM GAS  /tmp/ccqDTMd2.s 			page 23


 468:Drivers/STM32G0xx_HAL_Driver/Src/stm32g0xx_hal_pwr_ex.c ****       SET_BIT(PWR->PUCRA, (GPIONumber & ~PWR_GPIO_BIT_14));
 812              		.loc 1 468 7 is_stmt 1 view .LVU131
 813 000c 1A4B     		ldr	r3, .L77+4
 814 000e 1A6A     		ldr	r2, [r3, #32]
 815 0010 1A48     		ldr	r0, .L77+8
 816 0012 0840     		ands	r0, r1
 817 0014 0243     		orrs	r2, r0
 818 0016 1A62     		str	r2, [r3, #32]
 469:Drivers/STM32G0xx_HAL_Driver/Src/stm32g0xx_hal_pwr_ex.c ****       CLEAR_BIT(PWR->PDCRA, (GPIONumber & ~PWR_GPIO_BIT_13));
 819              		.loc 1 469 7 view .LVU132
 820 0018 5A6A     		ldr	r2, [r3, #36]
 821 001a 1948     		ldr	r0, .L77+12
 822 001c 0140     		ands	r1, r0
 823              	.LVL18:
 824              		.loc 1 469 7 is_stmt 0 view .LVU133
 825 001e 8A43     		bics	r2, r1
 826 0020 5A62     		str	r2, [r3, #36]
 470:Drivers/STM32G0xx_HAL_Driver/Src/stm32g0xx_hal_pwr_ex.c ****       break;
 827              		.loc 1 470 7 is_stmt 1 view .LVU134
 460:Drivers/STM32G0xx_HAL_Driver/Src/stm32g0xx_hal_pwr_ex.c **** 
 828              		.loc 1 460 21 is_stmt 0 view .LVU135
 829 0022 0020     		movs	r0, #0
 830              	.L69:
 831              	.LVL19:
 471:Drivers/STM32G0xx_HAL_Driver/Src/stm32g0xx_hal_pwr_ex.c **** 
 472:Drivers/STM32G0xx_HAL_Driver/Src/stm32g0xx_hal_pwr_ex.c ****     case PWR_GPIO_B:
 473:Drivers/STM32G0xx_HAL_Driver/Src/stm32g0xx_hal_pwr_ex.c ****       SET_BIT(PWR->PUCRB, GPIONumber);
 474:Drivers/STM32G0xx_HAL_Driver/Src/stm32g0xx_hal_pwr_ex.c ****       CLEAR_BIT(PWR->PDCRB, GPIONumber);
 475:Drivers/STM32G0xx_HAL_Driver/Src/stm32g0xx_hal_pwr_ex.c ****       break;
 476:Drivers/STM32G0xx_HAL_Driver/Src/stm32g0xx_hal_pwr_ex.c **** 
 477:Drivers/STM32G0xx_HAL_Driver/Src/stm32g0xx_hal_pwr_ex.c ****     case PWR_GPIO_C:
 478:Drivers/STM32G0xx_HAL_Driver/Src/stm32g0xx_hal_pwr_ex.c ****       SET_BIT(PWR->PUCRC, GPIONumber);
 479:Drivers/STM32G0xx_HAL_Driver/Src/stm32g0xx_hal_pwr_ex.c ****       CLEAR_BIT(PWR->PDCRC, GPIONumber);
 480:Drivers/STM32G0xx_HAL_Driver/Src/stm32g0xx_hal_pwr_ex.c ****       break;
 481:Drivers/STM32G0xx_HAL_Driver/Src/stm32g0xx_hal_pwr_ex.c **** 
 482:Drivers/STM32G0xx_HAL_Driver/Src/stm32g0xx_hal_pwr_ex.c ****     case PWR_GPIO_D:
 483:Drivers/STM32G0xx_HAL_Driver/Src/stm32g0xx_hal_pwr_ex.c ****       SET_BIT(PWR->PUCRD, GPIONumber);
 484:Drivers/STM32G0xx_HAL_Driver/Src/stm32g0xx_hal_pwr_ex.c ****       CLEAR_BIT(PWR->PDCRD, GPIONumber);
 485:Drivers/STM32G0xx_HAL_Driver/Src/stm32g0xx_hal_pwr_ex.c ****       break;
 486:Drivers/STM32G0xx_HAL_Driver/Src/stm32g0xx_hal_pwr_ex.c **** 
 487:Drivers/STM32G0xx_HAL_Driver/Src/stm32g0xx_hal_pwr_ex.c **** #if defined(GPI0E)
 488:Drivers/STM32G0xx_HAL_Driver/Src/stm32g0xx_hal_pwr_ex.c ****     case PWR_GPIO_E:
 489:Drivers/STM32G0xx_HAL_Driver/Src/stm32g0xx_hal_pwr_ex.c ****       SET_BIT(PWR->PUCRE, GPIONumber);
 490:Drivers/STM32G0xx_HAL_Driver/Src/stm32g0xx_hal_pwr_ex.c ****       CLEAR_BIT(PWR->PDCRE, GPIONumber);
 491:Drivers/STM32G0xx_HAL_Driver/Src/stm32g0xx_hal_pwr_ex.c ****       break;
 492:Drivers/STM32G0xx_HAL_Driver/Src/stm32g0xx_hal_pwr_ex.c **** #endif /* GPI0E */
 493:Drivers/STM32G0xx_HAL_Driver/Src/stm32g0xx_hal_pwr_ex.c ****     case PWR_GPIO_F:
 494:Drivers/STM32G0xx_HAL_Driver/Src/stm32g0xx_hal_pwr_ex.c ****       SET_BIT(PWR->PUCRF, GPIONumber);
 495:Drivers/STM32G0xx_HAL_Driver/Src/stm32g0xx_hal_pwr_ex.c ****       CLEAR_BIT(PWR->PDCRF, GPIONumber);
 496:Drivers/STM32G0xx_HAL_Driver/Src/stm32g0xx_hal_pwr_ex.c ****       break;
 497:Drivers/STM32G0xx_HAL_Driver/Src/stm32g0xx_hal_pwr_ex.c **** 
 498:Drivers/STM32G0xx_HAL_Driver/Src/stm32g0xx_hal_pwr_ex.c ****     default:
 499:Drivers/STM32G0xx_HAL_Driver/Src/stm32g0xx_hal_pwr_ex.c ****       status = HAL_ERROR;
 500:Drivers/STM32G0xx_HAL_Driver/Src/stm32g0xx_hal_pwr_ex.c ****       break;
 501:Drivers/STM32G0xx_HAL_Driver/Src/stm32g0xx_hal_pwr_ex.c ****   }
 502:Drivers/STM32G0xx_HAL_Driver/Src/stm32g0xx_hal_pwr_ex.c **** 
 503:Drivers/STM32G0xx_HAL_Driver/Src/stm32g0xx_hal_pwr_ex.c ****   return status;
ARM GAS  /tmp/ccqDTMd2.s 			page 24


 832              		.loc 1 503 3 is_stmt 1 view .LVU136
 504:Drivers/STM32G0xx_HAL_Driver/Src/stm32g0xx_hal_pwr_ex.c **** }
 833              		.loc 1 504 1 is_stmt 0 view .LVU137
 834              		@ sp needed
 835 0024 7047     		bx	lr
 836              	.LVL20:
 837              	.L74:
 473:Drivers/STM32G0xx_HAL_Driver/Src/stm32g0xx_hal_pwr_ex.c ****       CLEAR_BIT(PWR->PDCRB, GPIONumber);
 838              		.loc 1 473 7 is_stmt 1 view .LVU138
 839 0026 144B     		ldr	r3, .L77+4
 840 0028 9A6A     		ldr	r2, [r3, #40]
 841 002a 0A43     		orrs	r2, r1
 842 002c 9A62     		str	r2, [r3, #40]
 474:Drivers/STM32G0xx_HAL_Driver/Src/stm32g0xx_hal_pwr_ex.c ****       break;
 843              		.loc 1 474 7 view .LVU139
 844 002e DA6A     		ldr	r2, [r3, #44]
 845 0030 8A43     		bics	r2, r1
 846 0032 DA62     		str	r2, [r3, #44]
 475:Drivers/STM32G0xx_HAL_Driver/Src/stm32g0xx_hal_pwr_ex.c **** 
 847              		.loc 1 475 7 view .LVU140
 460:Drivers/STM32G0xx_HAL_Driver/Src/stm32g0xx_hal_pwr_ex.c **** 
 848              		.loc 1 460 21 is_stmt 0 view .LVU141
 849 0034 0020     		movs	r0, #0
 475:Drivers/STM32G0xx_HAL_Driver/Src/stm32g0xx_hal_pwr_ex.c **** 
 850              		.loc 1 475 7 view .LVU142
 851 0036 F5E7     		b	.L69
 852              	.L73:
 478:Drivers/STM32G0xx_HAL_Driver/Src/stm32g0xx_hal_pwr_ex.c ****       CLEAR_BIT(PWR->PDCRC, GPIONumber);
 853              		.loc 1 478 7 is_stmt 1 view .LVU143
 854 0038 0F4B     		ldr	r3, .L77+4
 855 003a 1A6B     		ldr	r2, [r3, #48]
 856 003c 0A43     		orrs	r2, r1
 857 003e 1A63     		str	r2, [r3, #48]
 479:Drivers/STM32G0xx_HAL_Driver/Src/stm32g0xx_hal_pwr_ex.c ****       break;
 858              		.loc 1 479 7 view .LVU144
 859 0040 5A6B     		ldr	r2, [r3, #52]
 860 0042 8A43     		bics	r2, r1
 861 0044 5A63     		str	r2, [r3, #52]
 480:Drivers/STM32G0xx_HAL_Driver/Src/stm32g0xx_hal_pwr_ex.c **** 
 862              		.loc 1 480 7 view .LVU145
 460:Drivers/STM32G0xx_HAL_Driver/Src/stm32g0xx_hal_pwr_ex.c **** 
 863              		.loc 1 460 21 is_stmt 0 view .LVU146
 864 0046 0020     		movs	r0, #0
 480:Drivers/STM32G0xx_HAL_Driver/Src/stm32g0xx_hal_pwr_ex.c **** 
 865              		.loc 1 480 7 view .LVU147
 866 0048 ECE7     		b	.L69
 867              	.L72:
 483:Drivers/STM32G0xx_HAL_Driver/Src/stm32g0xx_hal_pwr_ex.c ****       CLEAR_BIT(PWR->PDCRD, GPIONumber);
 868              		.loc 1 483 7 is_stmt 1 view .LVU148
 869 004a 0B4B     		ldr	r3, .L77+4
 870 004c 9A6B     		ldr	r2, [r3, #56]
 871 004e 0A43     		orrs	r2, r1
 872 0050 9A63     		str	r2, [r3, #56]
 484:Drivers/STM32G0xx_HAL_Driver/Src/stm32g0xx_hal_pwr_ex.c ****       break;
 873              		.loc 1 484 7 view .LVU149
 874 0052 DA6B     		ldr	r2, [r3, #60]
 875 0054 8A43     		bics	r2, r1
ARM GAS  /tmp/ccqDTMd2.s 			page 25


 876 0056 DA63     		str	r2, [r3, #60]
 485:Drivers/STM32G0xx_HAL_Driver/Src/stm32g0xx_hal_pwr_ex.c **** 
 877              		.loc 1 485 7 view .LVU150
 460:Drivers/STM32G0xx_HAL_Driver/Src/stm32g0xx_hal_pwr_ex.c **** 
 878              		.loc 1 460 21 is_stmt 0 view .LVU151
 879 0058 0020     		movs	r0, #0
 485:Drivers/STM32G0xx_HAL_Driver/Src/stm32g0xx_hal_pwr_ex.c **** 
 880              		.loc 1 485 7 view .LVU152
 881 005a E3E7     		b	.L69
 882              	.L70:
 494:Drivers/STM32G0xx_HAL_Driver/Src/stm32g0xx_hal_pwr_ex.c ****       CLEAR_BIT(PWR->PDCRF, GPIONumber);
 883              		.loc 1 494 7 is_stmt 1 view .LVU153
 884 005c 064B     		ldr	r3, .L77+4
 885 005e 9A6C     		ldr	r2, [r3, #72]
 886 0060 0A43     		orrs	r2, r1
 887 0062 9A64     		str	r2, [r3, #72]
 495:Drivers/STM32G0xx_HAL_Driver/Src/stm32g0xx_hal_pwr_ex.c ****       break;
 888              		.loc 1 495 7 view .LVU154
 889 0064 DA6C     		ldr	r2, [r3, #76]
 890 0066 8A43     		bics	r2, r1
 891 0068 DA64     		str	r2, [r3, #76]
 496:Drivers/STM32G0xx_HAL_Driver/Src/stm32g0xx_hal_pwr_ex.c **** 
 892              		.loc 1 496 7 view .LVU155
 460:Drivers/STM32G0xx_HAL_Driver/Src/stm32g0xx_hal_pwr_ex.c **** 
 893              		.loc 1 460 21 is_stmt 0 view .LVU156
 894 006a 0020     		movs	r0, #0
 496:Drivers/STM32G0xx_HAL_Driver/Src/stm32g0xx_hal_pwr_ex.c **** 
 895              		.loc 1 496 7 view .LVU157
 896 006c DAE7     		b	.L69
 897              	.L76:
 465:Drivers/STM32G0xx_HAL_Driver/Src/stm32g0xx_hal_pwr_ex.c ****   {
 898              		.loc 1 465 3 view .LVU158
 899 006e 0120     		movs	r0, #1
 900 0070 D8E7     		b	.L69
 901              	.L78:
 902 0072 C046     		.align	2
 903              	.L77:
 904 0074 00000000 		.word	.L71
 905 0078 00700040 		.word	1073770496
 906 007c FFBFFFFF 		.word	-16385
 907 0080 FFDFFFFF 		.word	-8193
 908              		.cfi_endproc
 909              	.LFE382:
 911              		.section	.text.HAL_PWREx_DisableGPIOPullUp,"ax",%progbits
 912              		.align	1
 913              		.global	HAL_PWREx_DisableGPIOPullUp
 914              		.syntax unified
 915              		.code	16
 916              		.thumb_func
 918              	HAL_PWREx_DisableGPIOPullUp:
 919              	.LVL21:
 920              	.LFB383:
 505:Drivers/STM32G0xx_HAL_Driver/Src/stm32g0xx_hal_pwr_ex.c **** 
 506:Drivers/STM32G0xx_HAL_Driver/Src/stm32g0xx_hal_pwr_ex.c **** 
 507:Drivers/STM32G0xx_HAL_Driver/Src/stm32g0xx_hal_pwr_ex.c **** /**
 508:Drivers/STM32G0xx_HAL_Driver/Src/stm32g0xx_hal_pwr_ex.c ****   * @brief  Disable GPIO pull-up state in Standby mode and Shutdown modes.
 509:Drivers/STM32G0xx_HAL_Driver/Src/stm32g0xx_hal_pwr_ex.c ****   * @note   Reset the relevant PUy bit of PWR_PUCRx register used to configure the I/O
ARM GAS  /tmp/ccqDTMd2.s 			page 26


 510:Drivers/STM32G0xx_HAL_Driver/Src/stm32g0xx_hal_pwr_ex.c ****   *         in pull-up state in Standby and Shutdown modes.
 511:Drivers/STM32G0xx_HAL_Driver/Src/stm32g0xx_hal_pwr_ex.c ****   * @param  GPIO Specifies the IO port. This parameter can be PWR_GPIO_A, ..., PWR_GPIO_F
 512:Drivers/STM32G0xx_HAL_Driver/Src/stm32g0xx_hal_pwr_ex.c ****   *         to select the GPIO peripheral.
 513:Drivers/STM32G0xx_HAL_Driver/Src/stm32g0xx_hal_pwr_ex.c ****   * @param  GPIONumber Specify the I/O pins numbers.
 514:Drivers/STM32G0xx_HAL_Driver/Src/stm32g0xx_hal_pwr_ex.c ****   *         This parameter can be one of the following values:
 515:Drivers/STM32G0xx_HAL_Driver/Src/stm32g0xx_hal_pwr_ex.c ****   *         PWR_GPIO_BIT_0, ..., PWR_GPIO_BIT_15 (except for ports where less
 516:Drivers/STM32G0xx_HAL_Driver/Src/stm32g0xx_hal_pwr_ex.c ****   *         I/O pins are available) or the logical OR of several of them to reset
 517:Drivers/STM32G0xx_HAL_Driver/Src/stm32g0xx_hal_pwr_ex.c ****   *         several bits for a given port in a single API call.
 518:Drivers/STM32G0xx_HAL_Driver/Src/stm32g0xx_hal_pwr_ex.c ****   * @retval HAL Status
 519:Drivers/STM32G0xx_HAL_Driver/Src/stm32g0xx_hal_pwr_ex.c ****   */
 520:Drivers/STM32G0xx_HAL_Driver/Src/stm32g0xx_hal_pwr_ex.c **** HAL_StatusTypeDef HAL_PWREx_DisableGPIOPullUp(uint32_t GPIO, uint32_t GPIONumber)
 521:Drivers/STM32G0xx_HAL_Driver/Src/stm32g0xx_hal_pwr_ex.c **** {
 921              		.loc 1 521 1 is_stmt 1 view -0
 922              		.cfi_startproc
 923              		@ args = 0, pretend = 0, frame = 0
 924              		@ frame_needed = 0, uses_anonymous_args = 0
 925              		@ link register save eliminated.
 522:Drivers/STM32G0xx_HAL_Driver/Src/stm32g0xx_hal_pwr_ex.c ****   HAL_StatusTypeDef status = HAL_OK;
 926              		.loc 1 522 3 view .LVU160
 523:Drivers/STM32G0xx_HAL_Driver/Src/stm32g0xx_hal_pwr_ex.c **** 
 524:Drivers/STM32G0xx_HAL_Driver/Src/stm32g0xx_hal_pwr_ex.c ****   assert_param(IS_PWR_GPIO(GPIO));
 927              		.loc 1 524 3 view .LVU161
 525:Drivers/STM32G0xx_HAL_Driver/Src/stm32g0xx_hal_pwr_ex.c ****   assert_param(IS_PWR_GPIO_BIT_NUMBER(GPIONumber));
 928              		.loc 1 525 3 view .LVU162
 526:Drivers/STM32G0xx_HAL_Driver/Src/stm32g0xx_hal_pwr_ex.c **** 
 527:Drivers/STM32G0xx_HAL_Driver/Src/stm32g0xx_hal_pwr_ex.c ****   switch (GPIO)
 929              		.loc 1 527 3 view .LVU163
 930 0000 0528     		cmp	r0, #5
 931 0002 23D8     		bhi	.L87
 932 0004 8000     		lsls	r0, r0, #2
 933              	.LVL22:
 934              		.loc 1 527 3 is_stmt 0 view .LVU164
 935 0006 124B     		ldr	r3, .L88
 936 0008 1B58     		ldr	r3, [r3, r0]
 937 000a 9F46     		mov	pc, r3
 938              		.section	.rodata.HAL_PWREx_DisableGPIOPullUp,"a",%progbits
 939              		.align	2
 940              	.L82:
 941 0000 0C000000 		.word	.L86
 942 0004 1C000000 		.word	.L85
 943 0008 28000000 		.word	.L84
 944 000c 34000000 		.word	.L83
 945 0010 4C000000 		.word	.L87
 946 0014 40000000 		.word	.L81
 947              		.section	.text.HAL_PWREx_DisableGPIOPullUp
 948              	.L86:
 528:Drivers/STM32G0xx_HAL_Driver/Src/stm32g0xx_hal_pwr_ex.c ****   {
 529:Drivers/STM32G0xx_HAL_Driver/Src/stm32g0xx_hal_pwr_ex.c ****     case PWR_GPIO_A:
 530:Drivers/STM32G0xx_HAL_Driver/Src/stm32g0xx_hal_pwr_ex.c ****       CLEAR_BIT(PWR->PUCRA, (GPIONumber & ~PWR_GPIO_BIT_14));
 949              		.loc 1 530 7 is_stmt 1 view .LVU165
 950 000c 1148     		ldr	r0, .L88+4
 951 000e 036A     		ldr	r3, [r0, #32]
 952 0010 114A     		ldr	r2, .L88+8
 953 0012 0A40     		ands	r2, r1
 954 0014 9343     		bics	r3, r2
 955 0016 0362     		str	r3, [r0, #32]
 531:Drivers/STM32G0xx_HAL_Driver/Src/stm32g0xx_hal_pwr_ex.c ****       break;
ARM GAS  /tmp/ccqDTMd2.s 			page 27


 956              		.loc 1 531 7 view .LVU166
 522:Drivers/STM32G0xx_HAL_Driver/Src/stm32g0xx_hal_pwr_ex.c **** 
 957              		.loc 1 522 21 is_stmt 0 view .LVU167
 958 0018 0020     		movs	r0, #0
 959              	.L80:
 960              	.LVL23:
 532:Drivers/STM32G0xx_HAL_Driver/Src/stm32g0xx_hal_pwr_ex.c **** 
 533:Drivers/STM32G0xx_HAL_Driver/Src/stm32g0xx_hal_pwr_ex.c ****     case PWR_GPIO_B:
 534:Drivers/STM32G0xx_HAL_Driver/Src/stm32g0xx_hal_pwr_ex.c ****       CLEAR_BIT(PWR->PUCRB, GPIONumber);
 535:Drivers/STM32G0xx_HAL_Driver/Src/stm32g0xx_hal_pwr_ex.c ****       break;
 536:Drivers/STM32G0xx_HAL_Driver/Src/stm32g0xx_hal_pwr_ex.c **** 
 537:Drivers/STM32G0xx_HAL_Driver/Src/stm32g0xx_hal_pwr_ex.c ****     case PWR_GPIO_C:
 538:Drivers/STM32G0xx_HAL_Driver/Src/stm32g0xx_hal_pwr_ex.c ****       CLEAR_BIT(PWR->PUCRC, GPIONumber);
 539:Drivers/STM32G0xx_HAL_Driver/Src/stm32g0xx_hal_pwr_ex.c ****       break;
 540:Drivers/STM32G0xx_HAL_Driver/Src/stm32g0xx_hal_pwr_ex.c **** 
 541:Drivers/STM32G0xx_HAL_Driver/Src/stm32g0xx_hal_pwr_ex.c ****     case PWR_GPIO_D:
 542:Drivers/STM32G0xx_HAL_Driver/Src/stm32g0xx_hal_pwr_ex.c ****       CLEAR_BIT(PWR->PUCRD, GPIONumber);
 543:Drivers/STM32G0xx_HAL_Driver/Src/stm32g0xx_hal_pwr_ex.c ****       break;
 544:Drivers/STM32G0xx_HAL_Driver/Src/stm32g0xx_hal_pwr_ex.c **** 
 545:Drivers/STM32G0xx_HAL_Driver/Src/stm32g0xx_hal_pwr_ex.c **** #if defined(GPI0E)
 546:Drivers/STM32G0xx_HAL_Driver/Src/stm32g0xx_hal_pwr_ex.c ****     case PWR_GPIO_E:
 547:Drivers/STM32G0xx_HAL_Driver/Src/stm32g0xx_hal_pwr_ex.c ****       CLEAR_BIT(PWR->PUCRE, GPIONumber);
 548:Drivers/STM32G0xx_HAL_Driver/Src/stm32g0xx_hal_pwr_ex.c ****       break;
 549:Drivers/STM32G0xx_HAL_Driver/Src/stm32g0xx_hal_pwr_ex.c **** #endif /* GPI0E */
 550:Drivers/STM32G0xx_HAL_Driver/Src/stm32g0xx_hal_pwr_ex.c ****     case PWR_GPIO_F:
 551:Drivers/STM32G0xx_HAL_Driver/Src/stm32g0xx_hal_pwr_ex.c ****       CLEAR_BIT(PWR->PUCRF, GPIONumber);
 552:Drivers/STM32G0xx_HAL_Driver/Src/stm32g0xx_hal_pwr_ex.c ****       break;
 553:Drivers/STM32G0xx_HAL_Driver/Src/stm32g0xx_hal_pwr_ex.c **** 
 554:Drivers/STM32G0xx_HAL_Driver/Src/stm32g0xx_hal_pwr_ex.c ****     default:
 555:Drivers/STM32G0xx_HAL_Driver/Src/stm32g0xx_hal_pwr_ex.c ****       status = HAL_ERROR;
 556:Drivers/STM32G0xx_HAL_Driver/Src/stm32g0xx_hal_pwr_ex.c ****       break;
 557:Drivers/STM32G0xx_HAL_Driver/Src/stm32g0xx_hal_pwr_ex.c ****   }
 558:Drivers/STM32G0xx_HAL_Driver/Src/stm32g0xx_hal_pwr_ex.c **** 
 559:Drivers/STM32G0xx_HAL_Driver/Src/stm32g0xx_hal_pwr_ex.c ****   return status;
 961              		.loc 1 559 3 is_stmt 1 view .LVU168
 560:Drivers/STM32G0xx_HAL_Driver/Src/stm32g0xx_hal_pwr_ex.c **** }
 962              		.loc 1 560 1 is_stmt 0 view .LVU169
 963              		@ sp needed
 964 001a 7047     		bx	lr
 965              	.LVL24:
 966              	.L85:
 534:Drivers/STM32G0xx_HAL_Driver/Src/stm32g0xx_hal_pwr_ex.c ****       break;
 967              		.loc 1 534 7 is_stmt 1 view .LVU170
 968 001c 0D4A     		ldr	r2, .L88+4
 969 001e 936A     		ldr	r3, [r2, #40]
 970 0020 8B43     		bics	r3, r1
 971 0022 9362     		str	r3, [r2, #40]
 535:Drivers/STM32G0xx_HAL_Driver/Src/stm32g0xx_hal_pwr_ex.c **** 
 972              		.loc 1 535 7 view .LVU171
 522:Drivers/STM32G0xx_HAL_Driver/Src/stm32g0xx_hal_pwr_ex.c **** 
 973              		.loc 1 522 21 is_stmt 0 view .LVU172
 974 0024 0020     		movs	r0, #0
 535:Drivers/STM32G0xx_HAL_Driver/Src/stm32g0xx_hal_pwr_ex.c **** 
 975              		.loc 1 535 7 view .LVU173
 976 0026 F8E7     		b	.L80
 977              	.L84:
 538:Drivers/STM32G0xx_HAL_Driver/Src/stm32g0xx_hal_pwr_ex.c ****       break;
ARM GAS  /tmp/ccqDTMd2.s 			page 28


 978              		.loc 1 538 7 is_stmt 1 view .LVU174
 979 0028 0A4A     		ldr	r2, .L88+4
 980 002a 136B     		ldr	r3, [r2, #48]
 981 002c 8B43     		bics	r3, r1
 982 002e 1363     		str	r3, [r2, #48]
 539:Drivers/STM32G0xx_HAL_Driver/Src/stm32g0xx_hal_pwr_ex.c **** 
 983              		.loc 1 539 7 view .LVU175
 522:Drivers/STM32G0xx_HAL_Driver/Src/stm32g0xx_hal_pwr_ex.c **** 
 984              		.loc 1 522 21 is_stmt 0 view .LVU176
 985 0030 0020     		movs	r0, #0
 539:Drivers/STM32G0xx_HAL_Driver/Src/stm32g0xx_hal_pwr_ex.c **** 
 986              		.loc 1 539 7 view .LVU177
 987 0032 F2E7     		b	.L80
 988              	.L83:
 542:Drivers/STM32G0xx_HAL_Driver/Src/stm32g0xx_hal_pwr_ex.c ****       break;
 989              		.loc 1 542 7 is_stmt 1 view .LVU178
 990 0034 074A     		ldr	r2, .L88+4
 991 0036 936B     		ldr	r3, [r2, #56]
 992 0038 8B43     		bics	r3, r1
 993 003a 9363     		str	r3, [r2, #56]
 543:Drivers/STM32G0xx_HAL_Driver/Src/stm32g0xx_hal_pwr_ex.c **** 
 994              		.loc 1 543 7 view .LVU179
 522:Drivers/STM32G0xx_HAL_Driver/Src/stm32g0xx_hal_pwr_ex.c **** 
 995              		.loc 1 522 21 is_stmt 0 view .LVU180
 996 003c 0020     		movs	r0, #0
 543:Drivers/STM32G0xx_HAL_Driver/Src/stm32g0xx_hal_pwr_ex.c **** 
 997              		.loc 1 543 7 view .LVU181
 998 003e ECE7     		b	.L80
 999              	.L81:
 551:Drivers/STM32G0xx_HAL_Driver/Src/stm32g0xx_hal_pwr_ex.c ****       break;
 1000              		.loc 1 551 7 is_stmt 1 view .LVU182
 1001 0040 044A     		ldr	r2, .L88+4
 1002 0042 936C     		ldr	r3, [r2, #72]
 1003 0044 8B43     		bics	r3, r1
 1004 0046 9364     		str	r3, [r2, #72]
 552:Drivers/STM32G0xx_HAL_Driver/Src/stm32g0xx_hal_pwr_ex.c **** 
 1005              		.loc 1 552 7 view .LVU183
 522:Drivers/STM32G0xx_HAL_Driver/Src/stm32g0xx_hal_pwr_ex.c **** 
 1006              		.loc 1 522 21 is_stmt 0 view .LVU184
 1007 0048 0020     		movs	r0, #0
 552:Drivers/STM32G0xx_HAL_Driver/Src/stm32g0xx_hal_pwr_ex.c **** 
 1008              		.loc 1 552 7 view .LVU185
 1009 004a E6E7     		b	.L80
 1010              	.L87:
 527:Drivers/STM32G0xx_HAL_Driver/Src/stm32g0xx_hal_pwr_ex.c ****   {
 1011              		.loc 1 527 3 view .LVU186
 1012 004c 0120     		movs	r0, #1
 1013 004e E4E7     		b	.L80
 1014              	.L89:
 1015              		.align	2
 1016              	.L88:
 1017 0050 00000000 		.word	.L82
 1018 0054 00700040 		.word	1073770496
 1019 0058 FFBFFFFF 		.word	-16385
 1020              		.cfi_endproc
 1021              	.LFE383:
 1023              		.section	.text.HAL_PWREx_EnableGPIOPullDown,"ax",%progbits
ARM GAS  /tmp/ccqDTMd2.s 			page 29


 1024              		.align	1
 1025              		.global	HAL_PWREx_EnableGPIOPullDown
 1026              		.syntax unified
 1027              		.code	16
 1028              		.thumb_func
 1030              	HAL_PWREx_EnableGPIOPullDown:
 1031              	.LVL25:
 1032              	.LFB384:
 561:Drivers/STM32G0xx_HAL_Driver/Src/stm32g0xx_hal_pwr_ex.c **** 
 562:Drivers/STM32G0xx_HAL_Driver/Src/stm32g0xx_hal_pwr_ex.c **** 
 563:Drivers/STM32G0xx_HAL_Driver/Src/stm32g0xx_hal_pwr_ex.c **** /**
 564:Drivers/STM32G0xx_HAL_Driver/Src/stm32g0xx_hal_pwr_ex.c ****   * @brief  Enable GPIO pull-down state in Standby and Shutdown modes.
 565:Drivers/STM32G0xx_HAL_Driver/Src/stm32g0xx_hal_pwr_ex.c ****   * @note   Set the relevant PDy bit of PWR_PDCRx register to configure the I/O in
 566:Drivers/STM32G0xx_HAL_Driver/Src/stm32g0xx_hal_pwr_ex.c ****   *         pull-down state in Standby and Shutdown modes.
 567:Drivers/STM32G0xx_HAL_Driver/Src/stm32g0xx_hal_pwr_ex.c ****   * @note   This state is effective in Standby and Shutdown modes only if APC bit
 568:Drivers/STM32G0xx_HAL_Driver/Src/stm32g0xx_hal_pwr_ex.c ****   *         is set through HAL_PWREx_EnablePullUpPullDownConfig() API.
 569:Drivers/STM32G0xx_HAL_Driver/Src/stm32g0xx_hal_pwr_ex.c ****   * @note   The configuration is lost when exiting the Shutdown mode due to the
 570:Drivers/STM32G0xx_HAL_Driver/Src/stm32g0xx_hal_pwr_ex.c ****   *         power-on reset, maintained when exiting the Standby mode.
 571:Drivers/STM32G0xx_HAL_Driver/Src/stm32g0xx_hal_pwr_ex.c ****   * @note   To avoid any conflict at Standby and Shutdown modes exits, the corresponding
 572:Drivers/STM32G0xx_HAL_Driver/Src/stm32g0xx_hal_pwr_ex.c ****   *         PUy bit of PWR_PUCRx register is cleared unless it is reserved.
 573:Drivers/STM32G0xx_HAL_Driver/Src/stm32g0xx_hal_pwr_ex.c ****   * @param  GPIO Specify the IO port. This parameter can be PWR_GPIO_A..PWR_GPIO_F
 574:Drivers/STM32G0xx_HAL_Driver/Src/stm32g0xx_hal_pwr_ex.c ****   *         to select the GPIO peripheral.
 575:Drivers/STM32G0xx_HAL_Driver/Src/stm32g0xx_hal_pwr_ex.c ****   * @param  GPIONumber Specify the I/O pins numbers.
 576:Drivers/STM32G0xx_HAL_Driver/Src/stm32g0xx_hal_pwr_ex.c ****   *         This parameter can be one of the following values:
 577:Drivers/STM32G0xx_HAL_Driver/Src/stm32g0xx_hal_pwr_ex.c ****   *         PWR_GPIO_BIT_0, ..., PWR_GPIO_BIT_15 (except for ports where less
 578:Drivers/STM32G0xx_HAL_Driver/Src/stm32g0xx_hal_pwr_ex.c ****   *         I/O pins are available) or the logical OR of several of them to set
 579:Drivers/STM32G0xx_HAL_Driver/Src/stm32g0xx_hal_pwr_ex.c ****   *         several bits for a given port in a single API call.
 580:Drivers/STM32G0xx_HAL_Driver/Src/stm32g0xx_hal_pwr_ex.c ****   * @retval HAL Status
 581:Drivers/STM32G0xx_HAL_Driver/Src/stm32g0xx_hal_pwr_ex.c ****   */
 582:Drivers/STM32G0xx_HAL_Driver/Src/stm32g0xx_hal_pwr_ex.c **** HAL_StatusTypeDef HAL_PWREx_EnableGPIOPullDown(uint32_t GPIO, uint32_t GPIONumber)
 583:Drivers/STM32G0xx_HAL_Driver/Src/stm32g0xx_hal_pwr_ex.c **** {
 1033              		.loc 1 583 1 is_stmt 1 view -0
 1034              		.cfi_startproc
 1035              		@ args = 0, pretend = 0, frame = 0
 1036              		@ frame_needed = 0, uses_anonymous_args = 0
 1037              		@ link register save eliminated.
 584:Drivers/STM32G0xx_HAL_Driver/Src/stm32g0xx_hal_pwr_ex.c ****   HAL_StatusTypeDef status = HAL_OK;
 1038              		.loc 1 584 3 view .LVU188
 585:Drivers/STM32G0xx_HAL_Driver/Src/stm32g0xx_hal_pwr_ex.c **** 
 586:Drivers/STM32G0xx_HAL_Driver/Src/stm32g0xx_hal_pwr_ex.c ****   assert_param(IS_PWR_GPIO(GPIO));
 1039              		.loc 1 586 3 view .LVU189
 587:Drivers/STM32G0xx_HAL_Driver/Src/stm32g0xx_hal_pwr_ex.c ****   assert_param(IS_PWR_GPIO_BIT_NUMBER(GPIONumber));
 1040              		.loc 1 587 3 view .LVU190
 588:Drivers/STM32G0xx_HAL_Driver/Src/stm32g0xx_hal_pwr_ex.c **** 
 589:Drivers/STM32G0xx_HAL_Driver/Src/stm32g0xx_hal_pwr_ex.c ****   switch (GPIO)
 1041              		.loc 1 589 3 view .LVU191
 1042 0000 0528     		cmp	r0, #5
 1043 0002 3DD8     		bhi	.L99
 1044 0004 8000     		lsls	r0, r0, #2
 1045              	.LVL26:
 1046              		.loc 1 589 3 is_stmt 0 view .LVU192
 1047 0006 1F4B     		ldr	r3, .L100
 1048 0008 1B58     		ldr	r3, [r3, r0]
 1049 000a 9F46     		mov	pc, r3
 1050              		.section	.rodata.HAL_PWREx_EnableGPIOPullDown,"a",%progbits
 1051              		.align	2
 1052              	.L93:
ARM GAS  /tmp/ccqDTMd2.s 			page 30


 1053 0000 0C000000 		.word	.L98
 1054 0004 26000000 		.word	.L97
 1055 0008 38000000 		.word	.L96
 1056 000c 4A000000 		.word	.L95
 1057 0010 5C000000 		.word	.L94
 1058 0014 6E000000 		.word	.L92
 1059              		.section	.text.HAL_PWREx_EnableGPIOPullDown
 1060              	.L98:
 590:Drivers/STM32G0xx_HAL_Driver/Src/stm32g0xx_hal_pwr_ex.c ****   {
 591:Drivers/STM32G0xx_HAL_Driver/Src/stm32g0xx_hal_pwr_ex.c ****     case PWR_GPIO_A:
 592:Drivers/STM32G0xx_HAL_Driver/Src/stm32g0xx_hal_pwr_ex.c ****       SET_BIT(PWR->PDCRA, (GPIONumber & ~PWR_GPIO_BIT_13));
 1061              		.loc 1 592 7 is_stmt 1 view .LVU193
 1062 000c 1E4B     		ldr	r3, .L100+4
 1063 000e 5A6A     		ldr	r2, [r3, #36]
 1064 0010 1E48     		ldr	r0, .L100+8
 1065 0012 0840     		ands	r0, r1
 1066 0014 0243     		orrs	r2, r0
 1067 0016 5A62     		str	r2, [r3, #36]
 593:Drivers/STM32G0xx_HAL_Driver/Src/stm32g0xx_hal_pwr_ex.c ****       CLEAR_BIT(PWR->PUCRA, (GPIONumber & ~PWR_GPIO_BIT_14));
 1068              		.loc 1 593 7 view .LVU194
 1069 0018 1A6A     		ldr	r2, [r3, #32]
 1070 001a 1D48     		ldr	r0, .L100+12
 1071 001c 0140     		ands	r1, r0
 1072              	.LVL27:
 1073              		.loc 1 593 7 is_stmt 0 view .LVU195
 1074 001e 8A43     		bics	r2, r1
 1075 0020 1A62     		str	r2, [r3, #32]
 594:Drivers/STM32G0xx_HAL_Driver/Src/stm32g0xx_hal_pwr_ex.c ****       break;
 1076              		.loc 1 594 7 is_stmt 1 view .LVU196
 584:Drivers/STM32G0xx_HAL_Driver/Src/stm32g0xx_hal_pwr_ex.c **** 
 1077              		.loc 1 584 21 is_stmt 0 view .LVU197
 1078 0022 0020     		movs	r0, #0
 1079              	.L91:
 1080              	.LVL28:
 595:Drivers/STM32G0xx_HAL_Driver/Src/stm32g0xx_hal_pwr_ex.c **** 
 596:Drivers/STM32G0xx_HAL_Driver/Src/stm32g0xx_hal_pwr_ex.c ****     case PWR_GPIO_B:
 597:Drivers/STM32G0xx_HAL_Driver/Src/stm32g0xx_hal_pwr_ex.c ****       SET_BIT(PWR->PDCRB, GPIONumber);
 598:Drivers/STM32G0xx_HAL_Driver/Src/stm32g0xx_hal_pwr_ex.c ****       CLEAR_BIT(PWR->PUCRB, GPIONumber);
 599:Drivers/STM32G0xx_HAL_Driver/Src/stm32g0xx_hal_pwr_ex.c ****       break;
 600:Drivers/STM32G0xx_HAL_Driver/Src/stm32g0xx_hal_pwr_ex.c **** 
 601:Drivers/STM32G0xx_HAL_Driver/Src/stm32g0xx_hal_pwr_ex.c ****     case PWR_GPIO_C:
 602:Drivers/STM32G0xx_HAL_Driver/Src/stm32g0xx_hal_pwr_ex.c ****       SET_BIT(PWR->PDCRC, GPIONumber);
 603:Drivers/STM32G0xx_HAL_Driver/Src/stm32g0xx_hal_pwr_ex.c ****       CLEAR_BIT(PWR->PUCRC, GPIONumber);
 604:Drivers/STM32G0xx_HAL_Driver/Src/stm32g0xx_hal_pwr_ex.c ****       break;
 605:Drivers/STM32G0xx_HAL_Driver/Src/stm32g0xx_hal_pwr_ex.c **** 
 606:Drivers/STM32G0xx_HAL_Driver/Src/stm32g0xx_hal_pwr_ex.c ****     case PWR_GPIO_D:
 607:Drivers/STM32G0xx_HAL_Driver/Src/stm32g0xx_hal_pwr_ex.c ****       SET_BIT(PWR->PDCRD, GPIONumber);
 608:Drivers/STM32G0xx_HAL_Driver/Src/stm32g0xx_hal_pwr_ex.c ****       CLEAR_BIT(PWR->PUCRD, GPIONumber);
 609:Drivers/STM32G0xx_HAL_Driver/Src/stm32g0xx_hal_pwr_ex.c ****       break;
 610:Drivers/STM32G0xx_HAL_Driver/Src/stm32g0xx_hal_pwr_ex.c **** 
 611:Drivers/STM32G0xx_HAL_Driver/Src/stm32g0xx_hal_pwr_ex.c **** #if defined(GPIOE)
 612:Drivers/STM32G0xx_HAL_Driver/Src/stm32g0xx_hal_pwr_ex.c ****     case PWR_GPIO_E:
 613:Drivers/STM32G0xx_HAL_Driver/Src/stm32g0xx_hal_pwr_ex.c ****       SET_BIT(PWR->PDCRE, GPIONumber);
 614:Drivers/STM32G0xx_HAL_Driver/Src/stm32g0xx_hal_pwr_ex.c ****       CLEAR_BIT(PWR->PUCRE, GPIONumber);
 615:Drivers/STM32G0xx_HAL_Driver/Src/stm32g0xx_hal_pwr_ex.c ****       break;
 616:Drivers/STM32G0xx_HAL_Driver/Src/stm32g0xx_hal_pwr_ex.c **** #endif /* GPI0E */
 617:Drivers/STM32G0xx_HAL_Driver/Src/stm32g0xx_hal_pwr_ex.c ****     case PWR_GPIO_F:
ARM GAS  /tmp/ccqDTMd2.s 			page 31


 618:Drivers/STM32G0xx_HAL_Driver/Src/stm32g0xx_hal_pwr_ex.c ****       SET_BIT(PWR->PDCRF, GPIONumber);
 619:Drivers/STM32G0xx_HAL_Driver/Src/stm32g0xx_hal_pwr_ex.c ****       CLEAR_BIT(PWR->PUCRF, GPIONumber);
 620:Drivers/STM32G0xx_HAL_Driver/Src/stm32g0xx_hal_pwr_ex.c ****       break;
 621:Drivers/STM32G0xx_HAL_Driver/Src/stm32g0xx_hal_pwr_ex.c **** 
 622:Drivers/STM32G0xx_HAL_Driver/Src/stm32g0xx_hal_pwr_ex.c ****     default:
 623:Drivers/STM32G0xx_HAL_Driver/Src/stm32g0xx_hal_pwr_ex.c ****       status = HAL_ERROR;
 624:Drivers/STM32G0xx_HAL_Driver/Src/stm32g0xx_hal_pwr_ex.c ****       break;
 625:Drivers/STM32G0xx_HAL_Driver/Src/stm32g0xx_hal_pwr_ex.c ****   }
 626:Drivers/STM32G0xx_HAL_Driver/Src/stm32g0xx_hal_pwr_ex.c **** 
 627:Drivers/STM32G0xx_HAL_Driver/Src/stm32g0xx_hal_pwr_ex.c ****   return status;
 1081              		.loc 1 627 3 is_stmt 1 view .LVU198
 628:Drivers/STM32G0xx_HAL_Driver/Src/stm32g0xx_hal_pwr_ex.c **** }
 1082              		.loc 1 628 1 is_stmt 0 view .LVU199
 1083              		@ sp needed
 1084 0024 7047     		bx	lr
 1085              	.LVL29:
 1086              	.L97:
 597:Drivers/STM32G0xx_HAL_Driver/Src/stm32g0xx_hal_pwr_ex.c ****       CLEAR_BIT(PWR->PUCRB, GPIONumber);
 1087              		.loc 1 597 7 is_stmt 1 view .LVU200
 1088 0026 184B     		ldr	r3, .L100+4
 1089 0028 DA6A     		ldr	r2, [r3, #44]
 1090 002a 0A43     		orrs	r2, r1
 1091 002c DA62     		str	r2, [r3, #44]
 598:Drivers/STM32G0xx_HAL_Driver/Src/stm32g0xx_hal_pwr_ex.c ****       break;
 1092              		.loc 1 598 7 view .LVU201
 1093 002e 9A6A     		ldr	r2, [r3, #40]
 1094 0030 8A43     		bics	r2, r1
 1095 0032 9A62     		str	r2, [r3, #40]
 599:Drivers/STM32G0xx_HAL_Driver/Src/stm32g0xx_hal_pwr_ex.c **** 
 1096              		.loc 1 599 7 view .LVU202
 584:Drivers/STM32G0xx_HAL_Driver/Src/stm32g0xx_hal_pwr_ex.c **** 
 1097              		.loc 1 584 21 is_stmt 0 view .LVU203
 1098 0034 0020     		movs	r0, #0
 599:Drivers/STM32G0xx_HAL_Driver/Src/stm32g0xx_hal_pwr_ex.c **** 
 1099              		.loc 1 599 7 view .LVU204
 1100 0036 F5E7     		b	.L91
 1101              	.L96:
 602:Drivers/STM32G0xx_HAL_Driver/Src/stm32g0xx_hal_pwr_ex.c ****       CLEAR_BIT(PWR->PUCRC, GPIONumber);
 1102              		.loc 1 602 7 is_stmt 1 view .LVU205
 1103 0038 134B     		ldr	r3, .L100+4
 1104 003a 5A6B     		ldr	r2, [r3, #52]
 1105 003c 0A43     		orrs	r2, r1
 1106 003e 5A63     		str	r2, [r3, #52]
 603:Drivers/STM32G0xx_HAL_Driver/Src/stm32g0xx_hal_pwr_ex.c ****       break;
 1107              		.loc 1 603 7 view .LVU206
 1108 0040 1A6B     		ldr	r2, [r3, #48]
 1109 0042 8A43     		bics	r2, r1
 1110 0044 1A63     		str	r2, [r3, #48]
 604:Drivers/STM32G0xx_HAL_Driver/Src/stm32g0xx_hal_pwr_ex.c **** 
 1111              		.loc 1 604 7 view .LVU207
 584:Drivers/STM32G0xx_HAL_Driver/Src/stm32g0xx_hal_pwr_ex.c **** 
 1112              		.loc 1 584 21 is_stmt 0 view .LVU208
 1113 0046 0020     		movs	r0, #0
 604:Drivers/STM32G0xx_HAL_Driver/Src/stm32g0xx_hal_pwr_ex.c **** 
 1114              		.loc 1 604 7 view .LVU209
 1115 0048 ECE7     		b	.L91
 1116              	.L95:
ARM GAS  /tmp/ccqDTMd2.s 			page 32


 607:Drivers/STM32G0xx_HAL_Driver/Src/stm32g0xx_hal_pwr_ex.c ****       CLEAR_BIT(PWR->PUCRD, GPIONumber);
 1117              		.loc 1 607 7 is_stmt 1 view .LVU210
 1118 004a 0F4B     		ldr	r3, .L100+4
 1119 004c DA6B     		ldr	r2, [r3, #60]
 1120 004e 0A43     		orrs	r2, r1
 1121 0050 DA63     		str	r2, [r3, #60]
 608:Drivers/STM32G0xx_HAL_Driver/Src/stm32g0xx_hal_pwr_ex.c ****       break;
 1122              		.loc 1 608 7 view .LVU211
 1123 0052 9A6B     		ldr	r2, [r3, #56]
 1124 0054 8A43     		bics	r2, r1
 1125 0056 9A63     		str	r2, [r3, #56]
 609:Drivers/STM32G0xx_HAL_Driver/Src/stm32g0xx_hal_pwr_ex.c **** 
 1126              		.loc 1 609 7 view .LVU212
 584:Drivers/STM32G0xx_HAL_Driver/Src/stm32g0xx_hal_pwr_ex.c **** 
 1127              		.loc 1 584 21 is_stmt 0 view .LVU213
 1128 0058 0020     		movs	r0, #0
 609:Drivers/STM32G0xx_HAL_Driver/Src/stm32g0xx_hal_pwr_ex.c **** 
 1129              		.loc 1 609 7 view .LVU214
 1130 005a E3E7     		b	.L91
 1131              	.L94:
 613:Drivers/STM32G0xx_HAL_Driver/Src/stm32g0xx_hal_pwr_ex.c ****       CLEAR_BIT(PWR->PUCRE, GPIONumber);
 1132              		.loc 1 613 7 is_stmt 1 view .LVU215
 1133 005c 0A4B     		ldr	r3, .L100+4
 1134 005e 5A6C     		ldr	r2, [r3, #68]
 1135 0060 0A43     		orrs	r2, r1
 1136 0062 5A64     		str	r2, [r3, #68]
 614:Drivers/STM32G0xx_HAL_Driver/Src/stm32g0xx_hal_pwr_ex.c ****       break;
 1137              		.loc 1 614 7 view .LVU216
 1138 0064 1A6C     		ldr	r2, [r3, #64]
 1139 0066 8A43     		bics	r2, r1
 1140 0068 1A64     		str	r2, [r3, #64]
 615:Drivers/STM32G0xx_HAL_Driver/Src/stm32g0xx_hal_pwr_ex.c **** #endif /* GPI0E */
 1141              		.loc 1 615 7 view .LVU217
 584:Drivers/STM32G0xx_HAL_Driver/Src/stm32g0xx_hal_pwr_ex.c **** 
 1142              		.loc 1 584 21 is_stmt 0 view .LVU218
 1143 006a 0020     		movs	r0, #0
 615:Drivers/STM32G0xx_HAL_Driver/Src/stm32g0xx_hal_pwr_ex.c **** #endif /* GPI0E */
 1144              		.loc 1 615 7 view .LVU219
 1145 006c DAE7     		b	.L91
 1146              	.L92:
 618:Drivers/STM32G0xx_HAL_Driver/Src/stm32g0xx_hal_pwr_ex.c ****       CLEAR_BIT(PWR->PUCRF, GPIONumber);
 1147              		.loc 1 618 7 is_stmt 1 view .LVU220
 1148 006e 064B     		ldr	r3, .L100+4
 1149 0070 DA6C     		ldr	r2, [r3, #76]
 1150 0072 0A43     		orrs	r2, r1
 1151 0074 DA64     		str	r2, [r3, #76]
 619:Drivers/STM32G0xx_HAL_Driver/Src/stm32g0xx_hal_pwr_ex.c ****       break;
 1152              		.loc 1 619 7 view .LVU221
 1153 0076 9A6C     		ldr	r2, [r3, #72]
 1154 0078 8A43     		bics	r2, r1
 1155 007a 9A64     		str	r2, [r3, #72]
 620:Drivers/STM32G0xx_HAL_Driver/Src/stm32g0xx_hal_pwr_ex.c **** 
 1156              		.loc 1 620 7 view .LVU222
 584:Drivers/STM32G0xx_HAL_Driver/Src/stm32g0xx_hal_pwr_ex.c **** 
 1157              		.loc 1 584 21 is_stmt 0 view .LVU223
 1158 007c 0020     		movs	r0, #0
 620:Drivers/STM32G0xx_HAL_Driver/Src/stm32g0xx_hal_pwr_ex.c **** 
ARM GAS  /tmp/ccqDTMd2.s 			page 33


 1159              		.loc 1 620 7 view .LVU224
 1160 007e D1E7     		b	.L91
 1161              	.LVL30:
 1162              	.L99:
 589:Drivers/STM32G0xx_HAL_Driver/Src/stm32g0xx_hal_pwr_ex.c ****   {
 1163              		.loc 1 589 3 view .LVU225
 1164 0080 0120     		movs	r0, #1
 1165              	.LVL31:
 589:Drivers/STM32G0xx_HAL_Driver/Src/stm32g0xx_hal_pwr_ex.c ****   {
 1166              		.loc 1 589 3 view .LVU226
 1167 0082 CFE7     		b	.L91
 1168              	.L101:
 1169              		.align	2
 1170              	.L100:
 1171 0084 00000000 		.word	.L93
 1172 0088 00700040 		.word	1073770496
 1173 008c FFDFFFFF 		.word	-8193
 1174 0090 FFBFFFFF 		.word	-16385
 1175              		.cfi_endproc
 1176              	.LFE384:
 1178              		.section	.text.HAL_PWREx_DisableGPIOPullDown,"ax",%progbits
 1179              		.align	1
 1180              		.global	HAL_PWREx_DisableGPIOPullDown
 1181              		.syntax unified
 1182              		.code	16
 1183              		.thumb_func
 1185              	HAL_PWREx_DisableGPIOPullDown:
 1186              	.LVL32:
 1187              	.LFB385:
 629:Drivers/STM32G0xx_HAL_Driver/Src/stm32g0xx_hal_pwr_ex.c **** 
 630:Drivers/STM32G0xx_HAL_Driver/Src/stm32g0xx_hal_pwr_ex.c **** 
 631:Drivers/STM32G0xx_HAL_Driver/Src/stm32g0xx_hal_pwr_ex.c **** /**
 632:Drivers/STM32G0xx_HAL_Driver/Src/stm32g0xx_hal_pwr_ex.c ****   * @brief  Disable GPIO pull-down state in Standby and Shutdown modes.
 633:Drivers/STM32G0xx_HAL_Driver/Src/stm32g0xx_hal_pwr_ex.c ****   * @note   Reset the relevant PDy bit of PWR_PDCRx register used to configure the I/O
 634:Drivers/STM32G0xx_HAL_Driver/Src/stm32g0xx_hal_pwr_ex.c ****   *         in pull-down state in Standby and Shutdown modes.
 635:Drivers/STM32G0xx_HAL_Driver/Src/stm32g0xx_hal_pwr_ex.c ****   * @param  GPIO Specifies the IO port. This parameter can be PWR_GPIO_A..PWR_GPIO_F
 636:Drivers/STM32G0xx_HAL_Driver/Src/stm32g0xx_hal_pwr_ex.c ****   *         to select the GPIO peripheral.
 637:Drivers/STM32G0xx_HAL_Driver/Src/stm32g0xx_hal_pwr_ex.c ****   * @param  GPIONumber Specify the I/O pins numbers.
 638:Drivers/STM32G0xx_HAL_Driver/Src/stm32g0xx_hal_pwr_ex.c ****   *         This parameter can be one of the following values:
 639:Drivers/STM32G0xx_HAL_Driver/Src/stm32g0xx_hal_pwr_ex.c ****   *         PWR_GPIO_BIT_0, ..., PWR_GPIO_BIT_15 (except for ports where less
 640:Drivers/STM32G0xx_HAL_Driver/Src/stm32g0xx_hal_pwr_ex.c ****   *         I/O pins are available) or the logical OR of several of them to reset
 641:Drivers/STM32G0xx_HAL_Driver/Src/stm32g0xx_hal_pwr_ex.c ****   *         several bits for a given port in a single API call.
 642:Drivers/STM32G0xx_HAL_Driver/Src/stm32g0xx_hal_pwr_ex.c ****   * @retval HAL Status
 643:Drivers/STM32G0xx_HAL_Driver/Src/stm32g0xx_hal_pwr_ex.c ****   */
 644:Drivers/STM32G0xx_HAL_Driver/Src/stm32g0xx_hal_pwr_ex.c **** HAL_StatusTypeDef HAL_PWREx_DisableGPIOPullDown(uint32_t GPIO, uint32_t GPIONumber)
 645:Drivers/STM32G0xx_HAL_Driver/Src/stm32g0xx_hal_pwr_ex.c **** {
 1188              		.loc 1 645 1 is_stmt 1 view -0
 1189              		.cfi_startproc
 1190              		@ args = 0, pretend = 0, frame = 0
 1191              		@ frame_needed = 0, uses_anonymous_args = 0
 1192              		@ link register save eliminated.
 646:Drivers/STM32G0xx_HAL_Driver/Src/stm32g0xx_hal_pwr_ex.c ****   HAL_StatusTypeDef status = HAL_OK;
 1193              		.loc 1 646 3 view .LVU228
 647:Drivers/STM32G0xx_HAL_Driver/Src/stm32g0xx_hal_pwr_ex.c **** 
 648:Drivers/STM32G0xx_HAL_Driver/Src/stm32g0xx_hal_pwr_ex.c ****   assert_param(IS_PWR_GPIO(GPIO));
 1194              		.loc 1 648 3 view .LVU229
 649:Drivers/STM32G0xx_HAL_Driver/Src/stm32g0xx_hal_pwr_ex.c ****   assert_param(IS_PWR_GPIO_BIT_NUMBER(GPIONumber));
ARM GAS  /tmp/ccqDTMd2.s 			page 34


 1195              		.loc 1 649 3 view .LVU230
 650:Drivers/STM32G0xx_HAL_Driver/Src/stm32g0xx_hal_pwr_ex.c **** 
 651:Drivers/STM32G0xx_HAL_Driver/Src/stm32g0xx_hal_pwr_ex.c ****   switch (GPIO)
 1196              		.loc 1 651 3 view .LVU231
 1197 0000 0528     		cmp	r0, #5
 1198 0002 29D8     		bhi	.L111
 1199 0004 8000     		lsls	r0, r0, #2
 1200              	.LVL33:
 1201              		.loc 1 651 3 is_stmt 0 view .LVU232
 1202 0006 154B     		ldr	r3, .L112
 1203 0008 1B58     		ldr	r3, [r3, r0]
 1204 000a 9F46     		mov	pc, r3
 1205              		.section	.rodata.HAL_PWREx_DisableGPIOPullDown,"a",%progbits
 1206              		.align	2
 1207              	.L105:
 1208 0000 0C000000 		.word	.L110
 1209 0004 1C000000 		.word	.L109
 1210 0008 28000000 		.word	.L108
 1211 000c 34000000 		.word	.L107
 1212 0010 40000000 		.word	.L106
 1213 0014 4C000000 		.word	.L104
 1214              		.section	.text.HAL_PWREx_DisableGPIOPullDown
 1215              	.L110:
 652:Drivers/STM32G0xx_HAL_Driver/Src/stm32g0xx_hal_pwr_ex.c ****   {
 653:Drivers/STM32G0xx_HAL_Driver/Src/stm32g0xx_hal_pwr_ex.c ****     case PWR_GPIO_A:
 654:Drivers/STM32G0xx_HAL_Driver/Src/stm32g0xx_hal_pwr_ex.c ****       CLEAR_BIT(PWR->PDCRA, (GPIONumber & ~PWR_GPIO_BIT_13));
 1216              		.loc 1 654 7 is_stmt 1 view .LVU233
 1217 000c 1448     		ldr	r0, .L112+4
 1218 000e 436A     		ldr	r3, [r0, #36]
 1219 0010 144A     		ldr	r2, .L112+8
 1220 0012 0A40     		ands	r2, r1
 1221 0014 9343     		bics	r3, r2
 1222 0016 4362     		str	r3, [r0, #36]
 655:Drivers/STM32G0xx_HAL_Driver/Src/stm32g0xx_hal_pwr_ex.c ****       break;
 1223              		.loc 1 655 7 view .LVU234
 646:Drivers/STM32G0xx_HAL_Driver/Src/stm32g0xx_hal_pwr_ex.c **** 
 1224              		.loc 1 646 21 is_stmt 0 view .LVU235
 1225 0018 0020     		movs	r0, #0
 1226              	.L103:
 1227              	.LVL34:
 656:Drivers/STM32G0xx_HAL_Driver/Src/stm32g0xx_hal_pwr_ex.c **** 
 657:Drivers/STM32G0xx_HAL_Driver/Src/stm32g0xx_hal_pwr_ex.c ****     case PWR_GPIO_B:
 658:Drivers/STM32G0xx_HAL_Driver/Src/stm32g0xx_hal_pwr_ex.c ****       CLEAR_BIT(PWR->PDCRB, GPIONumber);
 659:Drivers/STM32G0xx_HAL_Driver/Src/stm32g0xx_hal_pwr_ex.c ****       break;
 660:Drivers/STM32G0xx_HAL_Driver/Src/stm32g0xx_hal_pwr_ex.c **** 
 661:Drivers/STM32G0xx_HAL_Driver/Src/stm32g0xx_hal_pwr_ex.c ****     case PWR_GPIO_C:
 662:Drivers/STM32G0xx_HAL_Driver/Src/stm32g0xx_hal_pwr_ex.c ****       CLEAR_BIT(PWR->PDCRC, GPIONumber);
 663:Drivers/STM32G0xx_HAL_Driver/Src/stm32g0xx_hal_pwr_ex.c ****       break;
 664:Drivers/STM32G0xx_HAL_Driver/Src/stm32g0xx_hal_pwr_ex.c **** 
 665:Drivers/STM32G0xx_HAL_Driver/Src/stm32g0xx_hal_pwr_ex.c ****     case PWR_GPIO_D:
 666:Drivers/STM32G0xx_HAL_Driver/Src/stm32g0xx_hal_pwr_ex.c ****       CLEAR_BIT(PWR->PDCRD, GPIONumber);
 667:Drivers/STM32G0xx_HAL_Driver/Src/stm32g0xx_hal_pwr_ex.c ****       break;
 668:Drivers/STM32G0xx_HAL_Driver/Src/stm32g0xx_hal_pwr_ex.c **** 
 669:Drivers/STM32G0xx_HAL_Driver/Src/stm32g0xx_hal_pwr_ex.c **** #if defined(GPIOE)
 670:Drivers/STM32G0xx_HAL_Driver/Src/stm32g0xx_hal_pwr_ex.c ****     case PWR_GPIO_E:
 671:Drivers/STM32G0xx_HAL_Driver/Src/stm32g0xx_hal_pwr_ex.c ****       CLEAR_BIT(PWR->PDCRE, GPIONumber);
 672:Drivers/STM32G0xx_HAL_Driver/Src/stm32g0xx_hal_pwr_ex.c ****       break;
ARM GAS  /tmp/ccqDTMd2.s 			page 35


 673:Drivers/STM32G0xx_HAL_Driver/Src/stm32g0xx_hal_pwr_ex.c **** #endif /* GPI0E */
 674:Drivers/STM32G0xx_HAL_Driver/Src/stm32g0xx_hal_pwr_ex.c ****     case PWR_GPIO_F:
 675:Drivers/STM32G0xx_HAL_Driver/Src/stm32g0xx_hal_pwr_ex.c ****       CLEAR_BIT(PWR->PDCRF, GPIONumber);
 676:Drivers/STM32G0xx_HAL_Driver/Src/stm32g0xx_hal_pwr_ex.c ****       break;
 677:Drivers/STM32G0xx_HAL_Driver/Src/stm32g0xx_hal_pwr_ex.c **** 
 678:Drivers/STM32G0xx_HAL_Driver/Src/stm32g0xx_hal_pwr_ex.c ****     default:
 679:Drivers/STM32G0xx_HAL_Driver/Src/stm32g0xx_hal_pwr_ex.c ****       status = HAL_ERROR;
 680:Drivers/STM32G0xx_HAL_Driver/Src/stm32g0xx_hal_pwr_ex.c ****       break;
 681:Drivers/STM32G0xx_HAL_Driver/Src/stm32g0xx_hal_pwr_ex.c ****   }
 682:Drivers/STM32G0xx_HAL_Driver/Src/stm32g0xx_hal_pwr_ex.c **** 
 683:Drivers/STM32G0xx_HAL_Driver/Src/stm32g0xx_hal_pwr_ex.c ****   return status;
 1228              		.loc 1 683 3 is_stmt 1 view .LVU236
 684:Drivers/STM32G0xx_HAL_Driver/Src/stm32g0xx_hal_pwr_ex.c **** }
 1229              		.loc 1 684 1 is_stmt 0 view .LVU237
 1230              		@ sp needed
 1231 001a 7047     		bx	lr
 1232              	.LVL35:
 1233              	.L109:
 658:Drivers/STM32G0xx_HAL_Driver/Src/stm32g0xx_hal_pwr_ex.c ****       break;
 1234              		.loc 1 658 7 is_stmt 1 view .LVU238
 1235 001c 104A     		ldr	r2, .L112+4
 1236 001e D36A     		ldr	r3, [r2, #44]
 1237 0020 8B43     		bics	r3, r1
 1238 0022 D362     		str	r3, [r2, #44]
 659:Drivers/STM32G0xx_HAL_Driver/Src/stm32g0xx_hal_pwr_ex.c **** 
 1239              		.loc 1 659 7 view .LVU239
 646:Drivers/STM32G0xx_HAL_Driver/Src/stm32g0xx_hal_pwr_ex.c **** 
 1240              		.loc 1 646 21 is_stmt 0 view .LVU240
 1241 0024 0020     		movs	r0, #0
 659:Drivers/STM32G0xx_HAL_Driver/Src/stm32g0xx_hal_pwr_ex.c **** 
 1242              		.loc 1 659 7 view .LVU241
 1243 0026 F8E7     		b	.L103
 1244              	.L108:
 662:Drivers/STM32G0xx_HAL_Driver/Src/stm32g0xx_hal_pwr_ex.c ****       break;
 1245              		.loc 1 662 7 is_stmt 1 view .LVU242
 1246 0028 0D4A     		ldr	r2, .L112+4
 1247 002a 536B     		ldr	r3, [r2, #52]
 1248 002c 8B43     		bics	r3, r1
 1249 002e 5363     		str	r3, [r2, #52]
 663:Drivers/STM32G0xx_HAL_Driver/Src/stm32g0xx_hal_pwr_ex.c **** 
 1250              		.loc 1 663 7 view .LVU243
 646:Drivers/STM32G0xx_HAL_Driver/Src/stm32g0xx_hal_pwr_ex.c **** 
 1251              		.loc 1 646 21 is_stmt 0 view .LVU244
 1252 0030 0020     		movs	r0, #0
 663:Drivers/STM32G0xx_HAL_Driver/Src/stm32g0xx_hal_pwr_ex.c **** 
 1253              		.loc 1 663 7 view .LVU245
 1254 0032 F2E7     		b	.L103
 1255              	.L107:
 666:Drivers/STM32G0xx_HAL_Driver/Src/stm32g0xx_hal_pwr_ex.c ****       break;
 1256              		.loc 1 666 7 is_stmt 1 view .LVU246
 1257 0034 0A4A     		ldr	r2, .L112+4
 1258 0036 D36B     		ldr	r3, [r2, #60]
 1259 0038 8B43     		bics	r3, r1
 1260 003a D363     		str	r3, [r2, #60]
 667:Drivers/STM32G0xx_HAL_Driver/Src/stm32g0xx_hal_pwr_ex.c **** 
 1261              		.loc 1 667 7 view .LVU247
 646:Drivers/STM32G0xx_HAL_Driver/Src/stm32g0xx_hal_pwr_ex.c **** 
ARM GAS  /tmp/ccqDTMd2.s 			page 36


 1262              		.loc 1 646 21 is_stmt 0 view .LVU248
 1263 003c 0020     		movs	r0, #0
 667:Drivers/STM32G0xx_HAL_Driver/Src/stm32g0xx_hal_pwr_ex.c **** 
 1264              		.loc 1 667 7 view .LVU249
 1265 003e ECE7     		b	.L103
 1266              	.L106:
 671:Drivers/STM32G0xx_HAL_Driver/Src/stm32g0xx_hal_pwr_ex.c ****       break;
 1267              		.loc 1 671 7 is_stmt 1 view .LVU250
 1268 0040 074A     		ldr	r2, .L112+4
 1269 0042 536C     		ldr	r3, [r2, #68]
 1270 0044 8B43     		bics	r3, r1
 1271 0046 5364     		str	r3, [r2, #68]
 672:Drivers/STM32G0xx_HAL_Driver/Src/stm32g0xx_hal_pwr_ex.c **** #endif /* GPI0E */
 1272              		.loc 1 672 7 view .LVU251
 646:Drivers/STM32G0xx_HAL_Driver/Src/stm32g0xx_hal_pwr_ex.c **** 
 1273              		.loc 1 646 21 is_stmt 0 view .LVU252
 1274 0048 0020     		movs	r0, #0
 672:Drivers/STM32G0xx_HAL_Driver/Src/stm32g0xx_hal_pwr_ex.c **** #endif /* GPI0E */
 1275              		.loc 1 672 7 view .LVU253
 1276 004a E6E7     		b	.L103
 1277              	.L104:
 675:Drivers/STM32G0xx_HAL_Driver/Src/stm32g0xx_hal_pwr_ex.c ****       break;
 1278              		.loc 1 675 7 is_stmt 1 view .LVU254
 1279 004c 044A     		ldr	r2, .L112+4
 1280 004e D36C     		ldr	r3, [r2, #76]
 1281 0050 8B43     		bics	r3, r1
 1282 0052 D364     		str	r3, [r2, #76]
 676:Drivers/STM32G0xx_HAL_Driver/Src/stm32g0xx_hal_pwr_ex.c **** 
 1283              		.loc 1 676 7 view .LVU255
 646:Drivers/STM32G0xx_HAL_Driver/Src/stm32g0xx_hal_pwr_ex.c **** 
 1284              		.loc 1 646 21 is_stmt 0 view .LVU256
 1285 0054 0020     		movs	r0, #0
 676:Drivers/STM32G0xx_HAL_Driver/Src/stm32g0xx_hal_pwr_ex.c **** 
 1286              		.loc 1 676 7 view .LVU257
 1287 0056 E0E7     		b	.L103
 1288              	.LVL36:
 1289              	.L111:
 651:Drivers/STM32G0xx_HAL_Driver/Src/stm32g0xx_hal_pwr_ex.c ****   {
 1290              		.loc 1 651 3 view .LVU258
 1291 0058 0120     		movs	r0, #1
 1292              	.LVL37:
 651:Drivers/STM32G0xx_HAL_Driver/Src/stm32g0xx_hal_pwr_ex.c ****   {
 1293              		.loc 1 651 3 view .LVU259
 1294 005a DEE7     		b	.L103
 1295              	.L113:
 1296              		.align	2
 1297              	.L112:
 1298 005c 00000000 		.word	.L105
 1299 0060 00700040 		.word	1073770496
 1300 0064 FFDFFFFF 		.word	-8193
 1301              		.cfi_endproc
 1302              	.LFE385:
 1304              		.section	.text.HAL_PWREx_EnablePullUpPullDownConfig,"ax",%progbits
 1305              		.align	1
 1306              		.global	HAL_PWREx_EnablePullUpPullDownConfig
 1307              		.syntax unified
 1308              		.code	16
ARM GAS  /tmp/ccqDTMd2.s 			page 37


 1309              		.thumb_func
 1311              	HAL_PWREx_EnablePullUpPullDownConfig:
 1312              	.LFB386:
 685:Drivers/STM32G0xx_HAL_Driver/Src/stm32g0xx_hal_pwr_ex.c **** 
 686:Drivers/STM32G0xx_HAL_Driver/Src/stm32g0xx_hal_pwr_ex.c **** 
 687:Drivers/STM32G0xx_HAL_Driver/Src/stm32g0xx_hal_pwr_ex.c **** /**
 688:Drivers/STM32G0xx_HAL_Driver/Src/stm32g0xx_hal_pwr_ex.c ****   * @brief  Enable pull-up and pull-down configuration.
 689:Drivers/STM32G0xx_HAL_Driver/Src/stm32g0xx_hal_pwr_ex.c ****   * @note   When APC bit is set, the I/O pull-up and pull-down configurations defined in
 690:Drivers/STM32G0xx_HAL_Driver/Src/stm32g0xx_hal_pwr_ex.c ****   *         PWR_PUCRx and PWR_PDCRx registers are applied in Standby and Shutdown modes.
 691:Drivers/STM32G0xx_HAL_Driver/Src/stm32g0xx_hal_pwr_ex.c ****   * @note   Pull-up set by PUy bit of PWR_PUCRx register is not activated if the corresponding
 692:Drivers/STM32G0xx_HAL_Driver/Src/stm32g0xx_hal_pwr_ex.c ****   *         PDy bit of PWR_PDCRx register is also set (pull-down configuration priority is higher).
 693:Drivers/STM32G0xx_HAL_Driver/Src/stm32g0xx_hal_pwr_ex.c ****   *         HAL_PWREx_EnableGPIOPullUp() and HAL_PWREx_EnableGPIOPullDown() APIs ensure there
 694:Drivers/STM32G0xx_HAL_Driver/Src/stm32g0xx_hal_pwr_ex.c ****   *         is no conflict when setting PUy or PDy bit.
 695:Drivers/STM32G0xx_HAL_Driver/Src/stm32g0xx_hal_pwr_ex.c ****   * @retval None
 696:Drivers/STM32G0xx_HAL_Driver/Src/stm32g0xx_hal_pwr_ex.c ****   */
 697:Drivers/STM32G0xx_HAL_Driver/Src/stm32g0xx_hal_pwr_ex.c **** void HAL_PWREx_EnablePullUpPullDownConfig(void)
 698:Drivers/STM32G0xx_HAL_Driver/Src/stm32g0xx_hal_pwr_ex.c **** {
 1313              		.loc 1 698 1 is_stmt 1 view -0
 1314              		.cfi_startproc
 1315              		@ args = 0, pretend = 0, frame = 0
 1316              		@ frame_needed = 0, uses_anonymous_args = 0
 1317              		@ link register save eliminated.
 699:Drivers/STM32G0xx_HAL_Driver/Src/stm32g0xx_hal_pwr_ex.c ****   SET_BIT(PWR->CR3, PWR_CR3_APC);
 1318              		.loc 1 699 3 view .LVU261
 1319 0000 034A     		ldr	r2, .L115
 1320 0002 9168     		ldr	r1, [r2, #8]
 1321 0004 8023     		movs	r3, #128
 1322 0006 DB00     		lsls	r3, r3, #3
 1323 0008 0B43     		orrs	r3, r1
 1324 000a 9360     		str	r3, [r2, #8]
 700:Drivers/STM32G0xx_HAL_Driver/Src/stm32g0xx_hal_pwr_ex.c **** }
 1325              		.loc 1 700 1 is_stmt 0 view .LVU262
 1326              		@ sp needed
 1327 000c 7047     		bx	lr
 1328              	.L116:
 1329 000e C046     		.align	2
 1330              	.L115:
 1331 0010 00700040 		.word	1073770496
 1332              		.cfi_endproc
 1333              	.LFE386:
 1335              		.section	.text.HAL_PWREx_DisablePullUpPullDownConfig,"ax",%progbits
 1336              		.align	1
 1337              		.global	HAL_PWREx_DisablePullUpPullDownConfig
 1338              		.syntax unified
 1339              		.code	16
 1340              		.thumb_func
 1342              	HAL_PWREx_DisablePullUpPullDownConfig:
 1343              	.LFB387:
 701:Drivers/STM32G0xx_HAL_Driver/Src/stm32g0xx_hal_pwr_ex.c **** 
 702:Drivers/STM32G0xx_HAL_Driver/Src/stm32g0xx_hal_pwr_ex.c **** /**
 703:Drivers/STM32G0xx_HAL_Driver/Src/stm32g0xx_hal_pwr_ex.c ****   * @brief  Disable pull-up and pull-down configuration.
 704:Drivers/STM32G0xx_HAL_Driver/Src/stm32g0xx_hal_pwr_ex.c ****   * @note   When APC bit is cleared, the I/O pull-up and pull-down configurations defined in
 705:Drivers/STM32G0xx_HAL_Driver/Src/stm32g0xx_hal_pwr_ex.c ****   *         PWR_PUCRx and PWR_PDCRx registers are not applied in Standby and Shutdown modes.
 706:Drivers/STM32G0xx_HAL_Driver/Src/stm32g0xx_hal_pwr_ex.c ****   * @retval None
 707:Drivers/STM32G0xx_HAL_Driver/Src/stm32g0xx_hal_pwr_ex.c ****   */
 708:Drivers/STM32G0xx_HAL_Driver/Src/stm32g0xx_hal_pwr_ex.c **** void HAL_PWREx_DisablePullUpPullDownConfig(void)
 709:Drivers/STM32G0xx_HAL_Driver/Src/stm32g0xx_hal_pwr_ex.c **** {
ARM GAS  /tmp/ccqDTMd2.s 			page 38


 1344              		.loc 1 709 1 is_stmt 1 view -0
 1345              		.cfi_startproc
 1346              		@ args = 0, pretend = 0, frame = 0
 1347              		@ frame_needed = 0, uses_anonymous_args = 0
 1348              		@ link register save eliminated.
 710:Drivers/STM32G0xx_HAL_Driver/Src/stm32g0xx_hal_pwr_ex.c ****   CLEAR_BIT(PWR->CR3, PWR_CR3_APC);
 1349              		.loc 1 710 3 view .LVU264
 1350 0000 024A     		ldr	r2, .L118
 1351 0002 9368     		ldr	r3, [r2, #8]
 1352 0004 0249     		ldr	r1, .L118+4
 1353 0006 0B40     		ands	r3, r1
 1354 0008 9360     		str	r3, [r2, #8]
 711:Drivers/STM32G0xx_HAL_Driver/Src/stm32g0xx_hal_pwr_ex.c **** }
 1355              		.loc 1 711 1 is_stmt 0 view .LVU265
 1356              		@ sp needed
 1357 000a 7047     		bx	lr
 1358              	.L119:
 1359              		.align	2
 1360              	.L118:
 1361 000c 00700040 		.word	1073770496
 1362 0010 FFFBFFFF 		.word	-1025
 1363              		.cfi_endproc
 1364              	.LFE387:
 1366              		.section	.text.HAL_PWREx_EnableSRAMRetention,"ax",%progbits
 1367              		.align	1
 1368              		.global	HAL_PWREx_EnableSRAMRetention
 1369              		.syntax unified
 1370              		.code	16
 1371              		.thumb_func
 1373              	HAL_PWREx_EnableSRAMRetention:
 1374              	.LFB388:
 712:Drivers/STM32G0xx_HAL_Driver/Src/stm32g0xx_hal_pwr_ex.c **** 
 713:Drivers/STM32G0xx_HAL_Driver/Src/stm32g0xx_hal_pwr_ex.c **** #if defined(PWR_CR3_RRS)
 714:Drivers/STM32G0xx_HAL_Driver/Src/stm32g0xx_hal_pwr_ex.c **** /**
 715:Drivers/STM32G0xx_HAL_Driver/Src/stm32g0xx_hal_pwr_ex.c ****   * @brief Enable SRAM content retention in Standby mode.
 716:Drivers/STM32G0xx_HAL_Driver/Src/stm32g0xx_hal_pwr_ex.c ****   * @note  When RRS bit is set, SRAM is powered by the low-power regulator in
 717:Drivers/STM32G0xx_HAL_Driver/Src/stm32g0xx_hal_pwr_ex.c ****   *         Standby mode and its content is kept.
 718:Drivers/STM32G0xx_HAL_Driver/Src/stm32g0xx_hal_pwr_ex.c ****   * @retval None
 719:Drivers/STM32G0xx_HAL_Driver/Src/stm32g0xx_hal_pwr_ex.c ****   */
 720:Drivers/STM32G0xx_HAL_Driver/Src/stm32g0xx_hal_pwr_ex.c **** void HAL_PWREx_EnableSRAMRetention(void)
 721:Drivers/STM32G0xx_HAL_Driver/Src/stm32g0xx_hal_pwr_ex.c **** {
 1375              		.loc 1 721 1 is_stmt 1 view -0
 1376              		.cfi_startproc
 1377              		@ args = 0, pretend = 0, frame = 0
 1378              		@ frame_needed = 0, uses_anonymous_args = 0
 1379              		@ link register save eliminated.
 722:Drivers/STM32G0xx_HAL_Driver/Src/stm32g0xx_hal_pwr_ex.c ****   SET_BIT(PWR->CR3, PWR_CR3_RRS);
 1380              		.loc 1 722 3 view .LVU267
 1381 0000 034A     		ldr	r2, .L121
 1382 0002 9168     		ldr	r1, [r2, #8]
 1383 0004 8023     		movs	r3, #128
 1384 0006 5B00     		lsls	r3, r3, #1
 1385 0008 0B43     		orrs	r3, r1
 1386 000a 9360     		str	r3, [r2, #8]
 723:Drivers/STM32G0xx_HAL_Driver/Src/stm32g0xx_hal_pwr_ex.c **** }
 1387              		.loc 1 723 1 is_stmt 0 view .LVU268
 1388              		@ sp needed
ARM GAS  /tmp/ccqDTMd2.s 			page 39


 1389 000c 7047     		bx	lr
 1390              	.L122:
 1391 000e C046     		.align	2
 1392              	.L121:
 1393 0010 00700040 		.word	1073770496
 1394              		.cfi_endproc
 1395              	.LFE388:
 1397              		.section	.text.HAL_PWREx_DisableSRAMRetention,"ax",%progbits
 1398              		.align	1
 1399              		.global	HAL_PWREx_DisableSRAMRetention
 1400              		.syntax unified
 1401              		.code	16
 1402              		.thumb_func
 1404              	HAL_PWREx_DisableSRAMRetention:
 1405              	.LFB389:
 724:Drivers/STM32G0xx_HAL_Driver/Src/stm32g0xx_hal_pwr_ex.c **** 
 725:Drivers/STM32G0xx_HAL_Driver/Src/stm32g0xx_hal_pwr_ex.c **** 
 726:Drivers/STM32G0xx_HAL_Driver/Src/stm32g0xx_hal_pwr_ex.c **** /**
 727:Drivers/STM32G0xx_HAL_Driver/Src/stm32g0xx_hal_pwr_ex.c ****   * @brief Disable SRAM content retention in Standby mode.
 728:Drivers/STM32G0xx_HAL_Driver/Src/stm32g0xx_hal_pwr_ex.c ****   * @note  When RRS bit is reset, SRAM is powered off in Standby mode
 729:Drivers/STM32G0xx_HAL_Driver/Src/stm32g0xx_hal_pwr_ex.c ****   *        and its content is lost.
 730:Drivers/STM32G0xx_HAL_Driver/Src/stm32g0xx_hal_pwr_ex.c ****   * @retval None
 731:Drivers/STM32G0xx_HAL_Driver/Src/stm32g0xx_hal_pwr_ex.c ****   */
 732:Drivers/STM32G0xx_HAL_Driver/Src/stm32g0xx_hal_pwr_ex.c **** void HAL_PWREx_DisableSRAMRetention(void)
 733:Drivers/STM32G0xx_HAL_Driver/Src/stm32g0xx_hal_pwr_ex.c **** {
 1406              		.loc 1 733 1 is_stmt 1 view -0
 1407              		.cfi_startproc
 1408              		@ args = 0, pretend = 0, frame = 0
 1409              		@ frame_needed = 0, uses_anonymous_args = 0
 1410              		@ link register save eliminated.
 734:Drivers/STM32G0xx_HAL_Driver/Src/stm32g0xx_hal_pwr_ex.c ****   CLEAR_BIT(PWR->CR3, PWR_CR3_RRS);
 1411              		.loc 1 734 3 view .LVU270
 1412 0000 024A     		ldr	r2, .L124
 1413 0002 9368     		ldr	r3, [r2, #8]
 1414 0004 0249     		ldr	r1, .L124+4
 1415 0006 0B40     		ands	r3, r1
 1416 0008 9360     		str	r3, [r2, #8]
 735:Drivers/STM32G0xx_HAL_Driver/Src/stm32g0xx_hal_pwr_ex.c **** }
 1417              		.loc 1 735 1 is_stmt 0 view .LVU271
 1418              		@ sp needed
 1419 000a 7047     		bx	lr
 1420              	.L125:
 1421              		.align	2
 1422              	.L124:
 1423 000c 00700040 		.word	1073770496
 1424 0010 FFFEFFFF 		.word	-257
 1425              		.cfi_endproc
 1426              	.LFE389:
 1428              		.section	.text.HAL_PWREx_EnableFlashPowerDown,"ax",%progbits
 1429              		.align	1
 1430              		.global	HAL_PWREx_EnableFlashPowerDown
 1431              		.syntax unified
 1432              		.code	16
 1433              		.thumb_func
 1435              	HAL_PWREx_EnableFlashPowerDown:
 1436              	.LVL38:
 1437              	.LFB390:
ARM GAS  /tmp/ccqDTMd2.s 			page 40


 736:Drivers/STM32G0xx_HAL_Driver/Src/stm32g0xx_hal_pwr_ex.c **** #endif /* PWR_CR3_RRS */
 737:Drivers/STM32G0xx_HAL_Driver/Src/stm32g0xx_hal_pwr_ex.c **** 
 738:Drivers/STM32G0xx_HAL_Driver/Src/stm32g0xx_hal_pwr_ex.c **** /**
 739:Drivers/STM32G0xx_HAL_Driver/Src/stm32g0xx_hal_pwr_ex.c ****   * @brief  Enable Flash Power Down.
 740:Drivers/STM32G0xx_HAL_Driver/Src/stm32g0xx_hal_pwr_ex.c ****   * @note   This API allows to enable flash power down capabilities in low power
 741:Drivers/STM32G0xx_HAL_Driver/Src/stm32g0xx_hal_pwr_ex.c ****   *         run, low power sleep and stop modes.
 742:Drivers/STM32G0xx_HAL_Driver/Src/stm32g0xx_hal_pwr_ex.c ****   * @param  PowerMode this can be a combination of following values:
 743:Drivers/STM32G0xx_HAL_Driver/Src/stm32g0xx_hal_pwr_ex.c ****   *           @arg @ref PWR_FLASHPD_LPRUN
 744:Drivers/STM32G0xx_HAL_Driver/Src/stm32g0xx_hal_pwr_ex.c ****   *           @arg @ref PWR_FLASHPD_LPSLEEP
 745:Drivers/STM32G0xx_HAL_Driver/Src/stm32g0xx_hal_pwr_ex.c ****   *           @arg @ref PWR_FLASHPD_STOP
 746:Drivers/STM32G0xx_HAL_Driver/Src/stm32g0xx_hal_pwr_ex.c ****   * @retval None
 747:Drivers/STM32G0xx_HAL_Driver/Src/stm32g0xx_hal_pwr_ex.c ****   */
 748:Drivers/STM32G0xx_HAL_Driver/Src/stm32g0xx_hal_pwr_ex.c **** void HAL_PWREx_EnableFlashPowerDown(uint32_t PowerMode)
 749:Drivers/STM32G0xx_HAL_Driver/Src/stm32g0xx_hal_pwr_ex.c **** {
 1438              		.loc 1 749 1 is_stmt 1 view -0
 1439              		.cfi_startproc
 1440              		@ args = 0, pretend = 0, frame = 0
 1441              		@ frame_needed = 0, uses_anonymous_args = 0
 1442              		@ link register save eliminated.
 750:Drivers/STM32G0xx_HAL_Driver/Src/stm32g0xx_hal_pwr_ex.c ****   assert_param(IS_PWR_FLASH_POWERDOWN(PowerMode));
 1443              		.loc 1 750 3 view .LVU273
 751:Drivers/STM32G0xx_HAL_Driver/Src/stm32g0xx_hal_pwr_ex.c **** 
 752:Drivers/STM32G0xx_HAL_Driver/Src/stm32g0xx_hal_pwr_ex.c ****   PWR->CR1 |= PowerMode;
 1444              		.loc 1 752 3 view .LVU274
 1445              		.loc 1 752 6 is_stmt 0 view .LVU275
 1446 0000 024A     		ldr	r2, .L127
 1447 0002 1368     		ldr	r3, [r2]
 1448              		.loc 1 752 12 view .LVU276
 1449 0004 0343     		orrs	r3, r0
 1450 0006 1360     		str	r3, [r2]
 753:Drivers/STM32G0xx_HAL_Driver/Src/stm32g0xx_hal_pwr_ex.c **** }
 1451              		.loc 1 753 1 view .LVU277
 1452              		@ sp needed
 1453 0008 7047     		bx	lr
 1454              	.L128:
 1455 000a C046     		.align	2
 1456              	.L127:
 1457 000c 00700040 		.word	1073770496
 1458              		.cfi_endproc
 1459              	.LFE390:
 1461              		.section	.text.HAL_PWREx_DisableFlashPowerDown,"ax",%progbits
 1462              		.align	1
 1463              		.global	HAL_PWREx_DisableFlashPowerDown
 1464              		.syntax unified
 1465              		.code	16
 1466              		.thumb_func
 1468              	HAL_PWREx_DisableFlashPowerDown:
 1469              	.LVL39:
 1470              	.LFB391:
 754:Drivers/STM32G0xx_HAL_Driver/Src/stm32g0xx_hal_pwr_ex.c **** 
 755:Drivers/STM32G0xx_HAL_Driver/Src/stm32g0xx_hal_pwr_ex.c **** 
 756:Drivers/STM32G0xx_HAL_Driver/Src/stm32g0xx_hal_pwr_ex.c **** /**
 757:Drivers/STM32G0xx_HAL_Driver/Src/stm32g0xx_hal_pwr_ex.c ****   * @brief  Disable Flash Power Down.
 758:Drivers/STM32G0xx_HAL_Driver/Src/stm32g0xx_hal_pwr_ex.c ****   * @note   This API allows to disable flash power down capabilities in low power
 759:Drivers/STM32G0xx_HAL_Driver/Src/stm32g0xx_hal_pwr_ex.c ****   *         run, low power sleep and stop modes.
 760:Drivers/STM32G0xx_HAL_Driver/Src/stm32g0xx_hal_pwr_ex.c ****   * @param  PowerMode this can be a combination of following values:
 761:Drivers/STM32G0xx_HAL_Driver/Src/stm32g0xx_hal_pwr_ex.c ****   *           @arg @ref PWR_FLASHPD_LPRUN
ARM GAS  /tmp/ccqDTMd2.s 			page 41


 762:Drivers/STM32G0xx_HAL_Driver/Src/stm32g0xx_hal_pwr_ex.c ****   *           @arg @ref PWR_FLASHPD_LPSLEEP
 763:Drivers/STM32G0xx_HAL_Driver/Src/stm32g0xx_hal_pwr_ex.c ****   *           @arg @ref PWR_FLASHPD_STOP
 764:Drivers/STM32G0xx_HAL_Driver/Src/stm32g0xx_hal_pwr_ex.c ****   * @retval None
 765:Drivers/STM32G0xx_HAL_Driver/Src/stm32g0xx_hal_pwr_ex.c ****   */
 766:Drivers/STM32G0xx_HAL_Driver/Src/stm32g0xx_hal_pwr_ex.c **** void HAL_PWREx_DisableFlashPowerDown(uint32_t PowerMode)
 767:Drivers/STM32G0xx_HAL_Driver/Src/stm32g0xx_hal_pwr_ex.c **** {
 1471              		.loc 1 767 1 is_stmt 1 view -0
 1472              		.cfi_startproc
 1473              		@ args = 0, pretend = 0, frame = 0
 1474              		@ frame_needed = 0, uses_anonymous_args = 0
 1475              		@ link register save eliminated.
 768:Drivers/STM32G0xx_HAL_Driver/Src/stm32g0xx_hal_pwr_ex.c ****   assert_param(IS_PWR_FLASH_POWERDOWN(PowerMode));
 1476              		.loc 1 768 3 view .LVU279
 769:Drivers/STM32G0xx_HAL_Driver/Src/stm32g0xx_hal_pwr_ex.c **** 
 770:Drivers/STM32G0xx_HAL_Driver/Src/stm32g0xx_hal_pwr_ex.c ****   PWR->CR1 &= ~PowerMode;
 1477              		.loc 1 770 3 view .LVU280
 1478              		.loc 1 770 6 is_stmt 0 view .LVU281
 1479 0000 024A     		ldr	r2, .L130
 1480 0002 1368     		ldr	r3, [r2]
 1481              		.loc 1 770 12 view .LVU282
 1482 0004 8343     		bics	r3, r0
 1483 0006 1360     		str	r3, [r2]
 771:Drivers/STM32G0xx_HAL_Driver/Src/stm32g0xx_hal_pwr_ex.c **** }
 1484              		.loc 1 771 1 view .LVU283
 1485              		@ sp needed
 1486 0008 7047     		bx	lr
 1487              	.L131:
 1488 000a C046     		.align	2
 1489              	.L130:
 1490 000c 00700040 		.word	1073770496
 1491              		.cfi_endproc
 1492              	.LFE391:
 1494              		.section	.text.HAL_PWREx_GetVoltageRange,"ax",%progbits
 1495              		.align	1
 1496              		.global	HAL_PWREx_GetVoltageRange
 1497              		.syntax unified
 1498              		.code	16
 1499              		.thumb_func
 1501              	HAL_PWREx_GetVoltageRange:
 1502              	.LFB392:
 772:Drivers/STM32G0xx_HAL_Driver/Src/stm32g0xx_hal_pwr_ex.c **** 
 773:Drivers/STM32G0xx_HAL_Driver/Src/stm32g0xx_hal_pwr_ex.c **** 
 774:Drivers/STM32G0xx_HAL_Driver/Src/stm32g0xx_hal_pwr_ex.c **** /**
 775:Drivers/STM32G0xx_HAL_Driver/Src/stm32g0xx_hal_pwr_ex.c ****   * @brief   Return Voltage Scaling Range.
 776:Drivers/STM32G0xx_HAL_Driver/Src/stm32g0xx_hal_pwr_ex.c ****   * @retval  VOS bit field:
 777:Drivers/STM32G0xx_HAL_Driver/Src/stm32g0xx_hal_pwr_ex.c ****   *         @arg @ref PWR_REGULATOR_VOLTAGE_SCALE1
 778:Drivers/STM32G0xx_HAL_Driver/Src/stm32g0xx_hal_pwr_ex.c ****   *         @arg @ref PWR_REGULATOR_VOLTAGE_SCALE2
 779:Drivers/STM32G0xx_HAL_Driver/Src/stm32g0xx_hal_pwr_ex.c ****   */
 780:Drivers/STM32G0xx_HAL_Driver/Src/stm32g0xx_hal_pwr_ex.c **** uint32_t HAL_PWREx_GetVoltageRange(void)
 781:Drivers/STM32G0xx_HAL_Driver/Src/stm32g0xx_hal_pwr_ex.c **** {
 1503              		.loc 1 781 1 is_stmt 1 view -0
 1504              		.cfi_startproc
 1505              		@ args = 0, pretend = 0, frame = 0
 1506              		@ frame_needed = 0, uses_anonymous_args = 0
 1507              		@ link register save eliminated.
 782:Drivers/STM32G0xx_HAL_Driver/Src/stm32g0xx_hal_pwr_ex.c ****   return (PWR->CR1 & PWR_CR1_VOS);
 1508              		.loc 1 782 3 view .LVU285
ARM GAS  /tmp/ccqDTMd2.s 			page 42


 1509              		.loc 1 782 14 is_stmt 0 view .LVU286
 1510 0000 024B     		ldr	r3, .L133
 1511 0002 1868     		ldr	r0, [r3]
 1512              		.loc 1 782 20 view .LVU287
 1513 0004 C023     		movs	r3, #192
 1514 0006 DB00     		lsls	r3, r3, #3
 1515 0008 1840     		ands	r0, r3
 783:Drivers/STM32G0xx_HAL_Driver/Src/stm32g0xx_hal_pwr_ex.c **** }
 1516              		.loc 1 783 1 view .LVU288
 1517              		@ sp needed
 1518 000a 7047     		bx	lr
 1519              	.L134:
 1520              		.align	2
 1521              	.L133:
 1522 000c 00700040 		.word	1073770496
 1523              		.cfi_endproc
 1524              	.LFE392:
 1526              		.global	__aeabi_uidiv
 1527              		.section	.text.HAL_PWREx_ControlVoltageScaling,"ax",%progbits
 1528              		.align	1
 1529              		.global	HAL_PWREx_ControlVoltageScaling
 1530              		.syntax unified
 1531              		.code	16
 1532              		.thumb_func
 1534              	HAL_PWREx_ControlVoltageScaling:
 1535              	.LVL40:
 1536              	.LFB393:
 784:Drivers/STM32G0xx_HAL_Driver/Src/stm32g0xx_hal_pwr_ex.c **** 
 785:Drivers/STM32G0xx_HAL_Driver/Src/stm32g0xx_hal_pwr_ex.c **** 
 786:Drivers/STM32G0xx_HAL_Driver/Src/stm32g0xx_hal_pwr_ex.c **** /**
 787:Drivers/STM32G0xx_HAL_Driver/Src/stm32g0xx_hal_pwr_ex.c ****   * @brief Configure the main regulator output voltage.
 788:Drivers/STM32G0xx_HAL_Driver/Src/stm32g0xx_hal_pwr_ex.c ****   * @param  VoltageScaling specifies the regulator output voltage to achieve
 789:Drivers/STM32G0xx_HAL_Driver/Src/stm32g0xx_hal_pwr_ex.c ****   *         a tradeoff between performance and power consumption.
 790:Drivers/STM32G0xx_HAL_Driver/Src/stm32g0xx_hal_pwr_ex.c ****   *         This parameter can be one of the following values:
 791:Drivers/STM32G0xx_HAL_Driver/Src/stm32g0xx_hal_pwr_ex.c ****   *          @arg @ref PWR_REGULATOR_VOLTAGE_SCALE1 Regulator voltage output range 1 mode,
 792:Drivers/STM32G0xx_HAL_Driver/Src/stm32g0xx_hal_pwr_ex.c ****   *                                                typical output voltage at 1.2 V,
 793:Drivers/STM32G0xx_HAL_Driver/Src/stm32g0xx_hal_pwr_ex.c ****   *                                                system frequency up to 64 MHz.
 794:Drivers/STM32G0xx_HAL_Driver/Src/stm32g0xx_hal_pwr_ex.c ****   *          @arg @ref PWR_REGULATOR_VOLTAGE_SCALE2 Regulator voltage output range 2 mode,
 795:Drivers/STM32G0xx_HAL_Driver/Src/stm32g0xx_hal_pwr_ex.c ****   *                                                typical output voltage at 1.0 V,
 796:Drivers/STM32G0xx_HAL_Driver/Src/stm32g0xx_hal_pwr_ex.c ****   *                                                system frequency up to 16 MHz.
 797:Drivers/STM32G0xx_HAL_Driver/Src/stm32g0xx_hal_pwr_ex.c ****   * @note  When moving from Range 1 to Range 2, the system frequency must be decreased to
 798:Drivers/STM32G0xx_HAL_Driver/Src/stm32g0xx_hal_pwr_ex.c ****   *        a value below 16 MHz before calling HAL_PWREx_ControlVoltageScaling() API.
 799:Drivers/STM32G0xx_HAL_Driver/Src/stm32g0xx_hal_pwr_ex.c ****   *        When moving from Range 2 to Range 1, the system frequency can be increased to
 800:Drivers/STM32G0xx_HAL_Driver/Src/stm32g0xx_hal_pwr_ex.c ****   *        a value up to 64 MHz after calling HAL_PWREx_ControlVoltageScaling() API.
 801:Drivers/STM32G0xx_HAL_Driver/Src/stm32g0xx_hal_pwr_ex.c ****   * @note  When moving from Range 2 to Range 1, the API waits for VOSF flag to be
 802:Drivers/STM32G0xx_HAL_Driver/Src/stm32g0xx_hal_pwr_ex.c ****   *        cleared before returning the status. If the flag is not cleared within
 803:Drivers/STM32G0xx_HAL_Driver/Src/stm32g0xx_hal_pwr_ex.c ****   *        6 microseconds, HAL_TIMEOUT status is reported.
 804:Drivers/STM32G0xx_HAL_Driver/Src/stm32g0xx_hal_pwr_ex.c ****   * @retval HAL Status
 805:Drivers/STM32G0xx_HAL_Driver/Src/stm32g0xx_hal_pwr_ex.c ****   */
 806:Drivers/STM32G0xx_HAL_Driver/Src/stm32g0xx_hal_pwr_ex.c **** HAL_StatusTypeDef HAL_PWREx_ControlVoltageScaling(uint32_t VoltageScaling)
 807:Drivers/STM32G0xx_HAL_Driver/Src/stm32g0xx_hal_pwr_ex.c **** {
 1537              		.loc 1 807 1 is_stmt 1 view -0
 1538              		.cfi_startproc
 1539              		@ args = 0, pretend = 0, frame = 0
 1540              		@ frame_needed = 0, uses_anonymous_args = 0
 1541              		.loc 1 807 1 is_stmt 0 view .LVU290
 1542 0000 10B5     		push	{r4, lr}
ARM GAS  /tmp/ccqDTMd2.s 			page 43


 1543              	.LCFI2:
 1544              		.cfi_def_cfa_offset 8
 1545              		.cfi_offset 4, -8
 1546              		.cfi_offset 14, -4
 808:Drivers/STM32G0xx_HAL_Driver/Src/stm32g0xx_hal_pwr_ex.c ****   uint32_t wait_loop_index;
 1547              		.loc 1 808 3 is_stmt 1 view .LVU291
 809:Drivers/STM32G0xx_HAL_Driver/Src/stm32g0xx_hal_pwr_ex.c **** 
 810:Drivers/STM32G0xx_HAL_Driver/Src/stm32g0xx_hal_pwr_ex.c ****   assert_param(IS_PWR_VOLTAGE_SCALING_RANGE(VoltageScaling));
 1548              		.loc 1 810 3 view .LVU292
 811:Drivers/STM32G0xx_HAL_Driver/Src/stm32g0xx_hal_pwr_ex.c **** 
 812:Drivers/STM32G0xx_HAL_Driver/Src/stm32g0xx_hal_pwr_ex.c ****   /* Modify voltage scaling range */
 813:Drivers/STM32G0xx_HAL_Driver/Src/stm32g0xx_hal_pwr_ex.c ****   MODIFY_REG(PWR->CR1, PWR_CR1_VOS, VoltageScaling);
 1549              		.loc 1 813 3 view .LVU293
 1550 0002 104A     		ldr	r2, .L143
 1551 0004 1368     		ldr	r3, [r2]
 1552 0006 1049     		ldr	r1, .L143+4
 1553 0008 0B40     		ands	r3, r1
 1554 000a 0343     		orrs	r3, r0
 1555 000c 1360     		str	r3, [r2]
 814:Drivers/STM32G0xx_HAL_Driver/Src/stm32g0xx_hal_pwr_ex.c **** 
 815:Drivers/STM32G0xx_HAL_Driver/Src/stm32g0xx_hal_pwr_ex.c ****   /* In case of Range 1 selected, we need to ensure that main regulator reaches new value */
 816:Drivers/STM32G0xx_HAL_Driver/Src/stm32g0xx_hal_pwr_ex.c ****   if (VoltageScaling == PWR_REGULATOR_VOLTAGE_SCALE1)
 1556              		.loc 1 816 3 view .LVU294
 1557              		.loc 1 816 6 is_stmt 0 view .LVU295
 1558 000e 8023     		movs	r3, #128
 1559 0010 9B00     		lsls	r3, r3, #2
 1560 0012 9842     		cmp	r0, r3
 1561 0014 01D0     		beq	.L141
 817:Drivers/STM32G0xx_HAL_Driver/Src/stm32g0xx_hal_pwr_ex.c ****   {
 818:Drivers/STM32G0xx_HAL_Driver/Src/stm32g0xx_hal_pwr_ex.c ****     /* Set timeout value */
 819:Drivers/STM32G0xx_HAL_Driver/Src/stm32g0xx_hal_pwr_ex.c ****     wait_loop_index = ((PWR_VOSF_SETTING_DELAY_6_US * SystemCoreClock) / 1000000U) + 1U;
 820:Drivers/STM32G0xx_HAL_Driver/Src/stm32g0xx_hal_pwr_ex.c **** 
 821:Drivers/STM32G0xx_HAL_Driver/Src/stm32g0xx_hal_pwr_ex.c ****     /* Wait until VOSF is reset */
 822:Drivers/STM32G0xx_HAL_Driver/Src/stm32g0xx_hal_pwr_ex.c ****     while (HAL_IS_BIT_SET(PWR->SR2, PWR_SR2_VOSF))
 823:Drivers/STM32G0xx_HAL_Driver/Src/stm32g0xx_hal_pwr_ex.c ****     {
 824:Drivers/STM32G0xx_HAL_Driver/Src/stm32g0xx_hal_pwr_ex.c ****       if (wait_loop_index != 0U)
 825:Drivers/STM32G0xx_HAL_Driver/Src/stm32g0xx_hal_pwr_ex.c ****       {
 826:Drivers/STM32G0xx_HAL_Driver/Src/stm32g0xx_hal_pwr_ex.c ****         wait_loop_index--;
 827:Drivers/STM32G0xx_HAL_Driver/Src/stm32g0xx_hal_pwr_ex.c ****       }
 828:Drivers/STM32G0xx_HAL_Driver/Src/stm32g0xx_hal_pwr_ex.c ****       else
 829:Drivers/STM32G0xx_HAL_Driver/Src/stm32g0xx_hal_pwr_ex.c ****       {
 830:Drivers/STM32G0xx_HAL_Driver/Src/stm32g0xx_hal_pwr_ex.c ****         return HAL_TIMEOUT;
 831:Drivers/STM32G0xx_HAL_Driver/Src/stm32g0xx_hal_pwr_ex.c ****       }
 832:Drivers/STM32G0xx_HAL_Driver/Src/stm32g0xx_hal_pwr_ex.c ****     }
 833:Drivers/STM32G0xx_HAL_Driver/Src/stm32g0xx_hal_pwr_ex.c ****   }
 834:Drivers/STM32G0xx_HAL_Driver/Src/stm32g0xx_hal_pwr_ex.c **** 
 835:Drivers/STM32G0xx_HAL_Driver/Src/stm32g0xx_hal_pwr_ex.c ****   return HAL_OK;
 1562              		.loc 1 835 10 view .LVU296
 1563 0016 0020     		movs	r0, #0
 1564              	.LVL41:
 1565              	.L136:
 836:Drivers/STM32G0xx_HAL_Driver/Src/stm32g0xx_hal_pwr_ex.c **** }
 1566              		.loc 1 836 1 view .LVU297
 1567              		@ sp needed
 1568 0018 10BD     		pop	{r4, pc}
 1569              	.LVL42:
 1570              	.L141:
ARM GAS  /tmp/ccqDTMd2.s 			page 44


 819:Drivers/STM32G0xx_HAL_Driver/Src/stm32g0xx_hal_pwr_ex.c **** 
 1571              		.loc 1 819 5 is_stmt 1 view .LVU298
 819:Drivers/STM32G0xx_HAL_Driver/Src/stm32g0xx_hal_pwr_ex.c **** 
 1572              		.loc 1 819 53 is_stmt 0 view .LVU299
 1573 001a 0C4B     		ldr	r3, .L143+8
 1574 001c 1B68     		ldr	r3, [r3]
 1575 001e 5800     		lsls	r0, r3, #1
 1576              	.LVL43:
 819:Drivers/STM32G0xx_HAL_Driver/Src/stm32g0xx_hal_pwr_ex.c **** 
 1577              		.loc 1 819 53 view .LVU300
 1578 0020 C018     		adds	r0, r0, r3
 1579 0022 4000     		lsls	r0, r0, #1
 819:Drivers/STM32G0xx_HAL_Driver/Src/stm32g0xx_hal_pwr_ex.c **** 
 1580              		.loc 1 819 72 view .LVU301
 1581 0024 0A49     		ldr	r1, .L143+12
 1582 0026 FFF7FEFF 		bl	__aeabi_uidiv
 1583              	.LVL44:
 819:Drivers/STM32G0xx_HAL_Driver/Src/stm32g0xx_hal_pwr_ex.c **** 
 1584              		.loc 1 819 21 view .LVU302
 1585 002a 0130     		adds	r0, r0, #1
 1586              	.LVL45:
 822:Drivers/STM32G0xx_HAL_Driver/Src/stm32g0xx_hal_pwr_ex.c ****     {
 1587              		.loc 1 822 5 is_stmt 1 view .LVU303
 1588              	.L137:
 822:Drivers/STM32G0xx_HAL_Driver/Src/stm32g0xx_hal_pwr_ex.c ****     {
 1589              		.loc 1 822 12 view .LVU304
 1590 002c 054B     		ldr	r3, .L143
 1591 002e 5B69     		ldr	r3, [r3, #20]
 1592 0030 5B05     		lsls	r3, r3, #21
 1593 0032 03D5     		bpl	.L142
 824:Drivers/STM32G0xx_HAL_Driver/Src/stm32g0xx_hal_pwr_ex.c ****       {
 1594              		.loc 1 824 7 view .LVU305
 824:Drivers/STM32G0xx_HAL_Driver/Src/stm32g0xx_hal_pwr_ex.c ****       {
 1595              		.loc 1 824 10 is_stmt 0 view .LVU306
 1596 0034 0028     		cmp	r0, #0
 1597 0036 03D0     		beq	.L140
 826:Drivers/STM32G0xx_HAL_Driver/Src/stm32g0xx_hal_pwr_ex.c ****       }
 1598              		.loc 1 826 9 is_stmt 1 view .LVU307
 826:Drivers/STM32G0xx_HAL_Driver/Src/stm32g0xx_hal_pwr_ex.c ****       }
 1599              		.loc 1 826 24 is_stmt 0 view .LVU308
 1600 0038 0138     		subs	r0, r0, #1
 1601              	.LVL46:
 826:Drivers/STM32G0xx_HAL_Driver/Src/stm32g0xx_hal_pwr_ex.c ****       }
 1602              		.loc 1 826 24 view .LVU309
 1603 003a F7E7     		b	.L137
 1604              	.L142:
 835:Drivers/STM32G0xx_HAL_Driver/Src/stm32g0xx_hal_pwr_ex.c **** }
 1605              		.loc 1 835 10 view .LVU310
 1606 003c 0020     		movs	r0, #0
 1607              	.LVL47:
 835:Drivers/STM32G0xx_HAL_Driver/Src/stm32g0xx_hal_pwr_ex.c **** }
 1608              		.loc 1 835 10 view .LVU311
 1609 003e EBE7     		b	.L136
 1610              	.LVL48:
 1611              	.L140:
 830:Drivers/STM32G0xx_HAL_Driver/Src/stm32g0xx_hal_pwr_ex.c ****       }
 1612              		.loc 1 830 16 view .LVU312
ARM GAS  /tmp/ccqDTMd2.s 			page 45


 1613 0040 0320     		movs	r0, #3
 1614              	.LVL49:
 830:Drivers/STM32G0xx_HAL_Driver/Src/stm32g0xx_hal_pwr_ex.c ****       }
 1615              		.loc 1 830 16 view .LVU313
 1616 0042 E9E7     		b	.L136
 1617              	.L144:
 1618              		.align	2
 1619              	.L143:
 1620 0044 00700040 		.word	1073770496
 1621 0048 FFF9FFFF 		.word	-1537
 1622 004c 00000000 		.word	SystemCoreClock
 1623 0050 40420F00 		.word	1000000
 1624              		.cfi_endproc
 1625              	.LFE393:
 1627              		.section	.text.HAL_PWREx_EnableLowPowerRunMode,"ax",%progbits
 1628              		.align	1
 1629              		.global	HAL_PWREx_EnableLowPowerRunMode
 1630              		.syntax unified
 1631              		.code	16
 1632              		.thumb_func
 1634              	HAL_PWREx_EnableLowPowerRunMode:
 1635              	.LFB394:
 837:Drivers/STM32G0xx_HAL_Driver/Src/stm32g0xx_hal_pwr_ex.c **** 
 838:Drivers/STM32G0xx_HAL_Driver/Src/stm32g0xx_hal_pwr_ex.c **** 
 839:Drivers/STM32G0xx_HAL_Driver/Src/stm32g0xx_hal_pwr_ex.c **** 
 840:Drivers/STM32G0xx_HAL_Driver/Src/stm32g0xx_hal_pwr_ex.c **** /**
 841:Drivers/STM32G0xx_HAL_Driver/Src/stm32g0xx_hal_pwr_ex.c ****   * @brief Enter Low-power Run mode
 842:Drivers/STM32G0xx_HAL_Driver/Src/stm32g0xx_hal_pwr_ex.c ****   * @note  System clock frequency has to be decreased below 2 MHz before entering
 843:Drivers/STM32G0xx_HAL_Driver/Src/stm32g0xx_hal_pwr_ex.c ****   *        low power run mode
 844:Drivers/STM32G0xx_HAL_Driver/Src/stm32g0xx_hal_pwr_ex.c ****   * @note  In Low-power Run mode, all I/O pins keep the same state as in Run mode.
 845:Drivers/STM32G0xx_HAL_Driver/Src/stm32g0xx_hal_pwr_ex.c ****   * @retval None
 846:Drivers/STM32G0xx_HAL_Driver/Src/stm32g0xx_hal_pwr_ex.c ****   */
 847:Drivers/STM32G0xx_HAL_Driver/Src/stm32g0xx_hal_pwr_ex.c **** void HAL_PWREx_EnableLowPowerRunMode(void)
 848:Drivers/STM32G0xx_HAL_Driver/Src/stm32g0xx_hal_pwr_ex.c **** {
 1636              		.loc 1 848 1 is_stmt 1 view -0
 1637              		.cfi_startproc
 1638              		@ args = 0, pretend = 0, frame = 0
 1639              		@ frame_needed = 0, uses_anonymous_args = 0
 1640              		@ link register save eliminated.
 849:Drivers/STM32G0xx_HAL_Driver/Src/stm32g0xx_hal_pwr_ex.c ****   /* Set Regulator parameter */
 850:Drivers/STM32G0xx_HAL_Driver/Src/stm32g0xx_hal_pwr_ex.c ****   SET_BIT(PWR->CR1, PWR_CR1_LPR);
 1641              		.loc 1 850 3 view .LVU315
 1642 0000 034A     		ldr	r2, .L146
 1643 0002 1168     		ldr	r1, [r2]
 1644 0004 8023     		movs	r3, #128
 1645 0006 DB01     		lsls	r3, r3, #7
 1646 0008 0B43     		orrs	r3, r1
 1647 000a 1360     		str	r3, [r2]
 851:Drivers/STM32G0xx_HAL_Driver/Src/stm32g0xx_hal_pwr_ex.c **** }
 1648              		.loc 1 851 1 is_stmt 0 view .LVU316
 1649              		@ sp needed
 1650 000c 7047     		bx	lr
 1651              	.L147:
 1652 000e C046     		.align	2
 1653              	.L146:
 1654 0010 00700040 		.word	1073770496
 1655              		.cfi_endproc
ARM GAS  /tmp/ccqDTMd2.s 			page 46


 1656              	.LFE394:
 1658              		.section	.text.HAL_PWREx_DisableLowPowerRunMode,"ax",%progbits
 1659              		.align	1
 1660              		.global	HAL_PWREx_DisableLowPowerRunMode
 1661              		.syntax unified
 1662              		.code	16
 1663              		.thumb_func
 1665              	HAL_PWREx_DisableLowPowerRunMode:
 1666              	.LFB395:
 852:Drivers/STM32G0xx_HAL_Driver/Src/stm32g0xx_hal_pwr_ex.c **** 
 853:Drivers/STM32G0xx_HAL_Driver/Src/stm32g0xx_hal_pwr_ex.c **** 
 854:Drivers/STM32G0xx_HAL_Driver/Src/stm32g0xx_hal_pwr_ex.c **** /**
 855:Drivers/STM32G0xx_HAL_Driver/Src/stm32g0xx_hal_pwr_ex.c ****   * @brief Exit Low-power Run mode.
 856:Drivers/STM32G0xx_HAL_Driver/Src/stm32g0xx_hal_pwr_ex.c ****   * @note  Before HAL_PWREx_DisableLowPowerRunMode() completion, the function checks that
 857:Drivers/STM32G0xx_HAL_Driver/Src/stm32g0xx_hal_pwr_ex.c ****   *        REGLPF has been properly reset (otherwise, HAL_PWREx_DisableLowPowerRunMode
 858:Drivers/STM32G0xx_HAL_Driver/Src/stm32g0xx_hal_pwr_ex.c ****   *        returns HAL_TIMEOUT status). The system clock frequency can then be
 859:Drivers/STM32G0xx_HAL_Driver/Src/stm32g0xx_hal_pwr_ex.c ****   *        increased above 2 MHz.
 860:Drivers/STM32G0xx_HAL_Driver/Src/stm32g0xx_hal_pwr_ex.c ****   * @retval HAL Status
 861:Drivers/STM32G0xx_HAL_Driver/Src/stm32g0xx_hal_pwr_ex.c ****   */
 862:Drivers/STM32G0xx_HAL_Driver/Src/stm32g0xx_hal_pwr_ex.c **** HAL_StatusTypeDef HAL_PWREx_DisableLowPowerRunMode(void)
 863:Drivers/STM32G0xx_HAL_Driver/Src/stm32g0xx_hal_pwr_ex.c **** {
 1667              		.loc 1 863 1 is_stmt 1 view -0
 1668              		.cfi_startproc
 1669              		@ args = 0, pretend = 0, frame = 0
 1670              		@ frame_needed = 0, uses_anonymous_args = 0
 1671 0000 10B5     		push	{r4, lr}
 1672              	.LCFI3:
 1673              		.cfi_def_cfa_offset 8
 1674              		.cfi_offset 4, -8
 1675              		.cfi_offset 14, -4
 864:Drivers/STM32G0xx_HAL_Driver/Src/stm32g0xx_hal_pwr_ex.c ****   uint32_t wait_loop_index = ((PWR_REGLPF_SETTING_DELAY_6_US * SystemCoreClock) / 1000000U) + 1U;
 1676              		.loc 1 864 3 view .LVU318
 1677              		.loc 1 864 62 is_stmt 0 view .LVU319
 1678 0002 0D4B     		ldr	r3, .L155
 1679 0004 1B68     		ldr	r3, [r3]
 1680 0006 5800     		lsls	r0, r3, #1
 1681 0008 C018     		adds	r0, r0, r3
 1682 000a 4000     		lsls	r0, r0, #1
 1683              		.loc 1 864 81 view .LVU320
 1684 000c 0B49     		ldr	r1, .L155+4
 1685 000e FFF7FEFF 		bl	__aeabi_uidiv
 1686              	.LVL50:
 1687              		.loc 1 864 12 view .LVU321
 1688 0012 0130     		adds	r0, r0, #1
 1689              	.LVL51:
 865:Drivers/STM32G0xx_HAL_Driver/Src/stm32g0xx_hal_pwr_ex.c **** 
 866:Drivers/STM32G0xx_HAL_Driver/Src/stm32g0xx_hal_pwr_ex.c ****   /* Clear LPR bit */
 867:Drivers/STM32G0xx_HAL_Driver/Src/stm32g0xx_hal_pwr_ex.c ****   CLEAR_BIT(PWR->CR1, PWR_CR1_LPR);
 1690              		.loc 1 867 3 is_stmt 1 view .LVU322
 1691 0014 0A4A     		ldr	r2, .L155+8
 1692 0016 1368     		ldr	r3, [r2]
 1693 0018 0A49     		ldr	r1, .L155+12
 1694 001a 0B40     		ands	r3, r1
 1695 001c 1360     		str	r3, [r2]
 868:Drivers/STM32G0xx_HAL_Driver/Src/stm32g0xx_hal_pwr_ex.c **** 
 869:Drivers/STM32G0xx_HAL_Driver/Src/stm32g0xx_hal_pwr_ex.c ****   /* Wait until REGLPF is reset */
 870:Drivers/STM32G0xx_HAL_Driver/Src/stm32g0xx_hal_pwr_ex.c ****   while (HAL_IS_BIT_SET(PWR->SR2, PWR_SR2_REGLPF))
ARM GAS  /tmp/ccqDTMd2.s 			page 47


 1696              		.loc 1 870 3 view .LVU323
 1697              		.loc 1 870 9 is_stmt 0 view .LVU324
 1698 001e 00E0     		b	.L149
 1699              	.L154:
 871:Drivers/STM32G0xx_HAL_Driver/Src/stm32g0xx_hal_pwr_ex.c ****   {
 872:Drivers/STM32G0xx_HAL_Driver/Src/stm32g0xx_hal_pwr_ex.c ****     if (wait_loop_index != 0U)
 873:Drivers/STM32G0xx_HAL_Driver/Src/stm32g0xx_hal_pwr_ex.c ****     {
 874:Drivers/STM32G0xx_HAL_Driver/Src/stm32g0xx_hal_pwr_ex.c ****       wait_loop_index--;
 1700              		.loc 1 874 7 is_stmt 1 view .LVU325
 1701              		.loc 1 874 22 is_stmt 0 view .LVU326
 1702 0020 0138     		subs	r0, r0, #1
 1703              	.LVL52:
 1704              	.L149:
 870:Drivers/STM32G0xx_HAL_Driver/Src/stm32g0xx_hal_pwr_ex.c ****   {
 1705              		.loc 1 870 10 is_stmt 1 view .LVU327
 1706 0022 074B     		ldr	r3, .L155+8
 1707 0024 5B69     		ldr	r3, [r3, #20]
 1708 0026 9B05     		lsls	r3, r3, #22
 1709 0028 03D5     		bpl	.L153
 872:Drivers/STM32G0xx_HAL_Driver/Src/stm32g0xx_hal_pwr_ex.c ****     {
 1710              		.loc 1 872 5 view .LVU328
 872:Drivers/STM32G0xx_HAL_Driver/Src/stm32g0xx_hal_pwr_ex.c ****     {
 1711              		.loc 1 872 8 is_stmt 0 view .LVU329
 1712 002a 0028     		cmp	r0, #0
 1713 002c F8D1     		bne	.L154
 875:Drivers/STM32G0xx_HAL_Driver/Src/stm32g0xx_hal_pwr_ex.c ****     }
 876:Drivers/STM32G0xx_HAL_Driver/Src/stm32g0xx_hal_pwr_ex.c ****     else
 877:Drivers/STM32G0xx_HAL_Driver/Src/stm32g0xx_hal_pwr_ex.c ****     {
 878:Drivers/STM32G0xx_HAL_Driver/Src/stm32g0xx_hal_pwr_ex.c ****       return HAL_TIMEOUT;
 1714              		.loc 1 878 14 view .LVU330
 1715 002e 0320     		movs	r0, #3
 1716              	.LVL53:
 1717              		.loc 1 878 14 view .LVU331
 1718 0030 00E0     		b	.L150
 1719              	.LVL54:
 1720              	.L153:
 879:Drivers/STM32G0xx_HAL_Driver/Src/stm32g0xx_hal_pwr_ex.c ****     }
 880:Drivers/STM32G0xx_HAL_Driver/Src/stm32g0xx_hal_pwr_ex.c ****   }
 881:Drivers/STM32G0xx_HAL_Driver/Src/stm32g0xx_hal_pwr_ex.c **** 
 882:Drivers/STM32G0xx_HAL_Driver/Src/stm32g0xx_hal_pwr_ex.c ****   return HAL_OK;
 1721              		.loc 1 882 10 view .LVU332
 1722 0032 0020     		movs	r0, #0
 1723              	.LVL55:
 1724              	.L150:
 883:Drivers/STM32G0xx_HAL_Driver/Src/stm32g0xx_hal_pwr_ex.c **** }
 1725              		.loc 1 883 1 view .LVU333
 1726              		@ sp needed
 1727 0034 10BD     		pop	{r4, pc}
 1728              	.L156:
 1729 0036 C046     		.align	2
 1730              	.L155:
 1731 0038 00000000 		.word	SystemCoreClock
 1732 003c 40420F00 		.word	1000000
 1733 0040 00700040 		.word	1073770496
 1734 0044 FFBFFFFF 		.word	-16385
 1735              		.cfi_endproc
 1736              	.LFE395:
ARM GAS  /tmp/ccqDTMd2.s 			page 48


 1738              		.section	.text.HAL_PWREx_EnterSHUTDOWNMode,"ax",%progbits
 1739              		.align	1
 1740              		.global	HAL_PWREx_EnterSHUTDOWNMode
 1741              		.syntax unified
 1742              		.code	16
 1743              		.thumb_func
 1745              	HAL_PWREx_EnterSHUTDOWNMode:
 1746              	.LFB396:
 884:Drivers/STM32G0xx_HAL_Driver/Src/stm32g0xx_hal_pwr_ex.c **** 
 885:Drivers/STM32G0xx_HAL_Driver/Src/stm32g0xx_hal_pwr_ex.c **** 
 886:Drivers/STM32G0xx_HAL_Driver/Src/stm32g0xx_hal_pwr_ex.c **** #if defined(PWR_SHDW_SUPPORT)
 887:Drivers/STM32G0xx_HAL_Driver/Src/stm32g0xx_hal_pwr_ex.c **** /**
 888:Drivers/STM32G0xx_HAL_Driver/Src/stm32g0xx_hal_pwr_ex.c ****   * @brief  Enter Shutdown mode.
 889:Drivers/STM32G0xx_HAL_Driver/Src/stm32g0xx_hal_pwr_ex.c ****   * @note   In Shutdown mode, the PLL, the HSI, the LSI and the HSE oscillators are switched
 890:Drivers/STM32G0xx_HAL_Driver/Src/stm32g0xx_hal_pwr_ex.c ****   *         off. The voltage regulator is disabled and Vcore domain is powered off.
 891:Drivers/STM32G0xx_HAL_Driver/Src/stm32g0xx_hal_pwr_ex.c ****   *         SRAM and registers contents are lost except for registers in the Backup domain.
 892:Drivers/STM32G0xx_HAL_Driver/Src/stm32g0xx_hal_pwr_ex.c ****   *         The BOR is not available.
 893:Drivers/STM32G0xx_HAL_Driver/Src/stm32g0xx_hal_pwr_ex.c ****   * @note   The I/Os can be configured either with a pull-up or pull-down or can
 894:Drivers/STM32G0xx_HAL_Driver/Src/stm32g0xx_hal_pwr_ex.c ****   *         be kept in analog state.
 895:Drivers/STM32G0xx_HAL_Driver/Src/stm32g0xx_hal_pwr_ex.c ****   *         HAL_PWREx_EnableGPIOPullUp() and HAL_PWREx_EnableGPIOPullDown()
 896:Drivers/STM32G0xx_HAL_Driver/Src/stm32g0xx_hal_pwr_ex.c ****   *         respectively enable Pull Up and PullDown state.
 897:Drivers/STM32G0xx_HAL_Driver/Src/stm32g0xx_hal_pwr_ex.c ****   *         HAL_PWREx_DisableGPIOPullUp() & HAL_PWREx_DisableGPIOPullDown()
 898:Drivers/STM32G0xx_HAL_Driver/Src/stm32g0xx_hal_pwr_ex.c ****   *         disable the same. These states are effective in Standby mode only if
 899:Drivers/STM32G0xx_HAL_Driver/Src/stm32g0xx_hal_pwr_ex.c ****   *         APC bit is set through HAL_PWREx_EnablePullUpPullDownConfig() API.
 900:Drivers/STM32G0xx_HAL_Driver/Src/stm32g0xx_hal_pwr_ex.c ****   * @retval None
 901:Drivers/STM32G0xx_HAL_Driver/Src/stm32g0xx_hal_pwr_ex.c **** 
 902:Drivers/STM32G0xx_HAL_Driver/Src/stm32g0xx_hal_pwr_ex.c ****   * @retval None
 903:Drivers/STM32G0xx_HAL_Driver/Src/stm32g0xx_hal_pwr_ex.c ****   */
 904:Drivers/STM32G0xx_HAL_Driver/Src/stm32g0xx_hal_pwr_ex.c **** void HAL_PWREx_EnterSHUTDOWNMode(void)
 905:Drivers/STM32G0xx_HAL_Driver/Src/stm32g0xx_hal_pwr_ex.c **** {
 1747              		.loc 1 905 1 is_stmt 1 view -0
 1748              		.cfi_startproc
 1749              		@ args = 0, pretend = 0, frame = 0
 1750              		@ frame_needed = 0, uses_anonymous_args = 0
 1751              		@ link register save eliminated.
 906:Drivers/STM32G0xx_HAL_Driver/Src/stm32g0xx_hal_pwr_ex.c ****   /* Set Shutdown mode */
 907:Drivers/STM32G0xx_HAL_Driver/Src/stm32g0xx_hal_pwr_ex.c ****   MODIFY_REG(PWR->CR1, PWR_CR1_LPMS, PWR_LOWPOWERMODE_SHUTDOWN);
 1752              		.loc 1 907 3 view .LVU335
 1753 0000 064A     		ldr	r2, .L158
 1754 0002 1368     		ldr	r3, [r2]
 1755 0004 0721     		movs	r1, #7
 1756 0006 8B43     		bics	r3, r1
 1757 0008 0339     		subs	r1, r1, #3
 1758 000a 0B43     		orrs	r3, r1
 1759 000c 1360     		str	r3, [r2]
 908:Drivers/STM32G0xx_HAL_Driver/Src/stm32g0xx_hal_pwr_ex.c **** 
 909:Drivers/STM32G0xx_HAL_Driver/Src/stm32g0xx_hal_pwr_ex.c ****   /* Set SLEEPDEEP bit of Cortex System Control Register */
 910:Drivers/STM32G0xx_HAL_Driver/Src/stm32g0xx_hal_pwr_ex.c ****   SET_BIT(SCB->SCR, ((uint32_t)SCB_SCR_SLEEPDEEP_Msk));
 1760              		.loc 1 910 3 view .LVU336
 1761 000e 044A     		ldr	r2, .L158+4
 1762 0010 1369     		ldr	r3, [r2, #16]
 1763 0012 0B43     		orrs	r3, r1
 1764 0014 1361     		str	r3, [r2, #16]
 911:Drivers/STM32G0xx_HAL_Driver/Src/stm32g0xx_hal_pwr_ex.c **** 
 912:Drivers/STM32G0xx_HAL_Driver/Src/stm32g0xx_hal_pwr_ex.c ****   /* This option is used to ensure that store operations are completed */
 913:Drivers/STM32G0xx_HAL_Driver/Src/stm32g0xx_hal_pwr_ex.c **** #if defined ( __CC_ARM)
 914:Drivers/STM32G0xx_HAL_Driver/Src/stm32g0xx_hal_pwr_ex.c ****   __force_stores();
ARM GAS  /tmp/ccqDTMd2.s 			page 49


 915:Drivers/STM32G0xx_HAL_Driver/Src/stm32g0xx_hal_pwr_ex.c **** #endif /* __CC_ARM */
 916:Drivers/STM32G0xx_HAL_Driver/Src/stm32g0xx_hal_pwr_ex.c **** 
 917:Drivers/STM32G0xx_HAL_Driver/Src/stm32g0xx_hal_pwr_ex.c ****   /* Request Wait For Interrupt */
 918:Drivers/STM32G0xx_HAL_Driver/Src/stm32g0xx_hal_pwr_ex.c ****   __WFI();
 1765              		.loc 1 918 3 view .LVU337
 1766              		.syntax divided
 1767              	@ 918 "Drivers/STM32G0xx_HAL_Driver/Src/stm32g0xx_hal_pwr_ex.c" 1
 1768 0016 30BF     		wfi
 1769              	@ 0 "" 2
 919:Drivers/STM32G0xx_HAL_Driver/Src/stm32g0xx_hal_pwr_ex.c **** }
 1770              		.loc 1 919 1 is_stmt 0 view .LVU338
 1771              		.thumb
 1772              		.syntax unified
 1773              		@ sp needed
 1774 0018 7047     		bx	lr
 1775              	.L159:
 1776 001a C046     		.align	2
 1777              	.L158:
 1778 001c 00700040 		.word	1073770496
 1779 0020 00ED00E0 		.word	-536810240
 1780              		.cfi_endproc
 1781              	.LFE396:
 1783              		.section	.text.HAL_PWREx_PVD_PVM_Rising_Callback,"ax",%progbits
 1784              		.align	1
 1785              		.weak	HAL_PWREx_PVD_PVM_Rising_Callback
 1786              		.syntax unified
 1787              		.code	16
 1788              		.thumb_func
 1790              	HAL_PWREx_PVD_PVM_Rising_Callback:
 1791              	.LFB398:
 920:Drivers/STM32G0xx_HAL_Driver/Src/stm32g0xx_hal_pwr_ex.c **** #endif /* PWR_SHDW_SUPPORT */
 921:Drivers/STM32G0xx_HAL_Driver/Src/stm32g0xx_hal_pwr_ex.c **** 
 922:Drivers/STM32G0xx_HAL_Driver/Src/stm32g0xx_hal_pwr_ex.c **** #if defined(PWR_PVD_SUPPORT) && defined(PWR_PVM_SUPPORT)
 923:Drivers/STM32G0xx_HAL_Driver/Src/stm32g0xx_hal_pwr_ex.c **** /**
 924:Drivers/STM32G0xx_HAL_Driver/Src/stm32g0xx_hal_pwr_ex.c ****   * @brief  This function handles the PWR PVD interrupt request.
 925:Drivers/STM32G0xx_HAL_Driver/Src/stm32g0xx_hal_pwr_ex.c ****   * @note   This API should be called under the PVD_IRQHandler().
 926:Drivers/STM32G0xx_HAL_Driver/Src/stm32g0xx_hal_pwr_ex.c ****   * @retval None
 927:Drivers/STM32G0xx_HAL_Driver/Src/stm32g0xx_hal_pwr_ex.c ****   */
 928:Drivers/STM32G0xx_HAL_Driver/Src/stm32g0xx_hal_pwr_ex.c **** void HAL_PWREx_PVD_PVM_IRQHandler(void)
 929:Drivers/STM32G0xx_HAL_Driver/Src/stm32g0xx_hal_pwr_ex.c **** {
 930:Drivers/STM32G0xx_HAL_Driver/Src/stm32g0xx_hal_pwr_ex.c ****   /* Check PWR PVD exti Rising flag */
 931:Drivers/STM32G0xx_HAL_Driver/Src/stm32g0xx_hal_pwr_ex.c ****   if (__HAL_PWR_PVD_EXTI_GET_RISING_FLAG() != 0x0U)
 932:Drivers/STM32G0xx_HAL_Driver/Src/stm32g0xx_hal_pwr_ex.c ****   {
 933:Drivers/STM32G0xx_HAL_Driver/Src/stm32g0xx_hal_pwr_ex.c ****     /* Clear PVD exti pending bit */
 934:Drivers/STM32G0xx_HAL_Driver/Src/stm32g0xx_hal_pwr_ex.c ****     __HAL_PWR_PVD_EXTI_CLEAR_RISING_FLAG();
 935:Drivers/STM32G0xx_HAL_Driver/Src/stm32g0xx_hal_pwr_ex.c **** 
 936:Drivers/STM32G0xx_HAL_Driver/Src/stm32g0xx_hal_pwr_ex.c ****     /* PWR PVD interrupt rising user callback */
 937:Drivers/STM32G0xx_HAL_Driver/Src/stm32g0xx_hal_pwr_ex.c ****     HAL_PWREx_PVD_PVM_Rising_Callback();
 938:Drivers/STM32G0xx_HAL_Driver/Src/stm32g0xx_hal_pwr_ex.c ****   }
 939:Drivers/STM32G0xx_HAL_Driver/Src/stm32g0xx_hal_pwr_ex.c **** 
 940:Drivers/STM32G0xx_HAL_Driver/Src/stm32g0xx_hal_pwr_ex.c ****   /* Check PWR exti fallling flag */
 941:Drivers/STM32G0xx_HAL_Driver/Src/stm32g0xx_hal_pwr_ex.c ****   if (__HAL_PWR_PVD_EXTI_GET_FALLING_FLAG() != 0x0U)
 942:Drivers/STM32G0xx_HAL_Driver/Src/stm32g0xx_hal_pwr_ex.c ****   {
 943:Drivers/STM32G0xx_HAL_Driver/Src/stm32g0xx_hal_pwr_ex.c ****     /* Clear PVD exti pending bit */
 944:Drivers/STM32G0xx_HAL_Driver/Src/stm32g0xx_hal_pwr_ex.c ****     __HAL_PWR_PVD_EXTI_CLEAR_FALLING_FLAG();
 945:Drivers/STM32G0xx_HAL_Driver/Src/stm32g0xx_hal_pwr_ex.c **** 
 946:Drivers/STM32G0xx_HAL_Driver/Src/stm32g0xx_hal_pwr_ex.c ****     /* PWR PVD interrupt falling user callback */
ARM GAS  /tmp/ccqDTMd2.s 			page 50


 947:Drivers/STM32G0xx_HAL_Driver/Src/stm32g0xx_hal_pwr_ex.c ****     HAL_PWREx_PVD_PVM_Falling_Callback();
 948:Drivers/STM32G0xx_HAL_Driver/Src/stm32g0xx_hal_pwr_ex.c ****   }
 949:Drivers/STM32G0xx_HAL_Driver/Src/stm32g0xx_hal_pwr_ex.c **** 
 950:Drivers/STM32G0xx_HAL_Driver/Src/stm32g0xx_hal_pwr_ex.c ****   /* Check PWR PVM exti Rising flag */
 951:Drivers/STM32G0xx_HAL_Driver/Src/stm32g0xx_hal_pwr_ex.c ****   if (__HAL_PWR_PVM_EXTI_GET_RISING_FLAG() != 0x0U)
 952:Drivers/STM32G0xx_HAL_Driver/Src/stm32g0xx_hal_pwr_ex.c ****   {
 953:Drivers/STM32G0xx_HAL_Driver/Src/stm32g0xx_hal_pwr_ex.c ****     /* Clear PVM exti pending bit */
 954:Drivers/STM32G0xx_HAL_Driver/Src/stm32g0xx_hal_pwr_ex.c ****     __HAL_PWR_PVM_EXTI_CLEAR_RISING_FLAG();
 955:Drivers/STM32G0xx_HAL_Driver/Src/stm32g0xx_hal_pwr_ex.c **** 
 956:Drivers/STM32G0xx_HAL_Driver/Src/stm32g0xx_hal_pwr_ex.c ****     /* PWR PVD PVM interrupt rising user callback */
 957:Drivers/STM32G0xx_HAL_Driver/Src/stm32g0xx_hal_pwr_ex.c ****     HAL_PWREx_PVD_PVM_Rising_Callback();
 958:Drivers/STM32G0xx_HAL_Driver/Src/stm32g0xx_hal_pwr_ex.c ****   }
 959:Drivers/STM32G0xx_HAL_Driver/Src/stm32g0xx_hal_pwr_ex.c **** 
 960:Drivers/STM32G0xx_HAL_Driver/Src/stm32g0xx_hal_pwr_ex.c ****   /* Check PWR PVM exti fallling flag */
 961:Drivers/STM32G0xx_HAL_Driver/Src/stm32g0xx_hal_pwr_ex.c ****   if (__HAL_PWR_PVM_EXTI_GET_FALLING_FLAG() != 0x0U)
 962:Drivers/STM32G0xx_HAL_Driver/Src/stm32g0xx_hal_pwr_ex.c ****   {
 963:Drivers/STM32G0xx_HAL_Driver/Src/stm32g0xx_hal_pwr_ex.c ****     /* Clear PVM exti pending bit */
 964:Drivers/STM32G0xx_HAL_Driver/Src/stm32g0xx_hal_pwr_ex.c ****     __HAL_PWR_PVM_EXTI_CLEAR_FALLING_FLAG();
 965:Drivers/STM32G0xx_HAL_Driver/Src/stm32g0xx_hal_pwr_ex.c **** 
 966:Drivers/STM32G0xx_HAL_Driver/Src/stm32g0xx_hal_pwr_ex.c ****     /* PWR PVM interrupt falling user callback */
 967:Drivers/STM32G0xx_HAL_Driver/Src/stm32g0xx_hal_pwr_ex.c ****     HAL_PWREx_PVD_PVM_Falling_Callback();
 968:Drivers/STM32G0xx_HAL_Driver/Src/stm32g0xx_hal_pwr_ex.c ****   }
 969:Drivers/STM32G0xx_HAL_Driver/Src/stm32g0xx_hal_pwr_ex.c **** }
 970:Drivers/STM32G0xx_HAL_Driver/Src/stm32g0xx_hal_pwr_ex.c **** 
 971:Drivers/STM32G0xx_HAL_Driver/Src/stm32g0xx_hal_pwr_ex.c **** /**
 972:Drivers/STM32G0xx_HAL_Driver/Src/stm32g0xx_hal_pwr_ex.c ****   * @brief  PWR PVD interrupt rising callback
 973:Drivers/STM32G0xx_HAL_Driver/Src/stm32g0xx_hal_pwr_ex.c ****   * @retval None
 974:Drivers/STM32G0xx_HAL_Driver/Src/stm32g0xx_hal_pwr_ex.c ****   */
 975:Drivers/STM32G0xx_HAL_Driver/Src/stm32g0xx_hal_pwr_ex.c **** __weak void HAL_PWREx_PVD_PVM_Rising_Callback(void)
 976:Drivers/STM32G0xx_HAL_Driver/Src/stm32g0xx_hal_pwr_ex.c **** {
 1792              		.loc 1 976 1 is_stmt 1 view -0
 1793              		.cfi_startproc
 1794              		@ args = 0, pretend = 0, frame = 0
 1795              		@ frame_needed = 0, uses_anonymous_args = 0
 1796              		@ link register save eliminated.
 977:Drivers/STM32G0xx_HAL_Driver/Src/stm32g0xx_hal_pwr_ex.c ****   /* NOTE : This function should not be modified; when the callback is needed,
 978:Drivers/STM32G0xx_HAL_Driver/Src/stm32g0xx_hal_pwr_ex.c ****             the HAL_PWR_PVD_Rising_Callback can be implemented in the user file
 979:Drivers/STM32G0xx_HAL_Driver/Src/stm32g0xx_hal_pwr_ex.c ****   */
 980:Drivers/STM32G0xx_HAL_Driver/Src/stm32g0xx_hal_pwr_ex.c **** }
 1797              		.loc 1 980 1 view .LVU340
 1798              		@ sp needed
 1799 0000 7047     		bx	lr
 1800              		.cfi_endproc
 1801              	.LFE398:
 1803              		.section	.text.HAL_PWREx_PVD_PVM_Falling_Callback,"ax",%progbits
 1804              		.align	1
 1805              		.weak	HAL_PWREx_PVD_PVM_Falling_Callback
 1806              		.syntax unified
 1807              		.code	16
 1808              		.thumb_func
 1810              	HAL_PWREx_PVD_PVM_Falling_Callback:
 1811              	.LFB399:
 981:Drivers/STM32G0xx_HAL_Driver/Src/stm32g0xx_hal_pwr_ex.c **** 
 982:Drivers/STM32G0xx_HAL_Driver/Src/stm32g0xx_hal_pwr_ex.c **** /**
 983:Drivers/STM32G0xx_HAL_Driver/Src/stm32g0xx_hal_pwr_ex.c ****   * @brief  PWR PVD interrupt Falling callback
 984:Drivers/STM32G0xx_HAL_Driver/Src/stm32g0xx_hal_pwr_ex.c ****   * @retval None
 985:Drivers/STM32G0xx_HAL_Driver/Src/stm32g0xx_hal_pwr_ex.c ****   */
ARM GAS  /tmp/ccqDTMd2.s 			page 51


 986:Drivers/STM32G0xx_HAL_Driver/Src/stm32g0xx_hal_pwr_ex.c **** __weak void HAL_PWREx_PVD_PVM_Falling_Callback(void)
 987:Drivers/STM32G0xx_HAL_Driver/Src/stm32g0xx_hal_pwr_ex.c **** {
 1812              		.loc 1 987 1 view -0
 1813              		.cfi_startproc
 1814              		@ args = 0, pretend = 0, frame = 0
 1815              		@ frame_needed = 0, uses_anonymous_args = 0
 1816              		@ link register save eliminated.
 988:Drivers/STM32G0xx_HAL_Driver/Src/stm32g0xx_hal_pwr_ex.c ****   /* NOTE : This function should not be modified; when the callback is needed,
 989:Drivers/STM32G0xx_HAL_Driver/Src/stm32g0xx_hal_pwr_ex.c ****             the HAL_PWR_PVD_Falling_Callback can be implemented in the user file
 990:Drivers/STM32G0xx_HAL_Driver/Src/stm32g0xx_hal_pwr_ex.c ****   */
 991:Drivers/STM32G0xx_HAL_Driver/Src/stm32g0xx_hal_pwr_ex.c **** }
 1817              		.loc 1 991 1 view .LVU342
 1818              		@ sp needed
 1819 0000 7047     		bx	lr
 1820              		.cfi_endproc
 1821              	.LFE399:
 1823              		.section	.text.HAL_PWREx_PVD_PVM_IRQHandler,"ax",%progbits
 1824              		.align	1
 1825              		.global	HAL_PWREx_PVD_PVM_IRQHandler
 1826              		.syntax unified
 1827              		.code	16
 1828              		.thumb_func
 1830              	HAL_PWREx_PVD_PVM_IRQHandler:
 1831              	.LFB397:
 929:Drivers/STM32G0xx_HAL_Driver/Src/stm32g0xx_hal_pwr_ex.c ****   /* Check PWR PVD exti Rising flag */
 1832              		.loc 1 929 1 view -0
 1833              		.cfi_startproc
 1834              		@ args = 0, pretend = 0, frame = 0
 1835              		@ frame_needed = 0, uses_anonymous_args = 0
 1836 0000 10B5     		push	{r4, lr}
 1837              	.LCFI4:
 1838              		.cfi_def_cfa_offset 8
 1839              		.cfi_offset 4, -8
 1840              		.cfi_offset 14, -4
 931:Drivers/STM32G0xx_HAL_Driver/Src/stm32g0xx_hal_pwr_ex.c ****   {
 1841              		.loc 1 931 3 view .LVU344
 931:Drivers/STM32G0xx_HAL_Driver/Src/stm32g0xx_hal_pwr_ex.c ****   {
 1842              		.loc 1 931 7 is_stmt 0 view .LVU345
 1843 0002 154B     		ldr	r3, .L175
 1844 0004 DB68     		ldr	r3, [r3, #12]
 931:Drivers/STM32G0xx_HAL_Driver/Src/stm32g0xx_hal_pwr_ex.c ****   {
 1845              		.loc 1 931 6 view .LVU346
 1846 0006 DB03     		lsls	r3, r3, #15
 1847 0008 0CD4     		bmi	.L171
 1848              	.L163:
 941:Drivers/STM32G0xx_HAL_Driver/Src/stm32g0xx_hal_pwr_ex.c ****   {
 1849              		.loc 1 941 3 is_stmt 1 view .LVU347
 941:Drivers/STM32G0xx_HAL_Driver/Src/stm32g0xx_hal_pwr_ex.c ****   {
 1850              		.loc 1 941 7 is_stmt 0 view .LVU348
 1851 000a 134B     		ldr	r3, .L175
 1852 000c 1B69     		ldr	r3, [r3, #16]
 941:Drivers/STM32G0xx_HAL_Driver/Src/stm32g0xx_hal_pwr_ex.c ****   {
 1853              		.loc 1 941 6 view .LVU349
 1854 000e DB03     		lsls	r3, r3, #15
 1855 0010 0FD4     		bmi	.L172
 1856              	.L164:
 951:Drivers/STM32G0xx_HAL_Driver/Src/stm32g0xx_hal_pwr_ex.c ****   {
ARM GAS  /tmp/ccqDTMd2.s 			page 52


 1857              		.loc 1 951 3 is_stmt 1 view .LVU350
 951:Drivers/STM32G0xx_HAL_Driver/Src/stm32g0xx_hal_pwr_ex.c ****   {
 1858              		.loc 1 951 7 is_stmt 0 view .LVU351
 1859 0012 114B     		ldr	r3, .L175
 1860 0014 DB6A     		ldr	r3, [r3, #44]
 951:Drivers/STM32G0xx_HAL_Driver/Src/stm32g0xx_hal_pwr_ex.c ****   {
 1861              		.loc 1 951 6 view .LVU352
 1862 0016 5B07     		lsls	r3, r3, #29
 1863 0018 12D4     		bmi	.L173
 1864              	.L165:
 961:Drivers/STM32G0xx_HAL_Driver/Src/stm32g0xx_hal_pwr_ex.c ****   {
 1865              		.loc 1 961 3 is_stmt 1 view .LVU353
 961:Drivers/STM32G0xx_HAL_Driver/Src/stm32g0xx_hal_pwr_ex.c ****   {
 1866              		.loc 1 961 7 is_stmt 0 view .LVU354
 1867 001a 0F4B     		ldr	r3, .L175
 1868 001c 1B6B     		ldr	r3, [r3, #48]
 961:Drivers/STM32G0xx_HAL_Driver/Src/stm32g0xx_hal_pwr_ex.c ****   {
 1869              		.loc 1 961 6 view .LVU355
 1870 001e 5B07     		lsls	r3, r3, #29
 1871 0020 14D4     		bmi	.L174
 1872              	.L162:
 969:Drivers/STM32G0xx_HAL_Driver/Src/stm32g0xx_hal_pwr_ex.c **** 
 1873              		.loc 1 969 1 view .LVU356
 1874              		@ sp needed
 1875 0022 10BD     		pop	{r4, pc}
 1876              	.L171:
 934:Drivers/STM32G0xx_HAL_Driver/Src/stm32g0xx_hal_pwr_ex.c **** 
 1877              		.loc 1 934 5 is_stmt 1 view .LVU357
 1878 0024 0C4B     		ldr	r3, .L175
 1879 0026 8022     		movs	r2, #128
 1880 0028 5202     		lsls	r2, r2, #9
 1881 002a DA60     		str	r2, [r3, #12]
 937:Drivers/STM32G0xx_HAL_Driver/Src/stm32g0xx_hal_pwr_ex.c ****   }
 1882              		.loc 1 937 5 view .LVU358
 1883 002c FFF7FEFF 		bl	HAL_PWREx_PVD_PVM_Rising_Callback
 1884              	.LVL56:
 1885 0030 EBE7     		b	.L163
 1886              	.L172:
 944:Drivers/STM32G0xx_HAL_Driver/Src/stm32g0xx_hal_pwr_ex.c **** 
 1887              		.loc 1 944 5 view .LVU359
 1888 0032 094B     		ldr	r3, .L175
 1889 0034 8022     		movs	r2, #128
 1890 0036 5202     		lsls	r2, r2, #9
 1891 0038 1A61     		str	r2, [r3, #16]
 947:Drivers/STM32G0xx_HAL_Driver/Src/stm32g0xx_hal_pwr_ex.c ****   }
 1892              		.loc 1 947 5 view .LVU360
 1893 003a FFF7FEFF 		bl	HAL_PWREx_PVD_PVM_Falling_Callback
 1894              	.LVL57:
 1895 003e E8E7     		b	.L164
 1896              	.L173:
 954:Drivers/STM32G0xx_HAL_Driver/Src/stm32g0xx_hal_pwr_ex.c **** 
 1897              		.loc 1 954 5 view .LVU361
 1898 0040 054B     		ldr	r3, .L175
 1899 0042 0422     		movs	r2, #4
 1900 0044 DA62     		str	r2, [r3, #44]
 957:Drivers/STM32G0xx_HAL_Driver/Src/stm32g0xx_hal_pwr_ex.c ****   }
 1901              		.loc 1 957 5 view .LVU362
ARM GAS  /tmp/ccqDTMd2.s 			page 53


 1902 0046 FFF7FEFF 		bl	HAL_PWREx_PVD_PVM_Rising_Callback
 1903              	.LVL58:
 1904 004a E6E7     		b	.L165
 1905              	.L174:
 964:Drivers/STM32G0xx_HAL_Driver/Src/stm32g0xx_hal_pwr_ex.c **** 
 1906              		.loc 1 964 5 view .LVU363
 1907 004c 024B     		ldr	r3, .L175
 1908 004e 0422     		movs	r2, #4
 1909 0050 1A63     		str	r2, [r3, #48]
 967:Drivers/STM32G0xx_HAL_Driver/Src/stm32g0xx_hal_pwr_ex.c ****   }
 1910              		.loc 1 967 5 view .LVU364
 1911 0052 FFF7FEFF 		bl	HAL_PWREx_PVD_PVM_Falling_Callback
 1912              	.LVL59:
 969:Drivers/STM32G0xx_HAL_Driver/Src/stm32g0xx_hal_pwr_ex.c **** 
 1913              		.loc 1 969 1 is_stmt 0 view .LVU365
 1914 0056 E4E7     		b	.L162
 1915              	.L176:
 1916              		.align	2
 1917              	.L175:
 1918 0058 00180240 		.word	1073879040
 1919              		.cfi_endproc
 1920              	.LFE397:
 1922              		.text
 1923              	.Letext0:
 1924              		.file 2 "/usr/lib/gcc/arm-none-eabi/13.2.1/include/stdint.h"
 1925              		.file 3 "Drivers/CMSIS/Include/core_cm0plus.h"
 1926              		.file 4 "Drivers/CMSIS/Device/ST/STM32G0xx/Include/stm32g0b1xx.h"
 1927              		.file 5 "Drivers/STM32G0xx_HAL_Driver/Inc/stm32g0xx_hal_def.h"
 1928              		.file 6 "Drivers/STM32G0xx_HAL_Driver/Inc/stm32g0xx_hal_pwr_ex.h"
 1929              		.file 7 "Drivers/CMSIS/Device/ST/STM32G0xx/Include/system_stm32g0xx.h"
 1930              		.file 8 "Drivers/STM32G0xx_HAL_Driver/Inc/stm32g0xx_ll_dma.h"
ARM GAS  /tmp/ccqDTMd2.s 			page 54

