ARM GAS  /tmp/cc3M98Wq.s 			page 1


   1              		.cpu cortex-m0plus
   2              		.arch armv6s-m
   3              		.fpu softvfp
   4              		.eabi_attribute 20, 1
   5              		.eabi_attribute 21, 1
   6              		.eabi_attribute 23, 3
   7              		.eabi_attribute 24, 1
   8              		.eabi_attribute 25, 1
   9              		.eabi_attribute 26, 1
  10              		.eabi_attribute 30, 1
  11              		.eabi_attribute 34, 0
  12              		.eabi_attribute 18, 4
  13              		.file	"stm32g0xx_ll_usb.c"
  14              		.text
  15              	.Ltext0:
  16              		.cfi_sections	.debug_frame
  17              		.file 1 "Drivers/STM32G0xx_HAL_Driver/Src/stm32g0xx_ll_usb.c"
  18              		.section	.text.USB_CoreReset,"ax",%progbits
  19              		.align	1
  20              		.syntax unified
  21              		.code	16
  22              		.thumb_func
  24              	USB_CoreReset:
  25              	.LVL0:
  26              	.LFB366:
   1:Drivers/STM32G0xx_HAL_Driver/Src/stm32g0xx_ll_usb.c **** /**
   2:Drivers/STM32G0xx_HAL_Driver/Src/stm32g0xx_ll_usb.c ****   ******************************************************************************
   3:Drivers/STM32G0xx_HAL_Driver/Src/stm32g0xx_ll_usb.c ****   * @file    stm32g0xx_ll_usb.c
   4:Drivers/STM32G0xx_HAL_Driver/Src/stm32g0xx_ll_usb.c ****   * @author  MCD Application Team
   5:Drivers/STM32G0xx_HAL_Driver/Src/stm32g0xx_ll_usb.c ****   * @brief   USB Low Layer HAL module driver.
   6:Drivers/STM32G0xx_HAL_Driver/Src/stm32g0xx_ll_usb.c ****   *
   7:Drivers/STM32G0xx_HAL_Driver/Src/stm32g0xx_ll_usb.c ****   *          This file provides firmware functions to manage the following
   8:Drivers/STM32G0xx_HAL_Driver/Src/stm32g0xx_ll_usb.c ****   *          functionalities of the USB Peripheral Controller:
   9:Drivers/STM32G0xx_HAL_Driver/Src/stm32g0xx_ll_usb.c ****   *           + Initialization/de-initialization functions
  10:Drivers/STM32G0xx_HAL_Driver/Src/stm32g0xx_ll_usb.c ****   *           + I/O operation functions
  11:Drivers/STM32G0xx_HAL_Driver/Src/stm32g0xx_ll_usb.c ****   *           + Peripheral Control functions
  12:Drivers/STM32G0xx_HAL_Driver/Src/stm32g0xx_ll_usb.c ****   *           + Peripheral State functions
  13:Drivers/STM32G0xx_HAL_Driver/Src/stm32g0xx_ll_usb.c ****   *
  14:Drivers/STM32G0xx_HAL_Driver/Src/stm32g0xx_ll_usb.c ****   ******************************************************************************
  15:Drivers/STM32G0xx_HAL_Driver/Src/stm32g0xx_ll_usb.c ****   * @attention
  16:Drivers/STM32G0xx_HAL_Driver/Src/stm32g0xx_ll_usb.c ****   *
  17:Drivers/STM32G0xx_HAL_Driver/Src/stm32g0xx_ll_usb.c ****   * Copyright (c) 2018 STMicroelectronics.
  18:Drivers/STM32G0xx_HAL_Driver/Src/stm32g0xx_ll_usb.c ****   * All rights reserved.
  19:Drivers/STM32G0xx_HAL_Driver/Src/stm32g0xx_ll_usb.c ****   *
  20:Drivers/STM32G0xx_HAL_Driver/Src/stm32g0xx_ll_usb.c ****   * This software is licensed under terms that can be found in the LICENSE file
  21:Drivers/STM32G0xx_HAL_Driver/Src/stm32g0xx_ll_usb.c ****   * in the root directory of this software component.
  22:Drivers/STM32G0xx_HAL_Driver/Src/stm32g0xx_ll_usb.c ****   * If no LICENSE file comes with this software, it is provided AS-IS.
  23:Drivers/STM32G0xx_HAL_Driver/Src/stm32g0xx_ll_usb.c ****   *
  24:Drivers/STM32G0xx_HAL_Driver/Src/stm32g0xx_ll_usb.c ****   ******************************************************************************
  25:Drivers/STM32G0xx_HAL_Driver/Src/stm32g0xx_ll_usb.c ****   @verbatim
  26:Drivers/STM32G0xx_HAL_Driver/Src/stm32g0xx_ll_usb.c ****   ==============================================================================
  27:Drivers/STM32G0xx_HAL_Driver/Src/stm32g0xx_ll_usb.c ****                     ##### How to use this driver #####
  28:Drivers/STM32G0xx_HAL_Driver/Src/stm32g0xx_ll_usb.c ****   ==============================================================================
  29:Drivers/STM32G0xx_HAL_Driver/Src/stm32g0xx_ll_usb.c ****     [..]
  30:Drivers/STM32G0xx_HAL_Driver/Src/stm32g0xx_ll_usb.c ****       (#) Fill parameters of Init structure in USB_CfgTypeDef structure.
  31:Drivers/STM32G0xx_HAL_Driver/Src/stm32g0xx_ll_usb.c **** 
  32:Drivers/STM32G0xx_HAL_Driver/Src/stm32g0xx_ll_usb.c ****       (#) Call USB_CoreInit() API to initialize the USB Core peripheral.
ARM GAS  /tmp/cc3M98Wq.s 			page 2


  33:Drivers/STM32G0xx_HAL_Driver/Src/stm32g0xx_ll_usb.c **** 
  34:Drivers/STM32G0xx_HAL_Driver/Src/stm32g0xx_ll_usb.c ****       (#) The upper HAL HCD/PCD driver will call the right routines for its internal processes.
  35:Drivers/STM32G0xx_HAL_Driver/Src/stm32g0xx_ll_usb.c **** 
  36:Drivers/STM32G0xx_HAL_Driver/Src/stm32g0xx_ll_usb.c ****       (#)NOTE: For applications not using double buffer mode, define the symbol
  37:Drivers/STM32G0xx_HAL_Driver/Src/stm32g0xx_ll_usb.c ****                 'USE_USB_DOUBLE_BUFFER' as 0 to reduce the driver's memory footprint.
  38:Drivers/STM32G0xx_HAL_Driver/Src/stm32g0xx_ll_usb.c **** 
  39:Drivers/STM32G0xx_HAL_Driver/Src/stm32g0xx_ll_usb.c ****   @endverbatim
  40:Drivers/STM32G0xx_HAL_Driver/Src/stm32g0xx_ll_usb.c **** 
  41:Drivers/STM32G0xx_HAL_Driver/Src/stm32g0xx_ll_usb.c ****   ******************************************************************************
  42:Drivers/STM32G0xx_HAL_Driver/Src/stm32g0xx_ll_usb.c ****   */
  43:Drivers/STM32G0xx_HAL_Driver/Src/stm32g0xx_ll_usb.c **** 
  44:Drivers/STM32G0xx_HAL_Driver/Src/stm32g0xx_ll_usb.c **** /* Includes ------------------------------------------------------------------*/
  45:Drivers/STM32G0xx_HAL_Driver/Src/stm32g0xx_ll_usb.c **** #include "stm32g0xx_hal.h"
  46:Drivers/STM32G0xx_HAL_Driver/Src/stm32g0xx_ll_usb.c **** 
  47:Drivers/STM32G0xx_HAL_Driver/Src/stm32g0xx_ll_usb.c **** /** @addtogroup STM32G0xx_LL_USB_DRIVER
  48:Drivers/STM32G0xx_HAL_Driver/Src/stm32g0xx_ll_usb.c ****   * @{
  49:Drivers/STM32G0xx_HAL_Driver/Src/stm32g0xx_ll_usb.c ****   */
  50:Drivers/STM32G0xx_HAL_Driver/Src/stm32g0xx_ll_usb.c **** 
  51:Drivers/STM32G0xx_HAL_Driver/Src/stm32g0xx_ll_usb.c **** #if defined (HAL_PCD_MODULE_ENABLED) || defined (HAL_HCD_MODULE_ENABLED)
  52:Drivers/STM32G0xx_HAL_Driver/Src/stm32g0xx_ll_usb.c **** #if defined (USB_DRD_FS)
  53:Drivers/STM32G0xx_HAL_Driver/Src/stm32g0xx_ll_usb.c **** /* Private typedef -----------------------------------------------------------*/
  54:Drivers/STM32G0xx_HAL_Driver/Src/stm32g0xx_ll_usb.c **** /* Private define ------------------------------------------------------------*/
  55:Drivers/STM32G0xx_HAL_Driver/Src/stm32g0xx_ll_usb.c **** /* Private macro -------------------------------------------------------------*/
  56:Drivers/STM32G0xx_HAL_Driver/Src/stm32g0xx_ll_usb.c **** /* Private variables ---------------------------------------------------------*/
  57:Drivers/STM32G0xx_HAL_Driver/Src/stm32g0xx_ll_usb.c **** /* Private function prototypes -----------------------------------------------*/
  58:Drivers/STM32G0xx_HAL_Driver/Src/stm32g0xx_ll_usb.c **** /* Private functions ---------------------------------------------------------*/
  59:Drivers/STM32G0xx_HAL_Driver/Src/stm32g0xx_ll_usb.c **** 
  60:Drivers/STM32G0xx_HAL_Driver/Src/stm32g0xx_ll_usb.c **** static HAL_StatusTypeDef USB_CoreReset(USB_DRD_TypeDef *USBx);
  61:Drivers/STM32G0xx_HAL_Driver/Src/stm32g0xx_ll_usb.c **** #if defined (HAL_HCD_MODULE_ENABLED)
  62:Drivers/STM32G0xx_HAL_Driver/Src/stm32g0xx_ll_usb.c **** #if (USE_USB_DOUBLE_BUFFER == 1U)
  63:Drivers/STM32G0xx_HAL_Driver/Src/stm32g0xx_ll_usb.c **** static HAL_StatusTypeDef USB_HC_BULK_DB_StartXfer(USB_DRD_TypeDef *USBx,
  64:Drivers/STM32G0xx_HAL_Driver/Src/stm32g0xx_ll_usb.c ****                                                   USB_DRD_HCTypeDef *hc,
  65:Drivers/STM32G0xx_HAL_Driver/Src/stm32g0xx_ll_usb.c ****                                                   uint32_t ch_reg,
  66:Drivers/STM32G0xx_HAL_Driver/Src/stm32g0xx_ll_usb.c ****                                                   uint32_t *len);
  67:Drivers/STM32G0xx_HAL_Driver/Src/stm32g0xx_ll_usb.c **** 
  68:Drivers/STM32G0xx_HAL_Driver/Src/stm32g0xx_ll_usb.c **** static HAL_StatusTypeDef USB_HC_ISO_DB_StartXfer(USB_DRD_TypeDef *USBx,
  69:Drivers/STM32G0xx_HAL_Driver/Src/stm32g0xx_ll_usb.c ****                                                  USB_DRD_HCTypeDef *hc,
  70:Drivers/STM32G0xx_HAL_Driver/Src/stm32g0xx_ll_usb.c ****                                                  uint32_t len);
  71:Drivers/STM32G0xx_HAL_Driver/Src/stm32g0xx_ll_usb.c **** #endif /* (USE_USB_DOUBLE_BUFFER == 1U) */
  72:Drivers/STM32G0xx_HAL_Driver/Src/stm32g0xx_ll_usb.c **** #endif /* defined (HAL_HCD_MODULE_ENABLED) */
  73:Drivers/STM32G0xx_HAL_Driver/Src/stm32g0xx_ll_usb.c **** 
  74:Drivers/STM32G0xx_HAL_Driver/Src/stm32g0xx_ll_usb.c **** /**
  75:Drivers/STM32G0xx_HAL_Driver/Src/stm32g0xx_ll_usb.c ****   * @brief  Reset the USB Core (needed after USB clock settings change)
  76:Drivers/STM32G0xx_HAL_Driver/Src/stm32g0xx_ll_usb.c ****   * @param  USBx Selected device
  77:Drivers/STM32G0xx_HAL_Driver/Src/stm32g0xx_ll_usb.c ****   * @retval HAL status
  78:Drivers/STM32G0xx_HAL_Driver/Src/stm32g0xx_ll_usb.c ****   */
  79:Drivers/STM32G0xx_HAL_Driver/Src/stm32g0xx_ll_usb.c **** static HAL_StatusTypeDef USB_CoreReset(USB_DRD_TypeDef *USBx)
  80:Drivers/STM32G0xx_HAL_Driver/Src/stm32g0xx_ll_usb.c **** {
  27              		.loc 1 80 1 view -0
  28              		.cfi_startproc
  29              		@ args = 0, pretend = 0, frame = 0
  30              		@ frame_needed = 0, uses_anonymous_args = 0
  31              		@ link register save eliminated.
  81:Drivers/STM32G0xx_HAL_Driver/Src/stm32g0xx_ll_usb.c ****   /* Disable Host Mode */
  82:Drivers/STM32G0xx_HAL_Driver/Src/stm32g0xx_ll_usb.c ****   USBx->CNTR &= ~USB_CNTR_HOST;
  32              		.loc 1 82 3 view .LVU1
  33              		.loc 1 82 7 is_stmt 0 view .LVU2
ARM GAS  /tmp/cc3M98Wq.s 			page 3


  34 0000 036C     		ldr	r3, [r0, #64]
  35              		.loc 1 82 14 view .LVU3
  36 0002 5B00     		lsls	r3, r3, #1
  37 0004 5B08     		lsrs	r3, r3, #1
  38 0006 0364     		str	r3, [r0, #64]
  83:Drivers/STM32G0xx_HAL_Driver/Src/stm32g0xx_ll_usb.c **** 
  84:Drivers/STM32G0xx_HAL_Driver/Src/stm32g0xx_ll_usb.c ****   /* Force Reset IP */
  85:Drivers/STM32G0xx_HAL_Driver/Src/stm32g0xx_ll_usb.c ****   USBx->CNTR |= USB_CNTR_USBRST;
  39              		.loc 1 85 3 is_stmt 1 view .LVU4
  40              		.loc 1 85 7 is_stmt 0 view .LVU5
  41 0008 036C     		ldr	r3, [r0, #64]
  42              		.loc 1 85 14 view .LVU6
  43 000a 0122     		movs	r2, #1
  44 000c 1343     		orrs	r3, r2
  45 000e 0364     		str	r3, [r0, #64]
  86:Drivers/STM32G0xx_HAL_Driver/Src/stm32g0xx_ll_usb.c **** 
  87:Drivers/STM32G0xx_HAL_Driver/Src/stm32g0xx_ll_usb.c ****   return HAL_OK;
  46              		.loc 1 87 3 is_stmt 1 view .LVU7
  88:Drivers/STM32G0xx_HAL_Driver/Src/stm32g0xx_ll_usb.c **** }
  47              		.loc 1 88 1 is_stmt 0 view .LVU8
  48 0010 0020     		movs	r0, #0
  49              	.LVL1:
  50              		.loc 1 88 1 view .LVU9
  51              		@ sp needed
  52 0012 7047     		bx	lr
  53              		.cfi_endproc
  54              	.LFE366:
  56              		.section	.text.USB_CoreInit,"ax",%progbits
  57              		.align	1
  58              		.global	USB_CoreInit
  59              		.syntax unified
  60              		.code	16
  61              		.thumb_func
  63              	USB_CoreInit:
  64              	.LVL2:
  65              	.LFB367:
  89:Drivers/STM32G0xx_HAL_Driver/Src/stm32g0xx_ll_usb.c **** 
  90:Drivers/STM32G0xx_HAL_Driver/Src/stm32g0xx_ll_usb.c **** /**
  91:Drivers/STM32G0xx_HAL_Driver/Src/stm32g0xx_ll_usb.c ****   * @brief  Initializes the USB Core
  92:Drivers/STM32G0xx_HAL_Driver/Src/stm32g0xx_ll_usb.c ****   * @param  USBx USB Instance
  93:Drivers/STM32G0xx_HAL_Driver/Src/stm32g0xx_ll_usb.c ****   * @param  cfg pointer to a USB_CfgTypeDef structure that contains
  94:Drivers/STM32G0xx_HAL_Driver/Src/stm32g0xx_ll_usb.c ****   *         the configuration information for the specified USBx peripheral.
  95:Drivers/STM32G0xx_HAL_Driver/Src/stm32g0xx_ll_usb.c ****   * @retval HAL status
  96:Drivers/STM32G0xx_HAL_Driver/Src/stm32g0xx_ll_usb.c ****   */
  97:Drivers/STM32G0xx_HAL_Driver/Src/stm32g0xx_ll_usb.c **** HAL_StatusTypeDef USB_CoreInit(USB_DRD_TypeDef *USBx, USB_DRD_CfgTypeDef cfg)
  98:Drivers/STM32G0xx_HAL_Driver/Src/stm32g0xx_ll_usb.c **** {
  66              		.loc 1 98 1 is_stmt 1 view -0
  67              		.cfi_startproc
  68              		@ args = 20, pretend = 16, frame = 0
  69              		@ frame_needed = 0, uses_anonymous_args = 0
  70              		.loc 1 98 1 is_stmt 0 view .LVU11
  71 0000 84B0     		sub	sp, sp, #16
  72              	.LCFI0:
  73              		.cfi_def_cfa_offset 16
  74 0002 10B5     		push	{r4, lr}
  75              	.LCFI1:
  76              		.cfi_def_cfa_offset 24
ARM GAS  /tmp/cc3M98Wq.s 			page 4


  77              		.cfi_offset 4, -24
  78              		.cfi_offset 14, -20
  79 0004 041E     		subs	r4, r0, #0
  80 0006 0391     		str	r1, [sp, #12]
  81 0008 0492     		str	r2, [sp, #16]
  82 000a 0593     		str	r3, [sp, #20]
  99:Drivers/STM32G0xx_HAL_Driver/Src/stm32g0xx_ll_usb.c ****   HAL_StatusTypeDef ret;
  83              		.loc 1 99 3 is_stmt 1 view .LVU12
 100:Drivers/STM32G0xx_HAL_Driver/Src/stm32g0xx_ll_usb.c ****   UNUSED(cfg);
  84              		.loc 1 100 3 view .LVU13
 101:Drivers/STM32G0xx_HAL_Driver/Src/stm32g0xx_ll_usb.c **** 
 102:Drivers/STM32G0xx_HAL_Driver/Src/stm32g0xx_ll_usb.c ****   if (USBx == NULL)
  85              		.loc 1 102 3 view .LVU14
  86              		.loc 1 102 6 is_stmt 0 view .LVU15
  87 000c 07D0     		beq	.L4
 103:Drivers/STM32G0xx_HAL_Driver/Src/stm32g0xx_ll_usb.c ****   {
 104:Drivers/STM32G0xx_HAL_Driver/Src/stm32g0xx_ll_usb.c ****     return HAL_ERROR;
 105:Drivers/STM32G0xx_HAL_Driver/Src/stm32g0xx_ll_usb.c ****   }
 106:Drivers/STM32G0xx_HAL_Driver/Src/stm32g0xx_ll_usb.c **** 
 107:Drivers/STM32G0xx_HAL_Driver/Src/stm32g0xx_ll_usb.c ****   /* Reset after a PHY select */
 108:Drivers/STM32G0xx_HAL_Driver/Src/stm32g0xx_ll_usb.c ****   ret = USB_CoreReset(USBx);
  88              		.loc 1 108 3 is_stmt 1 view .LVU16
  89              		.loc 1 108 9 is_stmt 0 view .LVU17
  90 000e FFF7FEFF 		bl	USB_CoreReset
  91              	.LVL3:
 109:Drivers/STM32G0xx_HAL_Driver/Src/stm32g0xx_ll_usb.c **** 
 110:Drivers/STM32G0xx_HAL_Driver/Src/stm32g0xx_ll_usb.c ****   /* Clear pending interrupts */
 111:Drivers/STM32G0xx_HAL_Driver/Src/stm32g0xx_ll_usb.c ****   USBx->ISTR = 0U;
  92              		.loc 1 111 3 is_stmt 1 view .LVU18
  93              		.loc 1 111 14 is_stmt 0 view .LVU19
  94 0012 0023     		movs	r3, #0
  95 0014 6364     		str	r3, [r4, #68]
 112:Drivers/STM32G0xx_HAL_Driver/Src/stm32g0xx_ll_usb.c **** 
 113:Drivers/STM32G0xx_HAL_Driver/Src/stm32g0xx_ll_usb.c ****   return ret;
  96              		.loc 1 113 3 is_stmt 1 view .LVU20
  97              	.LVL4:
  98              	.L3:
 114:Drivers/STM32G0xx_HAL_Driver/Src/stm32g0xx_ll_usb.c **** }
  99              		.loc 1 114 1 is_stmt 0 view .LVU21
 100              		@ sp needed
 101              	.LVL5:
 102              		.loc 1 114 1 view .LVU22
 103 0016 10BC     		pop	{r4}
 104 0018 08BC     		pop	{r3}
 105 001a 04B0     		add	sp, sp, #16
 106 001c 1847     		bx	r3
 107              	.LVL6:
 108              	.L4:
 104:Drivers/STM32G0xx_HAL_Driver/Src/stm32g0xx_ll_usb.c ****   }
 109              		.loc 1 104 12 view .LVU23
 110 001e 0120     		movs	r0, #1
 111              	.LVL7:
 104:Drivers/STM32G0xx_HAL_Driver/Src/stm32g0xx_ll_usb.c ****   }
 112              		.loc 1 104 12 view .LVU24
 113 0020 F9E7     		b	.L3
 114              		.cfi_endproc
 115              	.LFE367:
ARM GAS  /tmp/cc3M98Wq.s 			page 5


 117              		.section	.text.USB_EnableGlobalInt,"ax",%progbits
 118              		.align	1
 119              		.global	USB_EnableGlobalInt
 120              		.syntax unified
 121              		.code	16
 122              		.thumb_func
 124              	USB_EnableGlobalInt:
 125              	.LVL8:
 126              	.LFB368:
 115:Drivers/STM32G0xx_HAL_Driver/Src/stm32g0xx_ll_usb.c **** 
 116:Drivers/STM32G0xx_HAL_Driver/Src/stm32g0xx_ll_usb.c **** /**
 117:Drivers/STM32G0xx_HAL_Driver/Src/stm32g0xx_ll_usb.c ****   * @brief  USB_EnableGlobalInt
 118:Drivers/STM32G0xx_HAL_Driver/Src/stm32g0xx_ll_usb.c ****   *         Enables the controller's Global Int in the AHB Config reg
 119:Drivers/STM32G0xx_HAL_Driver/Src/stm32g0xx_ll_usb.c ****   * @param  USBx Selected device
 120:Drivers/STM32G0xx_HAL_Driver/Src/stm32g0xx_ll_usb.c ****   * @retval HAL status
 121:Drivers/STM32G0xx_HAL_Driver/Src/stm32g0xx_ll_usb.c ****   */
 122:Drivers/STM32G0xx_HAL_Driver/Src/stm32g0xx_ll_usb.c **** HAL_StatusTypeDef USB_EnableGlobalInt(USB_DRD_TypeDef *USBx)
 123:Drivers/STM32G0xx_HAL_Driver/Src/stm32g0xx_ll_usb.c **** {
 127              		.loc 1 123 1 is_stmt 1 view -0
 128              		.cfi_startproc
 129              		@ args = 0, pretend = 0, frame = 0
 130              		@ frame_needed = 0, uses_anonymous_args = 0
 131              		@ link register save eliminated.
 124:Drivers/STM32G0xx_HAL_Driver/Src/stm32g0xx_ll_usb.c ****   uint32_t winterruptmask;
 132              		.loc 1 124 3 view .LVU26
 125:Drivers/STM32G0xx_HAL_Driver/Src/stm32g0xx_ll_usb.c **** 
 126:Drivers/STM32G0xx_HAL_Driver/Src/stm32g0xx_ll_usb.c ****   /* Clear pending interrupts */
 127:Drivers/STM32G0xx_HAL_Driver/Src/stm32g0xx_ll_usb.c ****   USBx->ISTR = 0U;
 133              		.loc 1 127 3 view .LVU27
 134              		.loc 1 127 14 is_stmt 0 view .LVU28
 135 0000 0023     		movs	r3, #0
 136 0002 4364     		str	r3, [r0, #68]
 128:Drivers/STM32G0xx_HAL_Driver/Src/stm32g0xx_ll_usb.c **** 
 129:Drivers/STM32G0xx_HAL_Driver/Src/stm32g0xx_ll_usb.c ****   /* Set winterruptmask variable */
 130:Drivers/STM32G0xx_HAL_Driver/Src/stm32g0xx_ll_usb.c ****   winterruptmask = USB_CNTR_CTRM  | USB_CNTR_WKUPM |
 137              		.loc 1 130 3 is_stmt 1 view .LVU29
 138              	.LVL9:
 131:Drivers/STM32G0xx_HAL_Driver/Src/stm32g0xx_ll_usb.c ****                    USB_CNTR_SUSPM | USB_CNTR_ERRM |
 132:Drivers/STM32G0xx_HAL_Driver/Src/stm32g0xx_ll_usb.c ****                    USB_CNTR_SOFM | USB_CNTR_ESOFM |
 133:Drivers/STM32G0xx_HAL_Driver/Src/stm32g0xx_ll_usb.c ****                    USB_CNTR_RESETM | USB_CNTR_L1REQM;
 134:Drivers/STM32G0xx_HAL_Driver/Src/stm32g0xx_ll_usb.c **** 
 135:Drivers/STM32G0xx_HAL_Driver/Src/stm32g0xx_ll_usb.c ****   /* Set interrupt mask */
 136:Drivers/STM32G0xx_HAL_Driver/Src/stm32g0xx_ll_usb.c ****   USBx->CNTR = winterruptmask;
 139              		.loc 1 136 3 view .LVU30
 140              		.loc 1 136 14 is_stmt 0 view .LVU31
 141 0004 014B     		ldr	r3, .L6
 142 0006 0364     		str	r3, [r0, #64]
 137:Drivers/STM32G0xx_HAL_Driver/Src/stm32g0xx_ll_usb.c **** 
 138:Drivers/STM32G0xx_HAL_Driver/Src/stm32g0xx_ll_usb.c ****   return HAL_OK;
 143              		.loc 1 138 3 is_stmt 1 view .LVU32
 139:Drivers/STM32G0xx_HAL_Driver/Src/stm32g0xx_ll_usb.c **** }
 144              		.loc 1 139 1 is_stmt 0 view .LVU33
 145 0008 0020     		movs	r0, #0
 146              	.LVL10:
 147              		.loc 1 139 1 view .LVU34
 148              		@ sp needed
 149 000a 7047     		bx	lr
ARM GAS  /tmp/cc3M98Wq.s 			page 6


 150              	.L7:
 151              		.align	2
 152              	.L6:
 153 000c 80BF0000 		.word	49024
 154              		.cfi_endproc
 155              	.LFE368:
 157              		.section	.text.USB_DisableGlobalInt,"ax",%progbits
 158              		.align	1
 159              		.global	USB_DisableGlobalInt
 160              		.syntax unified
 161              		.code	16
 162              		.thumb_func
 164              	USB_DisableGlobalInt:
 165              	.LVL11:
 166              	.LFB369:
 140:Drivers/STM32G0xx_HAL_Driver/Src/stm32g0xx_ll_usb.c **** 
 141:Drivers/STM32G0xx_HAL_Driver/Src/stm32g0xx_ll_usb.c **** /**
 142:Drivers/STM32G0xx_HAL_Driver/Src/stm32g0xx_ll_usb.c ****   * @brief  USB_DisableGlobalInt
 143:Drivers/STM32G0xx_HAL_Driver/Src/stm32g0xx_ll_usb.c ****   *         Disable the controller's Global Int in the AHB Config reg
 144:Drivers/STM32G0xx_HAL_Driver/Src/stm32g0xx_ll_usb.c ****   * @param  USBx Selected device
 145:Drivers/STM32G0xx_HAL_Driver/Src/stm32g0xx_ll_usb.c ****   * @retval HAL status
 146:Drivers/STM32G0xx_HAL_Driver/Src/stm32g0xx_ll_usb.c ****   */
 147:Drivers/STM32G0xx_HAL_Driver/Src/stm32g0xx_ll_usb.c **** HAL_StatusTypeDef USB_DisableGlobalInt(USB_DRD_TypeDef *USBx)
 148:Drivers/STM32G0xx_HAL_Driver/Src/stm32g0xx_ll_usb.c **** {
 167              		.loc 1 148 1 is_stmt 1 view -0
 168              		.cfi_startproc
 169              		@ args = 0, pretend = 0, frame = 0
 170              		@ frame_needed = 0, uses_anonymous_args = 0
 171              		@ link register save eliminated.
 149:Drivers/STM32G0xx_HAL_Driver/Src/stm32g0xx_ll_usb.c ****   uint32_t winterruptmask;
 172              		.loc 1 149 3 view .LVU36
 150:Drivers/STM32G0xx_HAL_Driver/Src/stm32g0xx_ll_usb.c **** 
 151:Drivers/STM32G0xx_HAL_Driver/Src/stm32g0xx_ll_usb.c ****   /* Set winterruptmask variable */
 152:Drivers/STM32G0xx_HAL_Driver/Src/stm32g0xx_ll_usb.c ****   winterruptmask = USB_CNTR_CTRM  | USB_CNTR_WKUPM |
 173              		.loc 1 152 3 view .LVU37
 153:Drivers/STM32G0xx_HAL_Driver/Src/stm32g0xx_ll_usb.c ****                    USB_CNTR_SUSPM | USB_CNTR_ERRM |
 154:Drivers/STM32G0xx_HAL_Driver/Src/stm32g0xx_ll_usb.c ****                    USB_CNTR_SOFM | USB_CNTR_ESOFM |
 155:Drivers/STM32G0xx_HAL_Driver/Src/stm32g0xx_ll_usb.c ****                    USB_CNTR_RESETM | USB_CNTR_L1REQM;
 156:Drivers/STM32G0xx_HAL_Driver/Src/stm32g0xx_ll_usb.c **** 
 157:Drivers/STM32G0xx_HAL_Driver/Src/stm32g0xx_ll_usb.c ****   /* Clear interrupt mask */
 158:Drivers/STM32G0xx_HAL_Driver/Src/stm32g0xx_ll_usb.c ****   USBx->CNTR &= ~winterruptmask;
 174              		.loc 1 158 3 view .LVU38
 175              		.loc 1 158 7 is_stmt 0 view .LVU39
 176 0000 036C     		ldr	r3, [r0, #64]
 177              		.loc 1 158 14 view .LVU40
 178 0002 024A     		ldr	r2, .L9
 179 0004 1340     		ands	r3, r2
 180 0006 0364     		str	r3, [r0, #64]
 159:Drivers/STM32G0xx_HAL_Driver/Src/stm32g0xx_ll_usb.c **** 
 160:Drivers/STM32G0xx_HAL_Driver/Src/stm32g0xx_ll_usb.c ****   return HAL_OK;
 181              		.loc 1 160 3 is_stmt 1 view .LVU41
 161:Drivers/STM32G0xx_HAL_Driver/Src/stm32g0xx_ll_usb.c **** }
 182              		.loc 1 161 1 is_stmt 0 view .LVU42
 183 0008 0020     		movs	r0, #0
 184              	.LVL12:
 185              		.loc 1 161 1 view .LVU43
 186              		@ sp needed
ARM GAS  /tmp/cc3M98Wq.s 			page 7


 187 000a 7047     		bx	lr
 188              	.L10:
 189              		.align	2
 190              	.L9:
 191 000c 7F40FFFF 		.word	-49025
 192              		.cfi_endproc
 193              	.LFE369:
 195              		.section	.text.USB_SetCurrentMode,"ax",%progbits
 196              		.align	1
 197              		.global	USB_SetCurrentMode
 198              		.syntax unified
 199              		.code	16
 200              		.thumb_func
 202              	USB_SetCurrentMode:
 203              	.LVL13:
 204              	.LFB370:
 162:Drivers/STM32G0xx_HAL_Driver/Src/stm32g0xx_ll_usb.c **** 
 163:Drivers/STM32G0xx_HAL_Driver/Src/stm32g0xx_ll_usb.c **** /**
 164:Drivers/STM32G0xx_HAL_Driver/Src/stm32g0xx_ll_usb.c ****   * @brief  USB_SetCurrentMode Set functional mode
 165:Drivers/STM32G0xx_HAL_Driver/Src/stm32g0xx_ll_usb.c ****   * @param  USBx Selected device
 166:Drivers/STM32G0xx_HAL_Driver/Src/stm32g0xx_ll_usb.c ****   * @param  mode current core mode
 167:Drivers/STM32G0xx_HAL_Driver/Src/stm32g0xx_ll_usb.c ****   *          This parameter can be one of the these values:
 168:Drivers/STM32G0xx_HAL_Driver/Src/stm32g0xx_ll_usb.c ****   *            @arg USB_DEVICE_MODE Peripheral mode
 169:Drivers/STM32G0xx_HAL_Driver/Src/stm32g0xx_ll_usb.c ****   * @retval HAL status
 170:Drivers/STM32G0xx_HAL_Driver/Src/stm32g0xx_ll_usb.c ****   */
 171:Drivers/STM32G0xx_HAL_Driver/Src/stm32g0xx_ll_usb.c **** HAL_StatusTypeDef USB_SetCurrentMode(USB_DRD_TypeDef *USBx, USB_DRD_ModeTypeDef mode)
 172:Drivers/STM32G0xx_HAL_Driver/Src/stm32g0xx_ll_usb.c **** {
 205              		.loc 1 172 1 is_stmt 1 view -0
 206              		.cfi_startproc
 207              		@ args = 0, pretend = 0, frame = 0
 208              		@ frame_needed = 0, uses_anonymous_args = 0
 209              		@ link register save eliminated.
 173:Drivers/STM32G0xx_HAL_Driver/Src/stm32g0xx_ll_usb.c ****   if (mode == USB_DEVICE_MODE)
 210              		.loc 1 173 3 view .LVU45
 211              		.loc 1 173 6 is_stmt 0 view .LVU46
 212 0000 0029     		cmp	r1, #0
 213 0002 05D1     		bne	.L12
 174:Drivers/STM32G0xx_HAL_Driver/Src/stm32g0xx_ll_usb.c ****   {
 175:Drivers/STM32G0xx_HAL_Driver/Src/stm32g0xx_ll_usb.c ****     USBx->CNTR &= ~USB_CNTR_HOST;
 214              		.loc 1 175 5 is_stmt 1 view .LVU47
 215              		.loc 1 175 9 is_stmt 0 view .LVU48
 216 0004 036C     		ldr	r3, [r0, #64]
 217              		.loc 1 175 16 view .LVU49
 218 0006 5B00     		lsls	r3, r3, #1
 219 0008 5B08     		lsrs	r3, r3, #1
 220 000a 0364     		str	r3, [r0, #64]
 176:Drivers/STM32G0xx_HAL_Driver/Src/stm32g0xx_ll_usb.c ****   }
 177:Drivers/STM32G0xx_HAL_Driver/Src/stm32g0xx_ll_usb.c ****   else if (mode == USB_HOST_MODE)
 178:Drivers/STM32G0xx_HAL_Driver/Src/stm32g0xx_ll_usb.c ****   {
 179:Drivers/STM32G0xx_HAL_Driver/Src/stm32g0xx_ll_usb.c ****     USBx->CNTR |= USB_CNTR_HOST;
 180:Drivers/STM32G0xx_HAL_Driver/Src/stm32g0xx_ll_usb.c ****   }
 181:Drivers/STM32G0xx_HAL_Driver/Src/stm32g0xx_ll_usb.c ****   else
 182:Drivers/STM32G0xx_HAL_Driver/Src/stm32g0xx_ll_usb.c ****   {
 183:Drivers/STM32G0xx_HAL_Driver/Src/stm32g0xx_ll_usb.c ****     return HAL_ERROR;
 184:Drivers/STM32G0xx_HAL_Driver/Src/stm32g0xx_ll_usb.c ****   }
 185:Drivers/STM32G0xx_HAL_Driver/Src/stm32g0xx_ll_usb.c **** 
 186:Drivers/STM32G0xx_HAL_Driver/Src/stm32g0xx_ll_usb.c ****   return HAL_OK;
ARM GAS  /tmp/cc3M98Wq.s 			page 8


 221              		.loc 1 186 10 view .LVU50
 222 000c 0800     		movs	r0, r1
 223              	.LVL14:
 224              	.L13:
 187:Drivers/STM32G0xx_HAL_Driver/Src/stm32g0xx_ll_usb.c **** }
 225              		.loc 1 187 1 view .LVU51
 226              		@ sp needed
 227 000e 7047     		bx	lr
 228              	.LVL15:
 229              	.L12:
 177:Drivers/STM32G0xx_HAL_Driver/Src/stm32g0xx_ll_usb.c ****   {
 230              		.loc 1 177 8 is_stmt 1 view .LVU52
 177:Drivers/STM32G0xx_HAL_Driver/Src/stm32g0xx_ll_usb.c ****   {
 231              		.loc 1 177 11 is_stmt 0 view .LVU53
 232 0010 0129     		cmp	r1, #1
 233 0012 06D1     		bne	.L14
 179:Drivers/STM32G0xx_HAL_Driver/Src/stm32g0xx_ll_usb.c ****   }
 234              		.loc 1 179 5 is_stmt 1 view .LVU54
 179:Drivers/STM32G0xx_HAL_Driver/Src/stm32g0xx_ll_usb.c ****   }
 235              		.loc 1 179 9 is_stmt 0 view .LVU55
 236 0014 026C     		ldr	r2, [r0, #64]
 179:Drivers/STM32G0xx_HAL_Driver/Src/stm32g0xx_ll_usb.c ****   }
 237              		.loc 1 179 16 view .LVU56
 238 0016 8023     		movs	r3, #128
 239 0018 1B06     		lsls	r3, r3, #24
 240 001a 1343     		orrs	r3, r2
 241 001c 0364     		str	r3, [r0, #64]
 186:Drivers/STM32G0xx_HAL_Driver/Src/stm32g0xx_ll_usb.c **** }
 242              		.loc 1 186 10 view .LVU57
 243 001e 0020     		movs	r0, #0
 244              	.LVL16:
 186:Drivers/STM32G0xx_HAL_Driver/Src/stm32g0xx_ll_usb.c **** }
 245              		.loc 1 186 10 view .LVU58
 246 0020 F5E7     		b	.L13
 247              	.LVL17:
 248              	.L14:
 183:Drivers/STM32G0xx_HAL_Driver/Src/stm32g0xx_ll_usb.c ****   }
 249              		.loc 1 183 12 view .LVU59
 250 0022 0120     		movs	r0, #1
 251              	.LVL18:
 183:Drivers/STM32G0xx_HAL_Driver/Src/stm32g0xx_ll_usb.c ****   }
 252              		.loc 1 183 12 view .LVU60
 253 0024 F3E7     		b	.L13
 254              		.cfi_endproc
 255              	.LFE370:
 257              		.section	.text.USB_DevInit,"ax",%progbits
 258              		.align	1
 259              		.global	USB_DevInit
 260              		.syntax unified
 261              		.code	16
 262              		.thumb_func
 264              	USB_DevInit:
 265              	.LVL19:
 266              	.LFB371:
 188:Drivers/STM32G0xx_HAL_Driver/Src/stm32g0xx_ll_usb.c **** 
 189:Drivers/STM32G0xx_HAL_Driver/Src/stm32g0xx_ll_usb.c **** /**
 190:Drivers/STM32G0xx_HAL_Driver/Src/stm32g0xx_ll_usb.c ****   * @brief  USB_DevInit Initializes the USB controller registers
ARM GAS  /tmp/cc3M98Wq.s 			page 9


 191:Drivers/STM32G0xx_HAL_Driver/Src/stm32g0xx_ll_usb.c ****   *         for device mode
 192:Drivers/STM32G0xx_HAL_Driver/Src/stm32g0xx_ll_usb.c ****   * @param  USBx Selected device
 193:Drivers/STM32G0xx_HAL_Driver/Src/stm32g0xx_ll_usb.c ****   * @param  cfg  pointer to a USB_DRD_CfgTypeDef structure that contains
 194:Drivers/STM32G0xx_HAL_Driver/Src/stm32g0xx_ll_usb.c ****   *         the configuration information for the specified USBx peripheral.
 195:Drivers/STM32G0xx_HAL_Driver/Src/stm32g0xx_ll_usb.c ****   * @retval HAL status
 196:Drivers/STM32G0xx_HAL_Driver/Src/stm32g0xx_ll_usb.c ****   */
 197:Drivers/STM32G0xx_HAL_Driver/Src/stm32g0xx_ll_usb.c **** HAL_StatusTypeDef USB_DevInit(USB_DRD_TypeDef *USBx, USB_DRD_CfgTypeDef cfg)
 198:Drivers/STM32G0xx_HAL_Driver/Src/stm32g0xx_ll_usb.c **** {
 267              		.loc 1 198 1 is_stmt 1 view -0
 268              		.cfi_startproc
 269              		@ args = 20, pretend = 16, frame = 0
 270              		@ frame_needed = 0, uses_anonymous_args = 0
 271              		.loc 1 198 1 is_stmt 0 view .LVU62
 272 0000 84B0     		sub	sp, sp, #16
 273              	.LCFI2:
 274              		.cfi_def_cfa_offset 16
 275 0002 10B5     		push	{r4, lr}
 276              	.LCFI3:
 277              		.cfi_def_cfa_offset 24
 278              		.cfi_offset 4, -24
 279              		.cfi_offset 14, -20
 280 0004 0400     		movs	r4, r0
 281 0006 0391     		str	r1, [sp, #12]
 282 0008 0492     		str	r2, [sp, #16]
 283 000a 0593     		str	r3, [sp, #20]
 199:Drivers/STM32G0xx_HAL_Driver/Src/stm32g0xx_ll_usb.c ****   HAL_StatusTypeDef ret;
 284              		.loc 1 199 3 is_stmt 1 view .LVU63
 200:Drivers/STM32G0xx_HAL_Driver/Src/stm32g0xx_ll_usb.c **** 
 201:Drivers/STM32G0xx_HAL_Driver/Src/stm32g0xx_ll_usb.c ****   /* Prevent unused argument(s) compilation warning */
 202:Drivers/STM32G0xx_HAL_Driver/Src/stm32g0xx_ll_usb.c ****   UNUSED(cfg);
 285              		.loc 1 202 3 view .LVU64
 203:Drivers/STM32G0xx_HAL_Driver/Src/stm32g0xx_ll_usb.c **** 
 204:Drivers/STM32G0xx_HAL_Driver/Src/stm32g0xx_ll_usb.c ****   /* Force Reset */
 205:Drivers/STM32G0xx_HAL_Driver/Src/stm32g0xx_ll_usb.c ****   USBx->CNTR = USB_CNTR_USBRST;
 286              		.loc 1 205 3 view .LVU65
 287              		.loc 1 205 14 is_stmt 0 view .LVU66
 288 000c 0122     		movs	r2, #1
 289 000e 0264     		str	r2, [r0, #64]
 206:Drivers/STM32G0xx_HAL_Driver/Src/stm32g0xx_ll_usb.c **** 
 207:Drivers/STM32G0xx_HAL_Driver/Src/stm32g0xx_ll_usb.c ****   /* Release Reset */
 208:Drivers/STM32G0xx_HAL_Driver/Src/stm32g0xx_ll_usb.c ****   USBx->CNTR &= ~USB_CNTR_USBRST;
 290              		.loc 1 208 3 is_stmt 1 view .LVU67
 291              		.loc 1 208 7 is_stmt 0 view .LVU68
 292 0010 036C     		ldr	r3, [r0, #64]
 293              		.loc 1 208 14 view .LVU69
 294 0012 9343     		bics	r3, r2
 295 0014 0364     		str	r3, [r0, #64]
 209:Drivers/STM32G0xx_HAL_Driver/Src/stm32g0xx_ll_usb.c **** 
 210:Drivers/STM32G0xx_HAL_Driver/Src/stm32g0xx_ll_usb.c ****   /* Set the Device Mode */
 211:Drivers/STM32G0xx_HAL_Driver/Src/stm32g0xx_ll_usb.c ****   ret = USB_SetCurrentMode(USBx, USB_DEVICE_MODE);
 296              		.loc 1 211 3 is_stmt 1 view .LVU70
 297              		.loc 1 211 9 is_stmt 0 view .LVU71
 298 0016 0021     		movs	r1, #0
 299 0018 FFF7FEFF 		bl	USB_SetCurrentMode
 300              	.LVL20:
 212:Drivers/STM32G0xx_HAL_Driver/Src/stm32g0xx_ll_usb.c **** 
 213:Drivers/STM32G0xx_HAL_Driver/Src/stm32g0xx_ll_usb.c ****   /* Clear pending interrupts */
ARM GAS  /tmp/cc3M98Wq.s 			page 10


 214:Drivers/STM32G0xx_HAL_Driver/Src/stm32g0xx_ll_usb.c ****   USBx->ISTR = 0U;
 301              		.loc 1 214 3 is_stmt 1 view .LVU72
 302              		.loc 1 214 14 is_stmt 0 view .LVU73
 303 001c 0023     		movs	r3, #0
 304 001e 6364     		str	r3, [r4, #68]
 215:Drivers/STM32G0xx_HAL_Driver/Src/stm32g0xx_ll_usb.c **** 
 216:Drivers/STM32G0xx_HAL_Driver/Src/stm32g0xx_ll_usb.c ****   return ret;
 305              		.loc 1 216 3 is_stmt 1 view .LVU74
 217:Drivers/STM32G0xx_HAL_Driver/Src/stm32g0xx_ll_usb.c **** }
 306              		.loc 1 217 1 is_stmt 0 view .LVU75
 307              		@ sp needed
 308              	.LVL21:
 309              		.loc 1 217 1 view .LVU76
 310 0020 10BC     		pop	{r4}
 311 0022 08BC     		pop	{r3}
 312 0024 04B0     		add	sp, sp, #16
 313 0026 1847     		bx	r3
 314              		.cfi_endproc
 315              	.LFE371:
 317              		.section	.text.USB_FlushTxFifo,"ax",%progbits
 318              		.align	1
 319              		.global	USB_FlushTxFifo
 320              		.syntax unified
 321              		.code	16
 322              		.thumb_func
 324              	USB_FlushTxFifo:
 325              	.LVL22:
 326              	.LFB372:
 218:Drivers/STM32G0xx_HAL_Driver/Src/stm32g0xx_ll_usb.c **** 
 219:Drivers/STM32G0xx_HAL_Driver/Src/stm32g0xx_ll_usb.c **** /**
 220:Drivers/STM32G0xx_HAL_Driver/Src/stm32g0xx_ll_usb.c ****   * @brief  USB_FlushTxFifo : Flush a Tx FIFO
 221:Drivers/STM32G0xx_HAL_Driver/Src/stm32g0xx_ll_usb.c ****   * @param  USBx : Selected device
 222:Drivers/STM32G0xx_HAL_Driver/Src/stm32g0xx_ll_usb.c ****   * @param  num : FIFO number
 223:Drivers/STM32G0xx_HAL_Driver/Src/stm32g0xx_ll_usb.c ****   *         This parameter can be a value from 1 to 15
 224:Drivers/STM32G0xx_HAL_Driver/Src/stm32g0xx_ll_usb.c ****             15 means Flush all Tx FIFOs
 225:Drivers/STM32G0xx_HAL_Driver/Src/stm32g0xx_ll_usb.c ****   * @retval HAL status
 226:Drivers/STM32G0xx_HAL_Driver/Src/stm32g0xx_ll_usb.c ****   */
 227:Drivers/STM32G0xx_HAL_Driver/Src/stm32g0xx_ll_usb.c **** HAL_StatusTypeDef USB_FlushTxFifo(USB_DRD_TypeDef const *USBx, uint32_t num)
 228:Drivers/STM32G0xx_HAL_Driver/Src/stm32g0xx_ll_usb.c **** {
 327              		.loc 1 228 1 is_stmt 1 view -0
 328              		.cfi_startproc
 329              		@ args = 0, pretend = 0, frame = 0
 330              		@ frame_needed = 0, uses_anonymous_args = 0
 331              		@ link register save eliminated.
 229:Drivers/STM32G0xx_HAL_Driver/Src/stm32g0xx_ll_usb.c ****   /* Prevent unused argument(s) compilation warning */
 230:Drivers/STM32G0xx_HAL_Driver/Src/stm32g0xx_ll_usb.c ****   UNUSED(USBx);
 332              		.loc 1 230 3 view .LVU78
 231:Drivers/STM32G0xx_HAL_Driver/Src/stm32g0xx_ll_usb.c ****   UNUSED(num);
 333              		.loc 1 231 3 view .LVU79
 232:Drivers/STM32G0xx_HAL_Driver/Src/stm32g0xx_ll_usb.c **** 
 233:Drivers/STM32G0xx_HAL_Driver/Src/stm32g0xx_ll_usb.c ****   /* NOTE : - This function is not required by USB Device FS peripheral, it is used
 234:Drivers/STM32G0xx_HAL_Driver/Src/stm32g0xx_ll_usb.c ****               only by USB OTG FS peripheral.
 235:Drivers/STM32G0xx_HAL_Driver/Src/stm32g0xx_ll_usb.c ****             - This function is added to ensure compatibility across platforms.
 236:Drivers/STM32G0xx_HAL_Driver/Src/stm32g0xx_ll_usb.c ****    */
 237:Drivers/STM32G0xx_HAL_Driver/Src/stm32g0xx_ll_usb.c **** 
 238:Drivers/STM32G0xx_HAL_Driver/Src/stm32g0xx_ll_usb.c ****   return HAL_OK;
 334              		.loc 1 238 3 view .LVU80
ARM GAS  /tmp/cc3M98Wq.s 			page 11


 239:Drivers/STM32G0xx_HAL_Driver/Src/stm32g0xx_ll_usb.c **** }
 335              		.loc 1 239 1 is_stmt 0 view .LVU81
 336 0000 0020     		movs	r0, #0
 337              	.LVL23:
 338              		.loc 1 239 1 view .LVU82
 339              		@ sp needed
 340 0002 7047     		bx	lr
 341              		.cfi_endproc
 342              	.LFE372:
 344              		.section	.text.USB_FlushRxFifo,"ax",%progbits
 345              		.align	1
 346              		.global	USB_FlushRxFifo
 347              		.syntax unified
 348              		.code	16
 349              		.thumb_func
 351              	USB_FlushRxFifo:
 352              	.LVL24:
 353              	.LFB373:
 240:Drivers/STM32G0xx_HAL_Driver/Src/stm32g0xx_ll_usb.c **** 
 241:Drivers/STM32G0xx_HAL_Driver/Src/stm32g0xx_ll_usb.c **** /**
 242:Drivers/STM32G0xx_HAL_Driver/Src/stm32g0xx_ll_usb.c ****   * @brief  USB_FlushRxFifo : Flush Rx FIFO
 243:Drivers/STM32G0xx_HAL_Driver/Src/stm32g0xx_ll_usb.c ****   * @param  USBx : Selected device
 244:Drivers/STM32G0xx_HAL_Driver/Src/stm32g0xx_ll_usb.c ****   * @retval HAL status
 245:Drivers/STM32G0xx_HAL_Driver/Src/stm32g0xx_ll_usb.c ****   */
 246:Drivers/STM32G0xx_HAL_Driver/Src/stm32g0xx_ll_usb.c **** HAL_StatusTypeDef USB_FlushRxFifo(USB_DRD_TypeDef const *USBx)
 247:Drivers/STM32G0xx_HAL_Driver/Src/stm32g0xx_ll_usb.c **** {
 354              		.loc 1 247 1 is_stmt 1 view -0
 355              		.cfi_startproc
 356              		@ args = 0, pretend = 0, frame = 0
 357              		@ frame_needed = 0, uses_anonymous_args = 0
 358              		@ link register save eliminated.
 248:Drivers/STM32G0xx_HAL_Driver/Src/stm32g0xx_ll_usb.c ****   /* Prevent unused argument(s) compilation warning */
 249:Drivers/STM32G0xx_HAL_Driver/Src/stm32g0xx_ll_usb.c ****   UNUSED(USBx);
 359              		.loc 1 249 3 view .LVU84
 250:Drivers/STM32G0xx_HAL_Driver/Src/stm32g0xx_ll_usb.c **** 
 251:Drivers/STM32G0xx_HAL_Driver/Src/stm32g0xx_ll_usb.c ****   /* NOTE : - This function is not required by USB Device FS peripheral, it is used
 252:Drivers/STM32G0xx_HAL_Driver/Src/stm32g0xx_ll_usb.c ****               only by USB OTG FS peripheral.
 253:Drivers/STM32G0xx_HAL_Driver/Src/stm32g0xx_ll_usb.c ****             - This function is added to ensure compatibility across platforms.
 254:Drivers/STM32G0xx_HAL_Driver/Src/stm32g0xx_ll_usb.c ****    */
 255:Drivers/STM32G0xx_HAL_Driver/Src/stm32g0xx_ll_usb.c **** 
 256:Drivers/STM32G0xx_HAL_Driver/Src/stm32g0xx_ll_usb.c ****   return HAL_OK;
 360              		.loc 1 256 3 view .LVU85
 257:Drivers/STM32G0xx_HAL_Driver/Src/stm32g0xx_ll_usb.c **** }
 361              		.loc 1 257 1 is_stmt 0 view .LVU86
 362 0000 0020     		movs	r0, #0
 363              	.LVL25:
 364              		.loc 1 257 1 view .LVU87
 365              		@ sp needed
 366 0002 7047     		bx	lr
 367              		.cfi_endproc
 368              	.LFE373:
 370              		.section	.text.USB_ActivateEndpoint,"ax",%progbits
 371              		.align	1
 372              		.global	USB_ActivateEndpoint
 373              		.syntax unified
 374              		.code	16
 375              		.thumb_func
ARM GAS  /tmp/cc3M98Wq.s 			page 12


 377              	USB_ActivateEndpoint:
 378              	.LVL26:
 379              	.LFB374:
 258:Drivers/STM32G0xx_HAL_Driver/Src/stm32g0xx_ll_usb.c **** 
 259:Drivers/STM32G0xx_HAL_Driver/Src/stm32g0xx_ll_usb.c **** 
 260:Drivers/STM32G0xx_HAL_Driver/Src/stm32g0xx_ll_usb.c **** #if defined (HAL_PCD_MODULE_ENABLED)
 261:Drivers/STM32G0xx_HAL_Driver/Src/stm32g0xx_ll_usb.c **** /**
 262:Drivers/STM32G0xx_HAL_Driver/Src/stm32g0xx_ll_usb.c ****   * @brief  Activate and configure an endpoint
 263:Drivers/STM32G0xx_HAL_Driver/Src/stm32g0xx_ll_usb.c ****   * @param  USBx Selected device
 264:Drivers/STM32G0xx_HAL_Driver/Src/stm32g0xx_ll_usb.c ****   * @param  ep pointer to endpoint structure
 265:Drivers/STM32G0xx_HAL_Driver/Src/stm32g0xx_ll_usb.c ****   * @retval HAL status
 266:Drivers/STM32G0xx_HAL_Driver/Src/stm32g0xx_ll_usb.c ****   */
 267:Drivers/STM32G0xx_HAL_Driver/Src/stm32g0xx_ll_usb.c **** HAL_StatusTypeDef USB_ActivateEndpoint(USB_DRD_TypeDef *USBx, USB_DRD_EPTypeDef *ep)
 268:Drivers/STM32G0xx_HAL_Driver/Src/stm32g0xx_ll_usb.c **** {
 380              		.loc 1 268 1 is_stmt 1 view -0
 381              		.cfi_startproc
 382              		@ args = 0, pretend = 0, frame = 0
 383              		@ frame_needed = 0, uses_anonymous_args = 0
 384              		.loc 1 268 1 is_stmt 0 view .LVU89
 385 0000 F0B5     		push	{r4, r5, r6, r7, lr}
 386              	.LCFI4:
 387              		.cfi_def_cfa_offset 20
 388              		.cfi_offset 4, -20
 389              		.cfi_offset 5, -16
 390              		.cfi_offset 6, -12
 391              		.cfi_offset 7, -8
 392              		.cfi_offset 14, -4
 393 0002 0300     		movs	r3, r0
 269:Drivers/STM32G0xx_HAL_Driver/Src/stm32g0xx_ll_usb.c ****   HAL_StatusTypeDef ret = HAL_OK;
 394              		.loc 1 269 3 is_stmt 1 view .LVU90
 395              	.LVL27:
 270:Drivers/STM32G0xx_HAL_Driver/Src/stm32g0xx_ll_usb.c ****   uint32_t wEpRegVal;
 396              		.loc 1 270 3 view .LVU91
 271:Drivers/STM32G0xx_HAL_Driver/Src/stm32g0xx_ll_usb.c **** 
 272:Drivers/STM32G0xx_HAL_Driver/Src/stm32g0xx_ll_usb.c ****   wEpRegVal = PCD_GET_ENDPOINT(USBx, ep->num) & USB_EP_T_MASK;
 397              		.loc 1 272 3 view .LVU92
 398              		.loc 1 272 15 is_stmt 0 view .LVU93
 399 0004 0C78     		ldrb	r4, [r1]
 400 0006 A400     		lsls	r4, r4, #2
 401 0008 0419     		adds	r4, r0, r4
 402 000a 2268     		ldr	r2, [r4]
 403              		.loc 1 272 13 view .LVU94
 404 000c CE48     		ldr	r0, .L75
 405              	.LVL28:
 406              		.loc 1 272 13 view .LVU95
 407 000e 0240     		ands	r2, r0
 408              	.LVL29:
 273:Drivers/STM32G0xx_HAL_Driver/Src/stm32g0xx_ll_usb.c **** 
 274:Drivers/STM32G0xx_HAL_Driver/Src/stm32g0xx_ll_usb.c ****   /* initialize Endpoint */
 275:Drivers/STM32G0xx_HAL_Driver/Src/stm32g0xx_ll_usb.c ****   switch (ep->type)
 409              		.loc 1 275 3 is_stmt 1 view .LVU96
 410              		.loc 1 275 13 is_stmt 0 view .LVU97
 411 0010 C878     		ldrb	r0, [r1, #3]
 412              		.loc 1 275 3 view .LVU98
 413 0012 0228     		cmp	r0, #2
 414 0014 56D0     		beq	.L57
 415 0016 0AD8     		bhi	.L20
ARM GAS  /tmp/cc3M98Wq.s 			page 13


 416 0018 0028     		cmp	r0, #0
 417 001a 11D0     		beq	.L21
 418 001c 0128     		cmp	r0, #1
 419 001e 04D1     		bne	.L70
 276:Drivers/STM32G0xx_HAL_Driver/Src/stm32g0xx_ll_usb.c ****   {
 277:Drivers/STM32G0xx_HAL_Driver/Src/stm32g0xx_ll_usb.c ****     case EP_TYPE_CTRL:
 278:Drivers/STM32G0xx_HAL_Driver/Src/stm32g0xx_ll_usb.c ****       wEpRegVal |= USB_EP_CONTROL;
 279:Drivers/STM32G0xx_HAL_Driver/Src/stm32g0xx_ll_usb.c ****       break;
 280:Drivers/STM32G0xx_HAL_Driver/Src/stm32g0xx_ll_usb.c **** 
 281:Drivers/STM32G0xx_HAL_Driver/Src/stm32g0xx_ll_usb.c ****     case EP_TYPE_BULK:
 282:Drivers/STM32G0xx_HAL_Driver/Src/stm32g0xx_ll_usb.c ****       wEpRegVal |= USB_EP_BULK;
 283:Drivers/STM32G0xx_HAL_Driver/Src/stm32g0xx_ll_usb.c ****       break;
 284:Drivers/STM32G0xx_HAL_Driver/Src/stm32g0xx_ll_usb.c **** 
 285:Drivers/STM32G0xx_HAL_Driver/Src/stm32g0xx_ll_usb.c ****     case EP_TYPE_INTR:
 286:Drivers/STM32G0xx_HAL_Driver/Src/stm32g0xx_ll_usb.c ****       wEpRegVal |= USB_EP_INTERRUPT;
 287:Drivers/STM32G0xx_HAL_Driver/Src/stm32g0xx_ll_usb.c ****       break;
 288:Drivers/STM32G0xx_HAL_Driver/Src/stm32g0xx_ll_usb.c **** 
 289:Drivers/STM32G0xx_HAL_Driver/Src/stm32g0xx_ll_usb.c ****     case EP_TYPE_ISOC:
 290:Drivers/STM32G0xx_HAL_Driver/Src/stm32g0xx_ll_usb.c ****       wEpRegVal |= USB_EP_ISOCHRONOUS;
 420              		.loc 1 290 7 is_stmt 1 view .LVU99
 421              		.loc 1 290 17 is_stmt 0 view .LVU100
 422 0020 8020     		movs	r0, #128
 423 0022 C000     		lsls	r0, r0, #3
 424 0024 0243     		orrs	r2, r0
 425              	.LVL30:
 291:Drivers/STM32G0xx_HAL_Driver/Src/stm32g0xx_ll_usb.c ****       break;
 426              		.loc 1 291 7 is_stmt 1 view .LVU101
 269:Drivers/STM32G0xx_HAL_Driver/Src/stm32g0xx_ll_usb.c ****   uint32_t wEpRegVal;
 427              		.loc 1 269 21 is_stmt 0 view .LVU102
 428 0026 0020     		movs	r0, #0
 429              		.loc 1 291 7 view .LVU103
 430 0028 0DE0     		b	.L19
 431              	.L70:
 292:Drivers/STM32G0xx_HAL_Driver/Src/stm32g0xx_ll_usb.c **** 
 293:Drivers/STM32G0xx_HAL_Driver/Src/stm32g0xx_ll_usb.c ****     default:
 294:Drivers/STM32G0xx_HAL_Driver/Src/stm32g0xx_ll_usb.c ****       ret = HAL_ERROR;
 432              		.loc 1 294 11 view .LVU104
 433 002a 0120     		movs	r0, #1
 434 002c 0BE0     		b	.L19
 435              	.L20:
 275:Drivers/STM32G0xx_HAL_Driver/Src/stm32g0xx_ll_usb.c ****   {
 436              		.loc 1 275 3 view .LVU105
 437 002e 0328     		cmp	r0, #3
 438 0030 04D1     		bne	.L71
 286:Drivers/STM32G0xx_HAL_Driver/Src/stm32g0xx_ll_usb.c ****       break;
 439              		.loc 1 286 7 is_stmt 1 view .LVU106
 286:Drivers/STM32G0xx_HAL_Driver/Src/stm32g0xx_ll_usb.c ****       break;
 440              		.loc 1 286 17 is_stmt 0 view .LVU107
 441 0032 C020     		movs	r0, #192
 442 0034 C000     		lsls	r0, r0, #3
 443 0036 0243     		orrs	r2, r0
 444              	.LVL31:
 287:Drivers/STM32G0xx_HAL_Driver/Src/stm32g0xx_ll_usb.c **** 
 445              		.loc 1 287 7 is_stmt 1 view .LVU108
 269:Drivers/STM32G0xx_HAL_Driver/Src/stm32g0xx_ll_usb.c ****   uint32_t wEpRegVal;
 446              		.loc 1 269 21 is_stmt 0 view .LVU109
 447 0038 0020     		movs	r0, #0
ARM GAS  /tmp/cc3M98Wq.s 			page 14


 287:Drivers/STM32G0xx_HAL_Driver/Src/stm32g0xx_ll_usb.c **** 
 448              		.loc 1 287 7 view .LVU110
 449 003a 04E0     		b	.L19
 450              	.L71:
 451              		.loc 1 294 11 view .LVU111
 452 003c 0120     		movs	r0, #1
 453 003e 02E0     		b	.L19
 454              	.L21:
 278:Drivers/STM32G0xx_HAL_Driver/Src/stm32g0xx_ll_usb.c ****       break;
 455              		.loc 1 278 7 is_stmt 1 view .LVU112
 278:Drivers/STM32G0xx_HAL_Driver/Src/stm32g0xx_ll_usb.c ****       break;
 456              		.loc 1 278 17 is_stmt 0 view .LVU113
 457 0040 8025     		movs	r5, #128
 458 0042 AD00     		lsls	r5, r5, #2
 459 0044 2A43     		orrs	r2, r5
 460              	.LVL32:
 279:Drivers/STM32G0xx_HAL_Driver/Src/stm32g0xx_ll_usb.c **** 
 461              		.loc 1 279 7 is_stmt 1 view .LVU114
 462              	.L19:
 295:Drivers/STM32G0xx_HAL_Driver/Src/stm32g0xx_ll_usb.c ****       break;
 296:Drivers/STM32G0xx_HAL_Driver/Src/stm32g0xx_ll_usb.c ****   }
 297:Drivers/STM32G0xx_HAL_Driver/Src/stm32g0xx_ll_usb.c **** 
 298:Drivers/STM32G0xx_HAL_Driver/Src/stm32g0xx_ll_usb.c ****   PCD_SET_ENDPOINT(USBx, ep->num, (wEpRegVal | USB_EP_VTRX | USB_EP_VTTX));
 463              		.loc 1 298 3 view .LVU115
 464 0046 C14D     		ldr	r5, .L75+4
 465 0048 2A43     		orrs	r2, r5
 466              	.LVL33:
 467              		.loc 1 298 3 is_stmt 0 view .LVU116
 468 004a 2260     		str	r2, [r4]
 299:Drivers/STM32G0xx_HAL_Driver/Src/stm32g0xx_ll_usb.c **** 
 300:Drivers/STM32G0xx_HAL_Driver/Src/stm32g0xx_ll_usb.c ****   PCD_SET_EP_ADDRESS(USBx, ep->num, ep->num);
 469              		.loc 1 300 3 is_stmt 1 view .LVU117
 470              	.LBB2:
 471              		.loc 1 300 3 view .LVU118
 472              		.loc 1 300 3 view .LVU119
 473 004c 0C78     		ldrb	r4, [r1]
 474 004e A200     		lsls	r2, r4, #2
 475 0050 9A18     		adds	r2, r3, r2
 476 0052 1668     		ldr	r6, [r2]
 477 0054 BE4F     		ldr	r7, .L75+8
 478 0056 3E40     		ands	r6, r7
 479 0058 3443     		orrs	r4, r6
 480              	.LVL34:
 481              		.loc 1 300 3 view .LVU120
 482 005a 2543     		orrs	r5, r4
 483 005c 1560     		str	r5, [r2]
 484              	.LBE2:
 485              		.loc 1 300 3 view .LVU121
 301:Drivers/STM32G0xx_HAL_Driver/Src/stm32g0xx_ll_usb.c **** 
 302:Drivers/STM32G0xx_HAL_Driver/Src/stm32g0xx_ll_usb.c ****   if (ep->doublebuffer == 0U)
 486              		.loc 1 302 3 view .LVU122
 487              		.loc 1 302 9 is_stmt 0 view .LVU123
 488 005e 0A7B     		ldrb	r2, [r1, #12]
 489              		.loc 1 302 6 view .LVU124
 490 0060 002A     		cmp	r2, #0
 491 0062 00D0     		beq	.LCB372
 492 0064 A6E0     		b	.L24	@long jump
ARM GAS  /tmp/cc3M98Wq.s 			page 15


 493              	.LCB372:
 303:Drivers/STM32G0xx_HAL_Driver/Src/stm32g0xx_ll_usb.c ****   {
 304:Drivers/STM32G0xx_HAL_Driver/Src/stm32g0xx_ll_usb.c ****     if (ep->is_in != 0U)
 494              		.loc 1 304 5 is_stmt 1 view .LVU125
 495              		.loc 1 304 11 is_stmt 0 view .LVU126
 496 0066 4A78     		ldrb	r2, [r1, #1]
 497              		.loc 1 304 8 view .LVU127
 498 0068 002A     		cmp	r2, #0
 499 006a 37D0     		beq	.L25
 305:Drivers/STM32G0xx_HAL_Driver/Src/stm32g0xx_ll_usb.c ****     {
 306:Drivers/STM32G0xx_HAL_Driver/Src/stm32g0xx_ll_usb.c ****       /*Set the endpoint Transmit buffer address */
 307:Drivers/STM32G0xx_HAL_Driver/Src/stm32g0xx_ll_usb.c ****       PCD_SET_EP_TX_ADDRESS(USBx, ep->num, ep->pmaadress);
 500              		.loc 1 307 7 is_stmt 1 view .LVU128
 501              		.loc 1 307 7 view .LVU129
 502 006c 0A78     		ldrb	r2, [r1]
 503 006e D200     		lsls	r2, r2, #3
 504 0070 B84C     		ldr	r4, .L75+12
 505              	.LVL35:
 506              		.loc 1 307 7 is_stmt 0 view .LVU130
 507 0072 A446     		mov	ip, r4
 508 0074 6244     		add	r2, r2, ip
 509 0076 1468     		ldr	r4, [r2]
 510 0078 240C     		lsrs	r4, r4, #16
 511 007a 2404     		lsls	r4, r4, #16
 512 007c 1460     		str	r4, [r2]
 513              		.loc 1 307 7 is_stmt 1 view .LVU131
 514 007e 0A78     		ldrb	r2, [r1]
 515 0080 D200     		lsls	r2, r2, #3
 516 0082 6244     		add	r2, r2, ip
 517 0084 1568     		ldr	r5, [r2]
 518 0086 CC88     		ldrh	r4, [r1, #6]
 519 0088 A408     		lsrs	r4, r4, #2
 520 008a A400     		lsls	r4, r4, #2
 521 008c 2C43     		orrs	r4, r5
 522 008e 1460     		str	r4, [r2]
 523              		.loc 1 307 7 view .LVU132
 308:Drivers/STM32G0xx_HAL_Driver/Src/stm32g0xx_ll_usb.c ****       PCD_CLEAR_TX_DTOG(USBx, ep->num);
 524              		.loc 1 308 7 view .LVU133
 525              	.LBB3:
 526              		.loc 1 308 7 view .LVU134
 527              		.loc 1 308 7 view .LVU135
 528 0090 0A78     		ldrb	r2, [r1]
 529 0092 9200     		lsls	r2, r2, #2
 530 0094 9A18     		adds	r2, r3, r2
 531 0096 1468     		ldr	r4, [r2]
 532              	.LVL36:
 533              		.loc 1 308 7 view .LVU136
 534 0098 6406     		lsls	r4, r4, #25
 535 009a 04D5     		bpl	.L26
 536              	.LVL37:
 537              		.loc 1 308 7 discriminator 1 view .LVU137
 538              	.LBB4:
 539              		.loc 1 308 7 discriminator 1 view .LVU138
 540              		.loc 1 308 7 discriminator 1 view .LVU139
 541 009c 1568     		ldr	r5, [r2]
 542 009e 3D40     		ands	r5, r7
 543              	.LVL38:
ARM GAS  /tmp/cc3M98Wq.s 			page 16


 544              		.loc 1 308 7 discriminator 1 view .LVU140
 545 00a0 AD4C     		ldr	r4, .L75+16
 546 00a2 2C43     		orrs	r4, r5
 547 00a4 1460     		str	r4, [r2]
 548              	.LVL39:
 549              	.L26:
 550              		.loc 1 308 7 is_stmt 0 discriminator 1 view .LVU141
 551              	.LBE4:
 552              		.loc 1 308 7 is_stmt 1 discriminator 3 view .LVU142
 553              	.LBE3:
 554              		.loc 1 308 7 discriminator 3 view .LVU143
 309:Drivers/STM32G0xx_HAL_Driver/Src/stm32g0xx_ll_usb.c **** 
 310:Drivers/STM32G0xx_HAL_Driver/Src/stm32g0xx_ll_usb.c ****       if (ep->type != EP_TYPE_ISOC)
 555              		.loc 1 310 7 view .LVU144
 556              		.loc 1 310 13 is_stmt 0 view .LVU145
 557 00a6 CA78     		ldrb	r2, [r1, #3]
 558              		.loc 1 310 10 view .LVU146
 559 00a8 012A     		cmp	r2, #1
 560 00aa 0DD0     		beq	.L27
 311:Drivers/STM32G0xx_HAL_Driver/Src/stm32g0xx_ll_usb.c ****       {
 312:Drivers/STM32G0xx_HAL_Driver/Src/stm32g0xx_ll_usb.c ****         /* Configure NAK status for the Endpoint */
 313:Drivers/STM32G0xx_HAL_Driver/Src/stm32g0xx_ll_usb.c ****         PCD_SET_EP_TX_STATUS(USBx, ep->num, USB_EP_TX_NAK);
 561              		.loc 1 313 9 is_stmt 1 view .LVU147
 562              	.LBB5:
 563              		.loc 1 313 9 view .LVU148
 564              		.loc 1 313 9 view .LVU149
 565 00ac 0A78     		ldrb	r2, [r1]
 566 00ae 9200     		lsls	r2, r2, #2
 567 00b0 9B18     		adds	r3, r3, r2
 568              	.LVL40:
 569              		.loc 1 313 9 is_stmt 0 view .LVU150
 570 00b2 1A68     		ldr	r2, [r3]
 571 00b4 A949     		ldr	r1, .L75+20
 572              	.LVL41:
 573              		.loc 1 313 9 view .LVU151
 574 00b6 0A40     		ands	r2, r1
 575              	.LVL42:
 576              		.loc 1 313 9 is_stmt 1 view .LVU152
 577              		.loc 1 313 9 discriminator 3 view .LVU153
 578              		.loc 1 313 9 discriminator 4 view .LVU154
 579 00b8 2021     		movs	r1, #32
 580 00ba 4A40     		eors	r2, r1
 581              	.LVL43:
 582              		.loc 1 313 9 discriminator 6 view .LVU155
 583 00bc A349     		ldr	r1, .L75+4
 584 00be 0A43     		orrs	r2, r1
 585              	.LVL44:
 586              		.loc 1 313 9 is_stmt 0 discriminator 6 view .LVU156
 587 00c0 1A60     		str	r2, [r3]
 588              	.LBE5:
 589              		.loc 1 313 9 is_stmt 1 discriminator 6 view .LVU157
 590 00c2 7CE1     		b	.L28
 591              	.LVL45:
 592              	.L57:
 275:Drivers/STM32G0xx_HAL_Driver/Src/stm32g0xx_ll_usb.c ****   {
 593              		.loc 1 275 3 is_stmt 0 view .LVU158
 594 00c4 0020     		movs	r0, #0
ARM GAS  /tmp/cc3M98Wq.s 			page 17


 595 00c6 BEE7     		b	.L19
 596              	.LVL46:
 597              	.L27:
 314:Drivers/STM32G0xx_HAL_Driver/Src/stm32g0xx_ll_usb.c ****       }
 315:Drivers/STM32G0xx_HAL_Driver/Src/stm32g0xx_ll_usb.c ****       else
 316:Drivers/STM32G0xx_HAL_Driver/Src/stm32g0xx_ll_usb.c ****       {
 317:Drivers/STM32G0xx_HAL_Driver/Src/stm32g0xx_ll_usb.c ****         /* Configure TX Endpoint to disabled state */
 318:Drivers/STM32G0xx_HAL_Driver/Src/stm32g0xx_ll_usb.c ****         PCD_SET_EP_TX_STATUS(USBx, ep->num, USB_EP_TX_DIS);
 598              		.loc 1 318 9 is_stmt 1 view .LVU159
 599              	.LBB6:
 600              		.loc 1 318 9 view .LVU160
 601              		.loc 1 318 9 view .LVU161
 602 00c8 0A78     		ldrb	r2, [r1]
 603 00ca 9200     		lsls	r2, r2, #2
 604 00cc 9B18     		adds	r3, r3, r2
 605              	.LVL47:
 606              		.loc 1 318 9 is_stmt 0 view .LVU162
 607 00ce 1968     		ldr	r1, [r3]
 608              	.LVL48:
 609              		.loc 1 318 9 view .LVU163
 610 00d0 A24A     		ldr	r2, .L75+20
 611 00d2 1140     		ands	r1, r2
 612              	.LVL49:
 613              		.loc 1 318 9 is_stmt 1 view .LVU164
 614              		.loc 1 318 9 discriminator 3 view .LVU165
 615              		.loc 1 318 9 discriminator 6 view .LVU166
 616 00d4 9D4A     		ldr	r2, .L75+4
 617 00d6 0A43     		orrs	r2, r1
 618 00d8 1A60     		str	r2, [r3]
 619 00da 70E1     		b	.L28
 620              	.LVL50:
 621              	.L25:
 622              		.loc 1 318 9 is_stmt 0 discriminator 6 view .LVU167
 623              	.LBE6:
 319:Drivers/STM32G0xx_HAL_Driver/Src/stm32g0xx_ll_usb.c ****       }
 320:Drivers/STM32G0xx_HAL_Driver/Src/stm32g0xx_ll_usb.c ****     }
 321:Drivers/STM32G0xx_HAL_Driver/Src/stm32g0xx_ll_usb.c ****     else
 322:Drivers/STM32G0xx_HAL_Driver/Src/stm32g0xx_ll_usb.c ****     {
 323:Drivers/STM32G0xx_HAL_Driver/Src/stm32g0xx_ll_usb.c ****       /* Set the endpoint Receive buffer address */
 324:Drivers/STM32G0xx_HAL_Driver/Src/stm32g0xx_ll_usb.c ****       PCD_SET_EP_RX_ADDRESS(USBx, ep->num, ep->pmaadress);
 624              		.loc 1 324 7 is_stmt 1 view .LVU168
 625              		.loc 1 324 7 view .LVU169
 626 00dc 0A78     		ldrb	r2, [r1]
 627 00de D200     		lsls	r2, r2, #3
 628 00e0 9C4C     		ldr	r4, .L75+12
 629              	.LVL51:
 630              		.loc 1 324 7 is_stmt 0 view .LVU170
 631 00e2 A446     		mov	ip, r4
 632 00e4 6244     		add	r2, r2, ip
 633 00e6 5468     		ldr	r4, [r2, #4]
 634 00e8 240C     		lsrs	r4, r4, #16
 635 00ea 2404     		lsls	r4, r4, #16
 636 00ec 5460     		str	r4, [r2, #4]
 637              		.loc 1 324 7 is_stmt 1 view .LVU171
 638 00ee 0A78     		ldrb	r2, [r1]
 639 00f0 D200     		lsls	r2, r2, #3
 640 00f2 6244     		add	r2, r2, ip
ARM GAS  /tmp/cc3M98Wq.s 			page 18


 641 00f4 5568     		ldr	r5, [r2, #4]
 642 00f6 CC88     		ldrh	r4, [r1, #6]
 643 00f8 A408     		lsrs	r4, r4, #2
 644 00fa A400     		lsls	r4, r4, #2
 645 00fc 2C43     		orrs	r4, r5
 646 00fe 5460     		str	r4, [r2, #4]
 647              		.loc 1 324 7 view .LVU172
 325:Drivers/STM32G0xx_HAL_Driver/Src/stm32g0xx_ll_usb.c **** 
 326:Drivers/STM32G0xx_HAL_Driver/Src/stm32g0xx_ll_usb.c ****       /* Set the endpoint Receive buffer counter */
 327:Drivers/STM32G0xx_HAL_Driver/Src/stm32g0xx_ll_usb.c ****       PCD_SET_EP_RX_CNT(USBx, ep->num, ep->maxpacket);
 648              		.loc 1 327 7 view .LVU173
 649              	.LBB7:
 650              		.loc 1 327 7 view .LVU174
 651              		.loc 1 327 7 view .LVU175
 652 0100 0A78     		ldrb	r2, [r1]
 653 0102 D200     		lsls	r2, r2, #3
 654 0104 6244     		add	r2, r2, ip
 655 0106 5468     		ldr	r4, [r2, #4]
 656 0108 A401     		lsls	r4, r4, #6
 657 010a A409     		lsrs	r4, r4, #6
 658 010c 5460     		str	r4, [r2, #4]
 659              		.loc 1 327 7 view .LVU176
 660 010e 0A69     		ldr	r2, [r1, #16]
 661 0110 002A     		cmp	r2, #0
 662 0112 22D1     		bne	.L29
 663              		.loc 1 327 7 discriminator 1 view .LVU177
 664 0114 0A78     		ldrb	r2, [r1]
 665 0116 D200     		lsls	r2, r2, #3
 666 0118 6244     		add	r2, r2, ip
 667 011a 5568     		ldr	r5, [r2, #4]
 668 011c 8024     		movs	r4, #128
 669 011e 2406     		lsls	r4, r4, #24
 670 0120 2C43     		orrs	r4, r5
 671 0122 5460     		str	r4, [r2, #4]
 672              	.L30:
 673              		.loc 1 327 7 discriminator 13 view .LVU178
 674              	.LBE7:
 675              		.loc 1 327 7 discriminator 13 view .LVU179
 328:Drivers/STM32G0xx_HAL_Driver/Src/stm32g0xx_ll_usb.c ****       PCD_CLEAR_RX_DTOG(USBx, ep->num);
 676              		.loc 1 328 7 view .LVU180
 677              	.LBB8:
 678              		.loc 1 328 7 view .LVU181
 679              		.loc 1 328 7 view .LVU182
 680 0124 0A78     		ldrb	r2, [r1]
 681 0126 9200     		lsls	r2, r2, #2
 682 0128 9A18     		adds	r2, r3, r2
 683 012a 1468     		ldr	r4, [r2]
 684              	.LVL52:
 685              		.loc 1 328 7 view .LVU183
 686 012c 6404     		lsls	r4, r4, #17
 687 012e 05D5     		bpl	.L34
 688              	.LVL53:
 689              		.loc 1 328 7 discriminator 1 view .LVU184
 690              	.LBB9:
 691              		.loc 1 328 7 discriminator 1 view .LVU185
 692              		.loc 1 328 7 discriminator 1 view .LVU186
 693 0130 1568     		ldr	r5, [r2]
ARM GAS  /tmp/cc3M98Wq.s 			page 19


 694 0132 874C     		ldr	r4, .L75+8
 695 0134 2540     		ands	r5, r4
 696              	.LVL54:
 697              		.loc 1 328 7 discriminator 1 view .LVU187
 698 0136 8A4C     		ldr	r4, .L75+24
 699 0138 2C43     		orrs	r4, r5
 700 013a 1460     		str	r4, [r2]
 701              	.LVL55:
 702              	.L34:
 703              		.loc 1 328 7 is_stmt 0 discriminator 1 view .LVU188
 704              	.LBE9:
 705              		.loc 1 328 7 is_stmt 1 discriminator 3 view .LVU189
 706              	.LBE8:
 707              		.loc 1 328 7 discriminator 3 view .LVU190
 329:Drivers/STM32G0xx_HAL_Driver/Src/stm32g0xx_ll_usb.c **** 
 330:Drivers/STM32G0xx_HAL_Driver/Src/stm32g0xx_ll_usb.c ****       if (ep->num == 0U)
 708              		.loc 1 330 7 view .LVU191
 709              		.loc 1 330 13 is_stmt 0 view .LVU192
 710 013c 0A78     		ldrb	r2, [r1]
 711              		.loc 1 330 10 view .LVU193
 712 013e 002A     		cmp	r2, #0
 713 0140 2CD1     		bne	.L35
 331:Drivers/STM32G0xx_HAL_Driver/Src/stm32g0xx_ll_usb.c ****       {
 332:Drivers/STM32G0xx_HAL_Driver/Src/stm32g0xx_ll_usb.c ****         /* Configure VALID status for EP0 */
 333:Drivers/STM32G0xx_HAL_Driver/Src/stm32g0xx_ll_usb.c ****         PCD_SET_EP_RX_STATUS(USBx, ep->num, USB_EP_RX_VALID);
 714              		.loc 1 333 9 is_stmt 1 view .LVU194
 715              	.LBB10:
 716              		.loc 1 333 9 view .LVU195
 717              		.loc 1 333 9 view .LVU196
 718 0142 9200     		lsls	r2, r2, #2
 719 0144 9A18     		adds	r2, r3, r2
 720 0146 1368     		ldr	r3, [r2]
 721              	.LVL56:
 722              		.loc 1 333 9 is_stmt 0 view .LVU197
 723 0148 8649     		ldr	r1, .L75+28
 724              	.LVL57:
 725              		.loc 1 333 9 view .LVU198
 726 014a 0B40     		ands	r3, r1
 727              	.LVL58:
 728              		.loc 1 333 9 is_stmt 1 view .LVU199
 729              		.loc 1 333 9 discriminator 1 view .LVU200
 730              		.loc 1 333 9 discriminator 3 view .LVU201
 731              		.loc 1 333 9 discriminator 4 view .LVU202
 732 014c C021     		movs	r1, #192
 733 014e 8901     		lsls	r1, r1, #6
 734 0150 5940     		eors	r1, r3
 735              	.LVL59:
 736              		.loc 1 333 9 discriminator 6 view .LVU203
 737 0152 7E4B     		ldr	r3, .L75+4
 738 0154 0B43     		orrs	r3, r1
 739 0156 1360     		str	r3, [r2]
 740              	.LBE10:
 741              		.loc 1 333 9 discriminator 6 view .LVU204
 742 0158 31E1     		b	.L28
 743              	.LVL60:
 744              	.L29:
 745              	.LBB11:
ARM GAS  /tmp/cc3M98Wq.s 			page 20


 327:Drivers/STM32G0xx_HAL_Driver/Src/stm32g0xx_ll_usb.c ****       PCD_CLEAR_RX_DTOG(USBx, ep->num);
 746              		.loc 1 327 7 discriminator 2 view .LVU205
 747 015a 3E2A     		cmp	r2, #62
 748 015c 0DD8     		bhi	.L31
 327:Drivers/STM32G0xx_HAL_Driver/Src/stm32g0xx_ll_usb.c ****       PCD_CLEAR_RX_DTOG(USBx, ep->num);
 749              		.loc 1 327 7 discriminator 4 view .LVU206
 327:Drivers/STM32G0xx_HAL_Driver/Src/stm32g0xx_ll_usb.c ****       PCD_CLEAR_RX_DTOG(USBx, ep->num);
 750              		.loc 1 327 7 discriminator 4 view .LVU207
 751 015e 5408     		lsrs	r4, r2, #1
 752              	.LVL61:
 327:Drivers/STM32G0xx_HAL_Driver/Src/stm32g0xx_ll_usb.c ****       PCD_CLEAR_RX_DTOG(USBx, ep->num);
 753              		.loc 1 327 7 discriminator 4 view .LVU208
 754 0160 D207     		lsls	r2, r2, #31
 755 0162 00D5     		bpl	.L32
 327:Drivers/STM32G0xx_HAL_Driver/Src/stm32g0xx_ll_usb.c ****       PCD_CLEAR_RX_DTOG(USBx, ep->num);
 756              		.loc 1 327 7 discriminator 6 view .LVU209
 757 0164 0134     		adds	r4, r4, #1
 758              	.LVL62:
 759              	.L32:
 327:Drivers/STM32G0xx_HAL_Driver/Src/stm32g0xx_ll_usb.c ****       PCD_CLEAR_RX_DTOG(USBx, ep->num);
 760              		.loc 1 327 7 discriminator 8 view .LVU210
 761 0166 0A78     		ldrb	r2, [r1]
 762 0168 D200     		lsls	r2, r2, #3
 763 016a 7A4D     		ldr	r5, .L75+12
 764 016c AC46     		mov	ip, r5
 765 016e 6244     		add	r2, r2, ip
 766 0170 5568     		ldr	r5, [r2, #4]
 767 0172 A406     		lsls	r4, r4, #26
 768              	.LVL63:
 327:Drivers/STM32G0xx_HAL_Driver/Src/stm32g0xx_ll_usb.c ****       PCD_CLEAR_RX_DTOG(USBx, ep->num);
 769              		.loc 1 327 7 is_stmt 0 discriminator 8 view .LVU211
 770 0174 2C43     		orrs	r4, r5
 771 0176 5460     		str	r4, [r2, #4]
 327:Drivers/STM32G0xx_HAL_Driver/Src/stm32g0xx_ll_usb.c ****       PCD_CLEAR_RX_DTOG(USBx, ep->num);
 772              		.loc 1 327 7 is_stmt 1 discriminator 8 view .LVU212
 773 0178 D4E7     		b	.L30
 774              	.LVL64:
 775              	.L31:
 327:Drivers/STM32G0xx_HAL_Driver/Src/stm32g0xx_ll_usb.c ****       PCD_CLEAR_RX_DTOG(USBx, ep->num);
 776              		.loc 1 327 7 discriminator 5 view .LVU213
 327:Drivers/STM32G0xx_HAL_Driver/Src/stm32g0xx_ll_usb.c ****       PCD_CLEAR_RX_DTOG(USBx, ep->num);
 777              		.loc 1 327 7 discriminator 5 view .LVU214
 778 017a 5409     		lsrs	r4, r2, #5
 779              	.LVL65:
 327:Drivers/STM32G0xx_HAL_Driver/Src/stm32g0xx_ll_usb.c ****       PCD_CLEAR_RX_DTOG(USBx, ep->num);
 780              		.loc 1 327 7 discriminator 5 view .LVU215
 781 017c D206     		lsls	r2, r2, #27
 782 017e 00D1     		bne	.L33
 327:Drivers/STM32G0xx_HAL_Driver/Src/stm32g0xx_ll_usb.c ****       PCD_CLEAR_RX_DTOG(USBx, ep->num);
 783              		.loc 1 327 7 discriminator 10 view .LVU216
 784 0180 013C     		subs	r4, r4, #1
 785              	.LVL66:
 786              	.L33:
 327:Drivers/STM32G0xx_HAL_Driver/Src/stm32g0xx_ll_usb.c ****       PCD_CLEAR_RX_DTOG(USBx, ep->num);
 787              		.loc 1 327 7 discriminator 12 view .LVU217
 788 0182 0A78     		ldrb	r2, [r1]
 789 0184 D200     		lsls	r2, r2, #3
ARM GAS  /tmp/cc3M98Wq.s 			page 21


 790 0186 734D     		ldr	r5, .L75+12
 791 0188 AC46     		mov	ip, r5
 792 018a 6244     		add	r2, r2, ip
 793 018c 5568     		ldr	r5, [r2, #4]
 794 018e A406     		lsls	r4, r4, #26
 795              	.LVL67:
 327:Drivers/STM32G0xx_HAL_Driver/Src/stm32g0xx_ll_usb.c ****       PCD_CLEAR_RX_DTOG(USBx, ep->num);
 796              		.loc 1 327 7 is_stmt 0 discriminator 12 view .LVU218
 797 0190 2543     		orrs	r5, r4
 798 0192 8024     		movs	r4, #128
 799 0194 2406     		lsls	r4, r4, #24
 800 0196 2C43     		orrs	r4, r5
 801 0198 5460     		str	r4, [r2, #4]
 802 019a C3E7     		b	.L30
 803              	.LVL68:
 804              	.L35:
 327:Drivers/STM32G0xx_HAL_Driver/Src/stm32g0xx_ll_usb.c ****       PCD_CLEAR_RX_DTOG(USBx, ep->num);
 805              		.loc 1 327 7 discriminator 12 view .LVU219
 806              	.LBE11:
 334:Drivers/STM32G0xx_HAL_Driver/Src/stm32g0xx_ll_usb.c ****       }
 335:Drivers/STM32G0xx_HAL_Driver/Src/stm32g0xx_ll_usb.c ****       else
 336:Drivers/STM32G0xx_HAL_Driver/Src/stm32g0xx_ll_usb.c ****       {
 337:Drivers/STM32G0xx_HAL_Driver/Src/stm32g0xx_ll_usb.c ****         /* Configure NAK status for OUT Endpoint */
 338:Drivers/STM32G0xx_HAL_Driver/Src/stm32g0xx_ll_usb.c ****         PCD_SET_EP_RX_STATUS(USBx, ep->num, USB_EP_RX_NAK);
 807              		.loc 1 338 9 is_stmt 1 view .LVU220
 808              	.LBB12:
 809              		.loc 1 338 9 view .LVU221
 810              		.loc 1 338 9 view .LVU222
 811 019c 9200     		lsls	r2, r2, #2
 812 019e 9A18     		adds	r2, r3, r2
 813 01a0 1368     		ldr	r3, [r2]
 814              	.LVL69:
 815              		.loc 1 338 9 is_stmt 0 view .LVU223
 816 01a2 7049     		ldr	r1, .L75+28
 817              	.LVL70:
 818              		.loc 1 338 9 view .LVU224
 819 01a4 0B40     		ands	r3, r1
 820              	.LVL71:
 821              		.loc 1 338 9 is_stmt 1 view .LVU225
 822              		.loc 1 338 9 discriminator 3 view .LVU226
 823              		.loc 1 338 9 discriminator 4 view .LVU227
 824 01a6 8021     		movs	r1, #128
 825 01a8 8901     		lsls	r1, r1, #6
 826 01aa 5940     		eors	r1, r3
 827              	.LVL72:
 828              		.loc 1 338 9 discriminator 6 view .LVU228
 829 01ac 674B     		ldr	r3, .L75+4
 830 01ae 0B43     		orrs	r3, r1
 831 01b0 1360     		str	r3, [r2]
 832 01b2 04E1     		b	.L28
 833              	.LVL73:
 834              	.L24:
 835              		.loc 1 338 9 is_stmt 0 discriminator 6 view .LVU229
 836              	.LBE12:
 339:Drivers/STM32G0xx_HAL_Driver/Src/stm32g0xx_ll_usb.c ****       }
 340:Drivers/STM32G0xx_HAL_Driver/Src/stm32g0xx_ll_usb.c ****     }
 341:Drivers/STM32G0xx_HAL_Driver/Src/stm32g0xx_ll_usb.c ****   }
ARM GAS  /tmp/cc3M98Wq.s 			page 22


 342:Drivers/STM32G0xx_HAL_Driver/Src/stm32g0xx_ll_usb.c **** #if (USE_USB_DOUBLE_BUFFER == 1U)
 343:Drivers/STM32G0xx_HAL_Driver/Src/stm32g0xx_ll_usb.c ****   /* Double Buffer */
 344:Drivers/STM32G0xx_HAL_Driver/Src/stm32g0xx_ll_usb.c ****   else
 345:Drivers/STM32G0xx_HAL_Driver/Src/stm32g0xx_ll_usb.c ****   {
 346:Drivers/STM32G0xx_HAL_Driver/Src/stm32g0xx_ll_usb.c ****     if (ep->type == EP_TYPE_BULK)
 837              		.loc 1 346 5 is_stmt 1 view .LVU230
 838              		.loc 1 346 11 is_stmt 0 view .LVU231
 839 01b4 CA78     		ldrb	r2, [r1, #3]
 840              		.loc 1 346 8 view .LVU232
 841 01b6 022A     		cmp	r2, #2
 842 01b8 5ED0     		beq	.L72
 347:Drivers/STM32G0xx_HAL_Driver/Src/stm32g0xx_ll_usb.c ****     {
 348:Drivers/STM32G0xx_HAL_Driver/Src/stm32g0xx_ll_usb.c ****       /* Set bulk endpoint as double buffered */
 349:Drivers/STM32G0xx_HAL_Driver/Src/stm32g0xx_ll_usb.c ****       PCD_SET_BULK_EP_DBUF(USBx, ep->num);
 350:Drivers/STM32G0xx_HAL_Driver/Src/stm32g0xx_ll_usb.c ****     }
 351:Drivers/STM32G0xx_HAL_Driver/Src/stm32g0xx_ll_usb.c ****     else
 352:Drivers/STM32G0xx_HAL_Driver/Src/stm32g0xx_ll_usb.c ****     {
 353:Drivers/STM32G0xx_HAL_Driver/Src/stm32g0xx_ll_usb.c ****       /* Set the ISOC endpoint in double buffer mode */
 354:Drivers/STM32G0xx_HAL_Driver/Src/stm32g0xx_ll_usb.c ****       PCD_CLEAR_EP_KIND(USBx, ep->num);
 843              		.loc 1 354 7 is_stmt 1 view .LVU233
 844              	.LBB13:
 845              		.loc 1 354 7 view .LVU234
 846              		.loc 1 354 7 view .LVU235
 847 01ba 0A78     		ldrb	r2, [r1]
 848 01bc 9200     		lsls	r2, r2, #2
 849 01be 9A18     		adds	r2, r3, r2
 850 01c0 1568     		ldr	r5, [r2]
 851 01c2 694C     		ldr	r4, .L75+32
 852              	.LVL74:
 853              		.loc 1 354 7 is_stmt 0 view .LVU236
 854 01c4 2540     		ands	r5, r4
 855              	.LVL75:
 856              		.loc 1 354 7 is_stmt 1 view .LVU237
 857 01c6 614C     		ldr	r4, .L75+4
 858 01c8 2C43     		orrs	r4, r5
 859 01ca 1460     		str	r4, [r2]
 860              	.LVL76:
 861              	.L37:
 862              		.loc 1 354 7 is_stmt 0 view .LVU238
 863              	.LBE13:
 864              		.loc 1 354 7 is_stmt 1 discriminator 1 view .LVU239
 355:Drivers/STM32G0xx_HAL_Driver/Src/stm32g0xx_ll_usb.c ****     }
 356:Drivers/STM32G0xx_HAL_Driver/Src/stm32g0xx_ll_usb.c **** 
 357:Drivers/STM32G0xx_HAL_Driver/Src/stm32g0xx_ll_usb.c ****     /* Set buffer address for double buffered mode */
 358:Drivers/STM32G0xx_HAL_Driver/Src/stm32g0xx_ll_usb.c ****     PCD_SET_EP_DBUF_ADDR(USBx, ep->num, ep->pmaaddr0, ep->pmaaddr1);
 865              		.loc 1 358 5 view .LVU240
 866              		.loc 1 358 5 view .LVU241
 867              		.loc 1 358 5 view .LVU242
 868 01cc 0A78     		ldrb	r2, [r1]
 869 01ce D200     		lsls	r2, r2, #3
 870 01d0 604C     		ldr	r4, .L75+12
 871 01d2 A446     		mov	ip, r4
 872 01d4 6244     		add	r2, r2, ip
 873 01d6 1468     		ldr	r4, [r2]
 874 01d8 240C     		lsrs	r4, r4, #16
 875 01da 2404     		lsls	r4, r4, #16
 876 01dc 1460     		str	r4, [r2]
ARM GAS  /tmp/cc3M98Wq.s 			page 23


 877              		.loc 1 358 5 view .LVU243
 878 01de 0A78     		ldrb	r2, [r1]
 879 01e0 D200     		lsls	r2, r2, #3
 880 01e2 6244     		add	r2, r2, ip
 881 01e4 1568     		ldr	r5, [r2]
 882 01e6 0C89     		ldrh	r4, [r1, #8]
 883 01e8 A408     		lsrs	r4, r4, #2
 884 01ea A400     		lsls	r4, r4, #2
 885 01ec 2C43     		orrs	r4, r5
 886 01ee 1460     		str	r4, [r2]
 887              		.loc 1 358 5 view .LVU244
 888              		.loc 1 358 5 view .LVU245
 889              		.loc 1 358 5 view .LVU246
 890 01f0 0A78     		ldrb	r2, [r1]
 891 01f2 D200     		lsls	r2, r2, #3
 892 01f4 6244     		add	r2, r2, ip
 893 01f6 5468     		ldr	r4, [r2, #4]
 894 01f8 240C     		lsrs	r4, r4, #16
 895 01fa 2404     		lsls	r4, r4, #16
 896 01fc 5460     		str	r4, [r2, #4]
 897              		.loc 1 358 5 view .LVU247
 898 01fe 0A78     		ldrb	r2, [r1]
 899 0200 D200     		lsls	r2, r2, #3
 900 0202 6244     		add	r2, r2, ip
 901 0204 5568     		ldr	r5, [r2, #4]
 902 0206 4C89     		ldrh	r4, [r1, #10]
 903 0208 A408     		lsrs	r4, r4, #2
 904 020a A400     		lsls	r4, r4, #2
 905 020c 2C43     		orrs	r4, r5
 906 020e 5460     		str	r4, [r2, #4]
 907              		.loc 1 358 5 view .LVU248
 908              		.loc 1 358 5 view .LVU249
 359:Drivers/STM32G0xx_HAL_Driver/Src/stm32g0xx_ll_usb.c **** 
 360:Drivers/STM32G0xx_HAL_Driver/Src/stm32g0xx_ll_usb.c ****     if (ep->is_in == 0U)
 909              		.loc 1 360 5 view .LVU250
 910              		.loc 1 360 11 is_stmt 0 view .LVU251
 911 0210 4A78     		ldrb	r2, [r1, #1]
 912              		.loc 1 360 8 view .LVU252
 913 0212 002A     		cmp	r2, #0
 914 0214 00D0     		beq	.LCB829
 915 0216 E5E0     		b	.L38	@long jump
 916              	.LCB829:
 361:Drivers/STM32G0xx_HAL_Driver/Src/stm32g0xx_ll_usb.c ****     {
 362:Drivers/STM32G0xx_HAL_Driver/Src/stm32g0xx_ll_usb.c ****       /* Clear the data toggle bits for the endpoint IN/OUT */
 363:Drivers/STM32G0xx_HAL_Driver/Src/stm32g0xx_ll_usb.c ****       PCD_CLEAR_RX_DTOG(USBx, ep->num);
 917              		.loc 1 363 7 is_stmt 1 view .LVU253
 918              	.LBB14:
 919              		.loc 1 363 7 view .LVU254
 920              		.loc 1 363 7 view .LVU255
 921 0218 0A78     		ldrb	r2, [r1]
 922 021a 9200     		lsls	r2, r2, #2
 923 021c 9A18     		adds	r2, r3, r2
 924 021e 1468     		ldr	r4, [r2]
 925              	.LVL77:
 926              		.loc 1 363 7 view .LVU256
 927 0220 6404     		lsls	r4, r4, #17
 928 0222 05D5     		bpl	.L39
ARM GAS  /tmp/cc3M98Wq.s 			page 24


 929              	.LVL78:
 930              		.loc 1 363 7 discriminator 1 view .LVU257
 931              	.LBB15:
 932              		.loc 1 363 7 discriminator 1 view .LVU258
 933              		.loc 1 363 7 discriminator 1 view .LVU259
 934 0224 1568     		ldr	r5, [r2]
 935 0226 4A4C     		ldr	r4, .L75+8
 936 0228 2540     		ands	r5, r4
 937              	.LVL79:
 938              		.loc 1 363 7 discriminator 1 view .LVU260
 939 022a 4D4C     		ldr	r4, .L75+24
 940 022c 2C43     		orrs	r4, r5
 941 022e 1460     		str	r4, [r2]
 942              	.LVL80:
 943              	.L39:
 944              		.loc 1 363 7 is_stmt 0 discriminator 1 view .LVU261
 945              	.LBE15:
 946              		.loc 1 363 7 is_stmt 1 discriminator 3 view .LVU262
 947              	.LBE14:
 948              		.loc 1 363 7 discriminator 3 view .LVU263
 364:Drivers/STM32G0xx_HAL_Driver/Src/stm32g0xx_ll_usb.c ****       PCD_CLEAR_TX_DTOG(USBx, ep->num);
 949              		.loc 1 364 7 view .LVU264
 950              	.LBB16:
 951              		.loc 1 364 7 view .LVU265
 952              		.loc 1 364 7 view .LVU266
 953 0230 0A78     		ldrb	r2, [r1]
 954 0232 9200     		lsls	r2, r2, #2
 955 0234 9A18     		adds	r2, r3, r2
 956 0236 1468     		ldr	r4, [r2]
 957              	.LVL81:
 958              		.loc 1 364 7 view .LVU267
 959 0238 6406     		lsls	r4, r4, #25
 960 023a 05D5     		bpl	.L40
 961              	.LVL82:
 962              		.loc 1 364 7 discriminator 1 view .LVU268
 963              	.LBB17:
 964              		.loc 1 364 7 discriminator 1 view .LVU269
 965              		.loc 1 364 7 discriminator 1 view .LVU270
 966 023c 1568     		ldr	r5, [r2]
 967 023e 444C     		ldr	r4, .L75+8
 968 0240 2540     		ands	r5, r4
 969              	.LVL83:
 970              		.loc 1 364 7 discriminator 1 view .LVU271
 971 0242 454C     		ldr	r4, .L75+16
 972 0244 2C43     		orrs	r4, r5
 973 0246 1460     		str	r4, [r2]
 974              	.LVL84:
 975              	.L40:
 976              		.loc 1 364 7 is_stmt 0 discriminator 1 view .LVU272
 977              	.LBE17:
 978              		.loc 1 364 7 is_stmt 1 discriminator 3 view .LVU273
 979              	.LBE16:
 980              		.loc 1 364 7 discriminator 3 view .LVU274
 365:Drivers/STM32G0xx_HAL_Driver/Src/stm32g0xx_ll_usb.c **** 
 366:Drivers/STM32G0xx_HAL_Driver/Src/stm32g0xx_ll_usb.c ****       /* Set endpoint RX count */
 367:Drivers/STM32G0xx_HAL_Driver/Src/stm32g0xx_ll_usb.c ****       PCD_SET_EP_DBUF_CNT(USBx, ep->num, ep->is_in, ep->maxpacket);
 981              		.loc 1 367 7 view .LVU275
ARM GAS  /tmp/cc3M98Wq.s 			page 25


 982              		.loc 1 367 7 view .LVU276
 983              		.loc 1 367 7 view .LVU277
 984 0248 4A78     		ldrb	r2, [r1, #1]
 985 024a 002A     		cmp	r2, #0
 986 024c 3FD1     		bne	.L41
 987              		.loc 1 367 7 discriminator 1 view .LVU278
 988              	.LBB18:
 989              		.loc 1 367 7 discriminator 1 view .LVU279
 990              		.loc 1 367 7 discriminator 1 view .LVU280
 991 024e 0A78     		ldrb	r2, [r1]
 992 0250 D200     		lsls	r2, r2, #3
 993 0252 404C     		ldr	r4, .L75+12
 994 0254 A446     		mov	ip, r4
 995 0256 6244     		add	r2, r2, ip
 996 0258 1468     		ldr	r4, [r2]
 997 025a A401     		lsls	r4, r4, #6
 998 025c A409     		lsrs	r4, r4, #6
 999 025e 1460     		str	r4, [r2]
 1000              		.loc 1 367 7 discriminator 1 view .LVU281
 1001 0260 0A69     		ldr	r2, [r1, #16]
 1002 0262 002A     		cmp	r2, #0
 1003 0264 12D1     		bne	.L42
 1004              		.loc 1 367 7 discriminator 3 view .LVU282
 1005 0266 0A78     		ldrb	r2, [r1]
 1006 0268 D200     		lsls	r2, r2, #3
 1007 026a 6244     		add	r2, r2, ip
 1008 026c 1568     		ldr	r5, [r2]
 1009 026e 8024     		movs	r4, #128
 1010 0270 2406     		lsls	r4, r4, #24
 1011 0272 2C43     		orrs	r4, r5
 1012 0274 1460     		str	r4, [r2]
 1013 0276 2CE0     		b	.L43
 1014              	.LVL85:
 1015              	.L72:
 1016              		.loc 1 367 7 is_stmt 0 discriminator 3 view .LVU283
 1017              	.LBE18:
 349:Drivers/STM32G0xx_HAL_Driver/Src/stm32g0xx_ll_usb.c ****     }
 1018              		.loc 1 349 7 is_stmt 1 view .LVU284
 1019              	.LBB19:
 349:Drivers/STM32G0xx_HAL_Driver/Src/stm32g0xx_ll_usb.c ****     }
 1020              		.loc 1 349 7 view .LVU285
 349:Drivers/STM32G0xx_HAL_Driver/Src/stm32g0xx_ll_usb.c ****     }
 1021              		.loc 1 349 7 view .LVU286
 1022 0278 0A78     		ldrb	r2, [r1]
 1023 027a 9200     		lsls	r2, r2, #2
 1024 027c 9A18     		adds	r2, r3, r2
 1025 027e 1568     		ldr	r5, [r2]
 1026 0280 334C     		ldr	r4, .L75+8
 1027              	.LVL86:
 349:Drivers/STM32G0xx_HAL_Driver/Src/stm32g0xx_ll_usb.c ****     }
 1028              		.loc 1 349 7 is_stmt 0 view .LVU287
 1029 0282 2540     		ands	r5, r4
 1030              	.LVL87:
 349:Drivers/STM32G0xx_HAL_Driver/Src/stm32g0xx_ll_usb.c ****     }
 1031              		.loc 1 349 7 is_stmt 1 view .LVU288
 1032 0284 394C     		ldr	r4, .L75+36
 1033 0286 2C43     		orrs	r4, r5
ARM GAS  /tmp/cc3M98Wq.s 			page 26


 1034 0288 1460     		str	r4, [r2]
 1035              	.LBE19:
 349:Drivers/STM32G0xx_HAL_Driver/Src/stm32g0xx_ll_usb.c ****     }
 1036              		.loc 1 349 7 view .LVU289
 1037 028a 9FE7     		b	.L37
 1038              	.LVL88:
 1039              	.L42:
 1040              	.LBB20:
 1041              		.loc 1 367 7 discriminator 4 view .LVU290
 1042 028c 3E2A     		cmp	r2, #62
 1043 028e 0DD8     		bhi	.L44
 1044              		.loc 1 367 7 discriminator 6 view .LVU291
 1045              		.loc 1 367 7 discriminator 6 view .LVU292
 1046 0290 5408     		lsrs	r4, r2, #1
 1047              	.LVL89:
 1048              		.loc 1 367 7 discriminator 6 view .LVU293
 1049 0292 D207     		lsls	r2, r2, #31
 1050 0294 00D5     		bpl	.L45
 1051              		.loc 1 367 7 discriminator 8 view .LVU294
 1052 0296 0134     		adds	r4, r4, #1
 1053              	.LVL90:
 1054              	.L45:
 1055              		.loc 1 367 7 discriminator 10 view .LVU295
 1056 0298 0A78     		ldrb	r2, [r1]
 1057 029a D200     		lsls	r2, r2, #3
 1058 029c 2D4D     		ldr	r5, .L75+12
 1059 029e AC46     		mov	ip, r5
 1060 02a0 6244     		add	r2, r2, ip
 1061 02a2 1568     		ldr	r5, [r2]
 1062 02a4 A406     		lsls	r4, r4, #26
 1063              	.LVL91:
 1064              		.loc 1 367 7 is_stmt 0 discriminator 10 view .LVU296
 1065 02a6 2C43     		orrs	r4, r5
 1066 02a8 1460     		str	r4, [r2]
 1067              		.loc 1 367 7 is_stmt 1 discriminator 10 view .LVU297
 1068 02aa 12E0     		b	.L43
 1069              	.LVL92:
 1070              	.L44:
 1071              		.loc 1 367 7 discriminator 7 view .LVU298
 1072              		.loc 1 367 7 discriminator 7 view .LVU299
 1073 02ac 5409     		lsrs	r4, r2, #5
 1074              	.LVL93:
 1075              		.loc 1 367 7 discriminator 7 view .LVU300
 1076 02ae D206     		lsls	r2, r2, #27
 1077 02b0 00D1     		bne	.L46
 1078              		.loc 1 367 7 discriminator 12 view .LVU301
 1079 02b2 013C     		subs	r4, r4, #1
 1080              	.LVL94:
 1081              	.L46:
 1082              		.loc 1 367 7 discriminator 14 view .LVU302
 1083 02b4 0A78     		ldrb	r2, [r1]
 1084 02b6 D200     		lsls	r2, r2, #3
 1085 02b8 264D     		ldr	r5, .L75+12
 1086 02ba AC46     		mov	ip, r5
 1087 02bc 6244     		add	r2, r2, ip
 1088 02be 1568     		ldr	r5, [r2]
 1089 02c0 A406     		lsls	r4, r4, #26
ARM GAS  /tmp/cc3M98Wq.s 			page 27


 1090              	.LVL95:
 1091              		.loc 1 367 7 is_stmt 0 discriminator 14 view .LVU303
 1092 02c2 2543     		orrs	r5, r4
 1093 02c4 8024     		movs	r4, #128
 1094 02c6 2406     		lsls	r4, r4, #24
 1095 02c8 2C43     		orrs	r4, r5
 1096 02ca 1460     		str	r4, [r2]
 1097 02cc 01E0     		b	.L43
 1098              	.LVL96:
 1099              	.L41:
 1100              		.loc 1 367 7 discriminator 14 view .LVU304
 1101              	.LBE20:
 1102              		.loc 1 367 7 is_stmt 1 discriminator 2 view .LVU305
 1103 02ce 012A     		cmp	r2, #1
 1104 02d0 17D0     		beq	.L73
 1105              	.L43:
 1106              		.loc 1 367 7 discriminator 18 view .LVU306
 1107              		.loc 1 367 7 discriminator 18 view .LVU307
 1108              		.loc 1 367 7 discriminator 18 view .LVU308
 1109              		.loc 1 367 7 discriminator 18 view .LVU309
 1110 02d2 4A78     		ldrb	r2, [r1, #1]
 1111 02d4 002A     		cmp	r2, #0
 1112 02d6 5CD1     		bne	.L47
 1113              		.loc 1 367 7 discriminator 19 view .LVU310
 1114              	.LBB21:
 1115              		.loc 1 367 7 discriminator 19 view .LVU311
 1116              		.loc 1 367 7 discriminator 19 view .LVU312
 1117 02d8 0A78     		ldrb	r2, [r1]
 1118 02da D200     		lsls	r2, r2, #3
 1119 02dc 1D4C     		ldr	r4, .L75+12
 1120 02de A446     		mov	ip, r4
 1121 02e0 6244     		add	r2, r2, ip
 1122 02e2 5468     		ldr	r4, [r2, #4]
 1123 02e4 A401     		lsls	r4, r4, #6
 1124 02e6 A409     		lsrs	r4, r4, #6
 1125 02e8 5460     		str	r4, [r2, #4]
 1126              		.loc 1 367 7 discriminator 19 view .LVU313
 1127 02ea 0A69     		ldr	r2, [r1, #16]
 1128 02ec 002A     		cmp	r2, #0
 1129 02ee 1AD1     		bne	.L48
 1130              		.loc 1 367 7 discriminator 21 view .LVU314
 1131 02f0 0A78     		ldrb	r2, [r1]
 1132 02f2 D200     		lsls	r2, r2, #3
 1133 02f4 6244     		add	r2, r2, ip
 1134 02f6 5568     		ldr	r5, [r2, #4]
 1135 02f8 8024     		movs	r4, #128
 1136 02fa 2406     		lsls	r4, r4, #24
 1137 02fc 2C43     		orrs	r4, r5
 1138 02fe 5460     		str	r4, [r2, #4]
 1139 0300 49E0     		b	.L49
 1140              	.L73:
 1141              		.loc 1 367 7 is_stmt 0 discriminator 21 view .LVU315
 1142              	.LBE21:
 1143              		.loc 1 367 7 is_stmt 1 discriminator 16 view .LVU316
 1144              		.loc 1 367 7 discriminator 16 view .LVU317
 1145 0302 0A78     		ldrb	r2, [r1]
 1146 0304 D200     		lsls	r2, r2, #3
ARM GAS  /tmp/cc3M98Wq.s 			page 28


 1147 0306 134C     		ldr	r4, .L75+12
 1148 0308 A446     		mov	ip, r4
 1149 030a 6244     		add	r2, r2, ip
 1150 030c 1468     		ldr	r4, [r2]
 1151 030e 2404     		lsls	r4, r4, #16
 1152 0310 240C     		lsrs	r4, r4, #16
 1153 0312 1460     		str	r4, [r2]
 1154              		.loc 1 367 7 discriminator 16 view .LVU318
 1155 0314 0A78     		ldrb	r2, [r1]
 1156 0316 D200     		lsls	r2, r2, #3
 1157 0318 6244     		add	r2, r2, ip
 1158 031a 1468     		ldr	r4, [r2]
 1159 031c 0D69     		ldr	r5, [r1, #16]
 1160 031e 2D04     		lsls	r5, r5, #16
 1161 0320 2C43     		orrs	r4, r5
 1162 0322 1460     		str	r4, [r2]
 1163 0324 D5E7     		b	.L43
 1164              	.L48:
 1165              	.LBB22:
 1166              		.loc 1 367 7 discriminator 22 view .LVU319
 1167 0326 3E2A     		cmp	r2, #62
 1168 0328 22D8     		bhi	.L50
 1169              		.loc 1 367 7 discriminator 24 view .LVU320
 1170              		.loc 1 367 7 discriminator 24 view .LVU321
 1171 032a 5408     		lsrs	r4, r2, #1
 1172              	.LVL97:
 1173              		.loc 1 367 7 discriminator 24 view .LVU322
 1174 032c D207     		lsls	r2, r2, #31
 1175 032e 00D5     		bpl	.L51
 1176              		.loc 1 367 7 discriminator 26 view .LVU323
 1177 0330 0134     		adds	r4, r4, #1
 1178              	.LVL98:
 1179              	.L51:
 1180              		.loc 1 367 7 discriminator 28 view .LVU324
 1181 0332 0A78     		ldrb	r2, [r1]
 1182 0334 D200     		lsls	r2, r2, #3
 1183 0336 074D     		ldr	r5, .L75+12
 1184 0338 AC46     		mov	ip, r5
 1185 033a 6244     		add	r2, r2, ip
 1186 033c 5568     		ldr	r5, [r2, #4]
 1187 033e A406     		lsls	r4, r4, #26
 1188              	.LVL99:
 1189              		.loc 1 367 7 is_stmt 0 discriminator 28 view .LVU325
 1190 0340 2C43     		orrs	r4, r5
 1191 0342 5460     		str	r4, [r2, #4]
 1192              		.loc 1 367 7 is_stmt 1 discriminator 28 view .LVU326
 1193 0344 27E0     		b	.L49
 1194              	.L76:
 1195 0346 C046     		.align	2
 1196              	.L75:
 1197 0348 8F89FF07 		.word	134187407
 1198 034c 80800000 		.word	32896
 1199 0350 8F8FFF07 		.word	134188943
 1200 0354 00980040 		.word	1073780736
 1201 0358 C0800000 		.word	32960
 1202 035c BF8FFF07 		.word	134188991
 1203 0360 80C00000 		.word	49280
ARM GAS  /tmp/cc3M98Wq.s 			page 29


 1204 0364 8FBFFF07 		.word	134201231
 1205 0368 8F8EFF07 		.word	134188687
 1206 036c 80810000 		.word	33152
 1207              	.LVL100:
 1208              	.L50:
 1209              		.loc 1 367 7 discriminator 25 view .LVU327
 1210              		.loc 1 367 7 discriminator 25 view .LVU328
 1211 0370 5409     		lsrs	r4, r2, #5
 1212              	.LVL101:
 1213              		.loc 1 367 7 discriminator 25 view .LVU329
 1214 0372 D206     		lsls	r2, r2, #27
 1215 0374 00D1     		bne	.L52
 1216              		.loc 1 367 7 discriminator 30 view .LVU330
 1217 0376 013C     		subs	r4, r4, #1
 1218              	.LVL102:
 1219              	.L52:
 1220              		.loc 1 367 7 discriminator 32 view .LVU331
 1221 0378 0A78     		ldrb	r2, [r1]
 1222 037a D200     		lsls	r2, r2, #3
 1223 037c 364D     		ldr	r5, .L77
 1224 037e AC46     		mov	ip, r5
 1225 0380 6244     		add	r2, r2, ip
 1226 0382 5568     		ldr	r5, [r2, #4]
 1227 0384 A406     		lsls	r4, r4, #26
 1228              	.LVL103:
 1229              		.loc 1 367 7 is_stmt 0 discriminator 32 view .LVU332
 1230 0386 2543     		orrs	r5, r4
 1231 0388 8024     		movs	r4, #128
 1232 038a 2406     		lsls	r4, r4, #24
 1233 038c 2C43     		orrs	r4, r5
 1234 038e 5460     		str	r4, [r2, #4]
 1235 0390 01E0     		b	.L49
 1236              	.LVL104:
 1237              	.L47:
 1238              		.loc 1 367 7 discriminator 32 view .LVU333
 1239              	.LBE22:
 1240              		.loc 1 367 7 is_stmt 1 discriminator 20 view .LVU334
 1241 0392 012A     		cmp	r2, #1
 1242 0394 14D0     		beq	.L74
 1243              	.L49:
 1244              		.loc 1 367 7 discriminator 36 view .LVU335
 1245              		.loc 1 367 7 discriminator 36 view .LVU336
 368:Drivers/STM32G0xx_HAL_Driver/Src/stm32g0xx_ll_usb.c **** 
 369:Drivers/STM32G0xx_HAL_Driver/Src/stm32g0xx_ll_usb.c ****       /* Set endpoint RX to valid state */
 370:Drivers/STM32G0xx_HAL_Driver/Src/stm32g0xx_ll_usb.c ****       PCD_SET_EP_RX_STATUS(USBx, ep->num, USB_EP_RX_VALID);
 1246              		.loc 1 370 7 view .LVU337
 1247              	.LBB23:
 1248              		.loc 1 370 7 view .LVU338
 1249              		.loc 1 370 7 view .LVU339
 1250 0396 0A78     		ldrb	r2, [r1]
 1251 0398 9200     		lsls	r2, r2, #2
 1252 039a 9A18     		adds	r2, r3, r2
 1253 039c 1568     		ldr	r5, [r2]
 1254 039e 2F4C     		ldr	r4, .L77+4
 1255 03a0 2540     		ands	r5, r4
 1256              	.LVL105:
 1257              		.loc 1 370 7 view .LVU340
ARM GAS  /tmp/cc3M98Wq.s 			page 30


 1258              		.loc 1 370 7 discriminator 1 view .LVU341
 1259              		.loc 1 370 7 discriminator 3 view .LVU342
 1260              		.loc 1 370 7 discriminator 4 view .LVU343
 1261 03a2 C024     		movs	r4, #192
 1262 03a4 A401     		lsls	r4, r4, #6
 1263 03a6 6C40     		eors	r4, r5
 1264              	.LVL106:
 1265              		.loc 1 370 7 discriminator 6 view .LVU344
 1266 03a8 2D4D     		ldr	r5, .L77+8
 1267 03aa 2C43     		orrs	r4, r5
 1268              	.LVL107:
 1269              		.loc 1 370 7 is_stmt 0 discriminator 6 view .LVU345
 1270 03ac 1460     		str	r4, [r2]
 1271              	.LBE23:
 1272              		.loc 1 370 7 is_stmt 1 discriminator 6 view .LVU346
 371:Drivers/STM32G0xx_HAL_Driver/Src/stm32g0xx_ll_usb.c ****       PCD_SET_EP_TX_STATUS(USBx, ep->num, USB_EP_TX_DIS);
 1273              		.loc 1 371 7 view .LVU347
 1274              	.LBB24:
 1275              		.loc 1 371 7 view .LVU348
 1276              		.loc 1 371 7 view .LVU349
 1277 03ae 0A78     		ldrb	r2, [r1]
 1278 03b0 9200     		lsls	r2, r2, #2
 1279 03b2 9B18     		adds	r3, r3, r2
 1280              	.LVL108:
 1281              		.loc 1 371 7 is_stmt 0 view .LVU350
 1282 03b4 1A68     		ldr	r2, [r3]
 1283 03b6 2B49     		ldr	r1, .L77+12
 1284              	.LVL109:
 1285              		.loc 1 371 7 view .LVU351
 1286 03b8 0A40     		ands	r2, r1
 1287              	.LVL110:
 1288              		.loc 1 371 7 is_stmt 1 view .LVU352
 1289              		.loc 1 371 7 discriminator 3 view .LVU353
 1290              		.loc 1 371 7 discriminator 6 view .LVU354
 1291 03ba 1543     		orrs	r5, r2
 1292 03bc 1D60     		str	r5, [r3]
 1293              	.LBE24:
 1294              		.loc 1 371 7 discriminator 6 view .LVU355
 1295              	.LVL111:
 1296              	.L28:
 372:Drivers/STM32G0xx_HAL_Driver/Src/stm32g0xx_ll_usb.c ****     }
 373:Drivers/STM32G0xx_HAL_Driver/Src/stm32g0xx_ll_usb.c ****     else
 374:Drivers/STM32G0xx_HAL_Driver/Src/stm32g0xx_ll_usb.c ****     {
 375:Drivers/STM32G0xx_HAL_Driver/Src/stm32g0xx_ll_usb.c ****       /* Clear the data toggle bits for the endpoint IN/OUT */
 376:Drivers/STM32G0xx_HAL_Driver/Src/stm32g0xx_ll_usb.c ****       PCD_CLEAR_RX_DTOG(USBx, ep->num);
 377:Drivers/STM32G0xx_HAL_Driver/Src/stm32g0xx_ll_usb.c ****       PCD_CLEAR_TX_DTOG(USBx, ep->num);
 378:Drivers/STM32G0xx_HAL_Driver/Src/stm32g0xx_ll_usb.c **** 
 379:Drivers/STM32G0xx_HAL_Driver/Src/stm32g0xx_ll_usb.c ****       if (ep->type != EP_TYPE_ISOC)
 380:Drivers/STM32G0xx_HAL_Driver/Src/stm32g0xx_ll_usb.c ****       {
 381:Drivers/STM32G0xx_HAL_Driver/Src/stm32g0xx_ll_usb.c ****         /* Configure NAK status for the Endpoint */
 382:Drivers/STM32G0xx_HAL_Driver/Src/stm32g0xx_ll_usb.c ****         PCD_SET_EP_TX_STATUS(USBx, ep->num, USB_EP_TX_NAK);
 383:Drivers/STM32G0xx_HAL_Driver/Src/stm32g0xx_ll_usb.c ****       }
 384:Drivers/STM32G0xx_HAL_Driver/Src/stm32g0xx_ll_usb.c ****       else
 385:Drivers/STM32G0xx_HAL_Driver/Src/stm32g0xx_ll_usb.c ****       {
 386:Drivers/STM32G0xx_HAL_Driver/Src/stm32g0xx_ll_usb.c ****         /* Configure TX Endpoint to disabled state */
 387:Drivers/STM32G0xx_HAL_Driver/Src/stm32g0xx_ll_usb.c ****         PCD_SET_EP_TX_STATUS(USBx, ep->num, USB_EP_TX_DIS);
 388:Drivers/STM32G0xx_HAL_Driver/Src/stm32g0xx_ll_usb.c ****       }
ARM GAS  /tmp/cc3M98Wq.s 			page 31


 389:Drivers/STM32G0xx_HAL_Driver/Src/stm32g0xx_ll_usb.c **** 
 390:Drivers/STM32G0xx_HAL_Driver/Src/stm32g0xx_ll_usb.c ****       PCD_SET_EP_RX_STATUS(USBx, ep->num, USB_EP_RX_DIS);
 1297              		.loc 1 390 7 discriminator 7 view .LVU356
 391:Drivers/STM32G0xx_HAL_Driver/Src/stm32g0xx_ll_usb.c ****     }
 392:Drivers/STM32G0xx_HAL_Driver/Src/stm32g0xx_ll_usb.c ****   }
 393:Drivers/STM32G0xx_HAL_Driver/Src/stm32g0xx_ll_usb.c **** #endif /* (USE_USB_DOUBLE_BUFFER == 1U) */
 394:Drivers/STM32G0xx_HAL_Driver/Src/stm32g0xx_ll_usb.c **** 
 395:Drivers/STM32G0xx_HAL_Driver/Src/stm32g0xx_ll_usb.c ****   return ret;
 1298              		.loc 1 395 3 view .LVU357
 396:Drivers/STM32G0xx_HAL_Driver/Src/stm32g0xx_ll_usb.c **** }
 1299              		.loc 1 396 1 is_stmt 0 view .LVU358
 1300              		@ sp needed
 1301 03be F0BD     		pop	{r4, r5, r6, r7, pc}
 1302              	.LVL112:
 1303              	.L74:
 367:Drivers/STM32G0xx_HAL_Driver/Src/stm32g0xx_ll_usb.c **** 
 1304              		.loc 1 367 7 is_stmt 1 discriminator 34 view .LVU359
 1305 03c0 0A78     		ldrb	r2, [r1]
 1306 03c2 D200     		lsls	r2, r2, #3
 1307 03c4 244C     		ldr	r4, .L77
 1308 03c6 A446     		mov	ip, r4
 1309 03c8 6244     		add	r2, r2, ip
 1310 03ca 5468     		ldr	r4, [r2, #4]
 1311 03cc 2404     		lsls	r4, r4, #16
 1312 03ce 240C     		lsrs	r4, r4, #16
 1313 03d0 5460     		str	r4, [r2, #4]
 367:Drivers/STM32G0xx_HAL_Driver/Src/stm32g0xx_ll_usb.c **** 
 1314              		.loc 1 367 7 discriminator 34 view .LVU360
 1315 03d2 0A78     		ldrb	r2, [r1]
 1316 03d4 D200     		lsls	r2, r2, #3
 1317 03d6 6244     		add	r2, r2, ip
 1318 03d8 5468     		ldr	r4, [r2, #4]
 1319 03da 0D69     		ldr	r5, [r1, #16]
 1320 03dc 2D04     		lsls	r5, r5, #16
 1321 03de 2C43     		orrs	r4, r5
 1322 03e0 5460     		str	r4, [r2, #4]
 1323 03e2 D8E7     		b	.L49
 1324              	.LVL113:
 1325              	.L38:
 376:Drivers/STM32G0xx_HAL_Driver/Src/stm32g0xx_ll_usb.c ****       PCD_CLEAR_TX_DTOG(USBx, ep->num);
 1326              		.loc 1 376 7 view .LVU361
 1327              	.LBB25:
 376:Drivers/STM32G0xx_HAL_Driver/Src/stm32g0xx_ll_usb.c ****       PCD_CLEAR_TX_DTOG(USBx, ep->num);
 1328              		.loc 1 376 7 view .LVU362
 376:Drivers/STM32G0xx_HAL_Driver/Src/stm32g0xx_ll_usb.c ****       PCD_CLEAR_TX_DTOG(USBx, ep->num);
 1329              		.loc 1 376 7 view .LVU363
 1330 03e4 0A78     		ldrb	r2, [r1]
 1331 03e6 9200     		lsls	r2, r2, #2
 1332 03e8 9A18     		adds	r2, r3, r2
 1333 03ea 1468     		ldr	r4, [r2]
 1334              	.LVL114:
 376:Drivers/STM32G0xx_HAL_Driver/Src/stm32g0xx_ll_usb.c ****       PCD_CLEAR_TX_DTOG(USBx, ep->num);
 1335              		.loc 1 376 7 view .LVU364
 1336 03ec 6404     		lsls	r4, r4, #17
 1337 03ee 05D5     		bpl	.L53
 1338              	.LVL115:
 376:Drivers/STM32G0xx_HAL_Driver/Src/stm32g0xx_ll_usb.c ****       PCD_CLEAR_TX_DTOG(USBx, ep->num);
ARM GAS  /tmp/cc3M98Wq.s 			page 32


 1339              		.loc 1 376 7 discriminator 1 view .LVU365
 1340              	.LBB26:
 376:Drivers/STM32G0xx_HAL_Driver/Src/stm32g0xx_ll_usb.c ****       PCD_CLEAR_TX_DTOG(USBx, ep->num);
 1341              		.loc 1 376 7 discriminator 1 view .LVU366
 376:Drivers/STM32G0xx_HAL_Driver/Src/stm32g0xx_ll_usb.c ****       PCD_CLEAR_TX_DTOG(USBx, ep->num);
 1342              		.loc 1 376 7 discriminator 1 view .LVU367
 1343 03f0 1568     		ldr	r5, [r2]
 1344 03f2 1D4C     		ldr	r4, .L77+16
 1345 03f4 2540     		ands	r5, r4
 1346              	.LVL116:
 376:Drivers/STM32G0xx_HAL_Driver/Src/stm32g0xx_ll_usb.c ****       PCD_CLEAR_TX_DTOG(USBx, ep->num);
 1347              		.loc 1 376 7 discriminator 1 view .LVU368
 1348 03f6 1D4C     		ldr	r4, .L77+20
 1349 03f8 2C43     		orrs	r4, r5
 1350 03fa 1460     		str	r4, [r2]
 1351              	.LVL117:
 1352              	.L53:
 376:Drivers/STM32G0xx_HAL_Driver/Src/stm32g0xx_ll_usb.c ****       PCD_CLEAR_TX_DTOG(USBx, ep->num);
 1353              		.loc 1 376 7 is_stmt 0 discriminator 1 view .LVU369
 1354              	.LBE26:
 376:Drivers/STM32G0xx_HAL_Driver/Src/stm32g0xx_ll_usb.c ****       PCD_CLEAR_TX_DTOG(USBx, ep->num);
 1355              		.loc 1 376 7 is_stmt 1 discriminator 3 view .LVU370
 1356              	.LBE25:
 376:Drivers/STM32G0xx_HAL_Driver/Src/stm32g0xx_ll_usb.c ****       PCD_CLEAR_TX_DTOG(USBx, ep->num);
 1357              		.loc 1 376 7 discriminator 3 view .LVU371
 377:Drivers/STM32G0xx_HAL_Driver/Src/stm32g0xx_ll_usb.c **** 
 1358              		.loc 1 377 7 view .LVU372
 1359              	.LBB27:
 377:Drivers/STM32G0xx_HAL_Driver/Src/stm32g0xx_ll_usb.c **** 
 1360              		.loc 1 377 7 view .LVU373
 377:Drivers/STM32G0xx_HAL_Driver/Src/stm32g0xx_ll_usb.c **** 
 1361              		.loc 1 377 7 view .LVU374
 1362 03fc 0A78     		ldrb	r2, [r1]
 1363 03fe 9200     		lsls	r2, r2, #2
 1364 0400 9A18     		adds	r2, r3, r2
 1365 0402 1468     		ldr	r4, [r2]
 1366              	.LVL118:
 377:Drivers/STM32G0xx_HAL_Driver/Src/stm32g0xx_ll_usb.c **** 
 1367              		.loc 1 377 7 view .LVU375
 1368 0404 6406     		lsls	r4, r4, #25
 1369 0406 05D5     		bpl	.L54
 1370              	.LVL119:
 377:Drivers/STM32G0xx_HAL_Driver/Src/stm32g0xx_ll_usb.c **** 
 1371              		.loc 1 377 7 discriminator 1 view .LVU376
 1372              	.LBB28:
 377:Drivers/STM32G0xx_HAL_Driver/Src/stm32g0xx_ll_usb.c **** 
 1373              		.loc 1 377 7 discriminator 1 view .LVU377
 377:Drivers/STM32G0xx_HAL_Driver/Src/stm32g0xx_ll_usb.c **** 
 1374              		.loc 1 377 7 discriminator 1 view .LVU378
 1375 0408 1568     		ldr	r5, [r2]
 1376 040a 174C     		ldr	r4, .L77+16
 1377 040c 2540     		ands	r5, r4
 1378              	.LVL120:
 377:Drivers/STM32G0xx_HAL_Driver/Src/stm32g0xx_ll_usb.c **** 
 1379              		.loc 1 377 7 discriminator 1 view .LVU379
 1380 040e 184C     		ldr	r4, .L77+24
 1381 0410 2C43     		orrs	r4, r5
ARM GAS  /tmp/cc3M98Wq.s 			page 33


 1382 0412 1460     		str	r4, [r2]
 1383              	.LVL121:
 1384              	.L54:
 377:Drivers/STM32G0xx_HAL_Driver/Src/stm32g0xx_ll_usb.c **** 
 1385              		.loc 1 377 7 is_stmt 0 discriminator 1 view .LVU380
 1386              	.LBE28:
 377:Drivers/STM32G0xx_HAL_Driver/Src/stm32g0xx_ll_usb.c **** 
 1387              		.loc 1 377 7 is_stmt 1 discriminator 3 view .LVU381
 1388              	.LBE27:
 377:Drivers/STM32G0xx_HAL_Driver/Src/stm32g0xx_ll_usb.c **** 
 1389              		.loc 1 377 7 discriminator 3 view .LVU382
 379:Drivers/STM32G0xx_HAL_Driver/Src/stm32g0xx_ll_usb.c ****       {
 1390              		.loc 1 379 7 view .LVU383
 379:Drivers/STM32G0xx_HAL_Driver/Src/stm32g0xx_ll_usb.c ****       {
 1391              		.loc 1 379 13 is_stmt 0 view .LVU384
 1392 0414 CA78     		ldrb	r2, [r1, #3]
 379:Drivers/STM32G0xx_HAL_Driver/Src/stm32g0xx_ll_usb.c ****       {
 1393              		.loc 1 379 10 view .LVU385
 1394 0416 012A     		cmp	r2, #1
 1395 0418 14D0     		beq	.L55
 382:Drivers/STM32G0xx_HAL_Driver/Src/stm32g0xx_ll_usb.c ****       }
 1396              		.loc 1 382 9 is_stmt 1 view .LVU386
 1397              	.LBB29:
 382:Drivers/STM32G0xx_HAL_Driver/Src/stm32g0xx_ll_usb.c ****       }
 1398              		.loc 1 382 9 view .LVU387
 382:Drivers/STM32G0xx_HAL_Driver/Src/stm32g0xx_ll_usb.c ****       }
 1399              		.loc 1 382 9 view .LVU388
 1400 041a 0A78     		ldrb	r2, [r1]
 1401 041c 9200     		lsls	r2, r2, #2
 1402 041e 9A18     		adds	r2, r3, r2
 1403 0420 1468     		ldr	r4, [r2]
 1404 0422 104D     		ldr	r5, .L77+12
 1405 0424 2C40     		ands	r4, r5
 1406              	.LVL122:
 382:Drivers/STM32G0xx_HAL_Driver/Src/stm32g0xx_ll_usb.c ****       }
 1407              		.loc 1 382 9 view .LVU389
 382:Drivers/STM32G0xx_HAL_Driver/Src/stm32g0xx_ll_usb.c ****       }
 1408              		.loc 1 382 9 discriminator 3 view .LVU390
 382:Drivers/STM32G0xx_HAL_Driver/Src/stm32g0xx_ll_usb.c ****       }
 1409              		.loc 1 382 9 discriminator 4 view .LVU391
 1410 0426 2025     		movs	r5, #32
 1411 0428 6C40     		eors	r4, r5
 1412              	.LVL123:
 382:Drivers/STM32G0xx_HAL_Driver/Src/stm32g0xx_ll_usb.c ****       }
 1413              		.loc 1 382 9 discriminator 6 view .LVU392
 1414 042a 0D4D     		ldr	r5, .L77+8
 1415 042c 2C43     		orrs	r4, r5
 1416              	.LVL124:
 382:Drivers/STM32G0xx_HAL_Driver/Src/stm32g0xx_ll_usb.c ****       }
 1417              		.loc 1 382 9 is_stmt 0 discriminator 6 view .LVU393
 1418 042e 1460     		str	r4, [r2]
 1419              	.LBE29:
 382:Drivers/STM32G0xx_HAL_Driver/Src/stm32g0xx_ll_usb.c ****       }
 1420              		.loc 1 382 9 is_stmt 1 discriminator 6 view .LVU394
 1421              	.LVL125:
 1422              	.L56:
 387:Drivers/STM32G0xx_HAL_Driver/Src/stm32g0xx_ll_usb.c ****       }
ARM GAS  /tmp/cc3M98Wq.s 			page 34


 1423              		.loc 1 387 9 discriminator 7 view .LVU395
 390:Drivers/STM32G0xx_HAL_Driver/Src/stm32g0xx_ll_usb.c ****     }
 1424              		.loc 1 390 7 view .LVU396
 1425              	.LBB30:
 390:Drivers/STM32G0xx_HAL_Driver/Src/stm32g0xx_ll_usb.c ****     }
 1426              		.loc 1 390 7 view .LVU397
 390:Drivers/STM32G0xx_HAL_Driver/Src/stm32g0xx_ll_usb.c ****     }
 1427              		.loc 1 390 7 view .LVU398
 1428 0430 0A78     		ldrb	r2, [r1]
 1429 0432 9200     		lsls	r2, r2, #2
 1430 0434 9B18     		adds	r3, r3, r2
 1431              	.LVL126:
 390:Drivers/STM32G0xx_HAL_Driver/Src/stm32g0xx_ll_usb.c ****     }
 1432              		.loc 1 390 7 is_stmt 0 view .LVU399
 1433 0436 1968     		ldr	r1, [r3]
 1434              	.LVL127:
 390:Drivers/STM32G0xx_HAL_Driver/Src/stm32g0xx_ll_usb.c ****     }
 1435              		.loc 1 390 7 view .LVU400
 1436 0438 084A     		ldr	r2, .L77+4
 1437 043a 1140     		ands	r1, r2
 1438              	.LVL128:
 390:Drivers/STM32G0xx_HAL_Driver/Src/stm32g0xx_ll_usb.c ****     }
 1439              		.loc 1 390 7 is_stmt 1 view .LVU401
 390:Drivers/STM32G0xx_HAL_Driver/Src/stm32g0xx_ll_usb.c ****     }
 1440              		.loc 1 390 7 discriminator 3 view .LVU402
 390:Drivers/STM32G0xx_HAL_Driver/Src/stm32g0xx_ll_usb.c ****     }
 1441              		.loc 1 390 7 discriminator 6 view .LVU403
 1442 043c 084A     		ldr	r2, .L77+8
 1443 043e 0A43     		orrs	r2, r1
 1444 0440 1A60     		str	r2, [r3]
 1445 0442 BCE7     		b	.L28
 1446              	.LVL129:
 1447              	.L55:
 390:Drivers/STM32G0xx_HAL_Driver/Src/stm32g0xx_ll_usb.c ****     }
 1448              		.loc 1 390 7 is_stmt 0 discriminator 6 view .LVU404
 1449              	.LBE30:
 387:Drivers/STM32G0xx_HAL_Driver/Src/stm32g0xx_ll_usb.c ****       }
 1450              		.loc 1 387 9 is_stmt 1 view .LVU405
 1451              	.LBB31:
 387:Drivers/STM32G0xx_HAL_Driver/Src/stm32g0xx_ll_usb.c ****       }
 1452              		.loc 1 387 9 view .LVU406
 387:Drivers/STM32G0xx_HAL_Driver/Src/stm32g0xx_ll_usb.c ****       }
 1453              		.loc 1 387 9 view .LVU407
 1454 0444 0A78     		ldrb	r2, [r1]
 1455 0446 9200     		lsls	r2, r2, #2
 1456 0448 9A18     		adds	r2, r3, r2
 1457 044a 1568     		ldr	r5, [r2]
 1458 044c 054C     		ldr	r4, .L77+12
 1459 044e 2540     		ands	r5, r4
 1460              	.LVL130:
 387:Drivers/STM32G0xx_HAL_Driver/Src/stm32g0xx_ll_usb.c ****       }
 1461              		.loc 1 387 9 view .LVU408
 387:Drivers/STM32G0xx_HAL_Driver/Src/stm32g0xx_ll_usb.c ****       }
 1462              		.loc 1 387 9 discriminator 3 view .LVU409
 387:Drivers/STM32G0xx_HAL_Driver/Src/stm32g0xx_ll_usb.c ****       }
 1463              		.loc 1 387 9 discriminator 6 view .LVU410
 1464 0450 034C     		ldr	r4, .L77+8
ARM GAS  /tmp/cc3M98Wq.s 			page 35


 1465 0452 2C43     		orrs	r4, r5
 1466 0454 1460     		str	r4, [r2]
 1467 0456 EBE7     		b	.L56
 1468              	.L78:
 1469              		.align	2
 1470              	.L77:
 1471 0458 00980040 		.word	1073780736
 1472 045c 8FBFFF07 		.word	134201231
 1473 0460 80800000 		.word	32896
 1474 0464 BF8FFF07 		.word	134188991
 1475 0468 8F8FFF07 		.word	134188943
 1476 046c 80C00000 		.word	49280
 1477 0470 C0800000 		.word	32960
 1478              	.LBE31:
 1479              		.cfi_endproc
 1480              	.LFE374:
 1482              		.section	.text.USB_DeactivateEndpoint,"ax",%progbits
 1483              		.align	1
 1484              		.global	USB_DeactivateEndpoint
 1485              		.syntax unified
 1486              		.code	16
 1487              		.thumb_func
 1489              	USB_DeactivateEndpoint:
 1490              	.LVL131:
 1491              	.LFB375:
 397:Drivers/STM32G0xx_HAL_Driver/Src/stm32g0xx_ll_usb.c **** 
 398:Drivers/STM32G0xx_HAL_Driver/Src/stm32g0xx_ll_usb.c **** /**
 399:Drivers/STM32G0xx_HAL_Driver/Src/stm32g0xx_ll_usb.c ****   * @brief  De-activate and de-initialize an endpoint
 400:Drivers/STM32G0xx_HAL_Driver/Src/stm32g0xx_ll_usb.c ****   * @param  USBx Selected device
 401:Drivers/STM32G0xx_HAL_Driver/Src/stm32g0xx_ll_usb.c ****   * @param  ep pointer to endpoint structure
 402:Drivers/STM32G0xx_HAL_Driver/Src/stm32g0xx_ll_usb.c ****   * @retval HAL status
 403:Drivers/STM32G0xx_HAL_Driver/Src/stm32g0xx_ll_usb.c ****   */
 404:Drivers/STM32G0xx_HAL_Driver/Src/stm32g0xx_ll_usb.c **** HAL_StatusTypeDef USB_DeactivateEndpoint(USB_DRD_TypeDef *USBx, USB_DRD_EPTypeDef *ep)
 405:Drivers/STM32G0xx_HAL_Driver/Src/stm32g0xx_ll_usb.c **** {
 1492              		.loc 1 405 1 view -0
 1493              		.cfi_startproc
 1494              		@ args = 0, pretend = 0, frame = 0
 1495              		@ frame_needed = 0, uses_anonymous_args = 0
 1496              		.loc 1 405 1 is_stmt 0 view .LVU412
 1497 0000 10B5     		push	{r4, lr}
 1498              	.LCFI5:
 1499              		.cfi_def_cfa_offset 8
 1500              		.cfi_offset 4, -8
 1501              		.cfi_offset 14, -4
 406:Drivers/STM32G0xx_HAL_Driver/Src/stm32g0xx_ll_usb.c ****   if (ep->doublebuffer == 0U)
 1502              		.loc 1 406 3 is_stmt 1 view .LVU413
 1503              		.loc 1 406 9 is_stmt 0 view .LVU414
 1504 0002 0B7B     		ldrb	r3, [r1, #12]
 1505              		.loc 1 406 6 view .LVU415
 1506 0004 002B     		cmp	r3, #0
 1507 0006 2FD1     		bne	.L80
 407:Drivers/STM32G0xx_HAL_Driver/Src/stm32g0xx_ll_usb.c ****   {
 408:Drivers/STM32G0xx_HAL_Driver/Src/stm32g0xx_ll_usb.c ****     if (ep->is_in != 0U)
 1508              		.loc 1 408 5 is_stmt 1 view .LVU416
 1509              		.loc 1 408 11 is_stmt 0 view .LVU417
 1510 0008 4B78     		ldrb	r3, [r1, #1]
 1511              		.loc 1 408 8 view .LVU418
ARM GAS  /tmp/cc3M98Wq.s 			page 36


 1512 000a 002B     		cmp	r3, #0
 1513 000c 16D0     		beq	.L81
 409:Drivers/STM32G0xx_HAL_Driver/Src/stm32g0xx_ll_usb.c ****     {
 410:Drivers/STM32G0xx_HAL_Driver/Src/stm32g0xx_ll_usb.c ****       PCD_CLEAR_TX_DTOG(USBx, ep->num);
 1514              		.loc 1 410 7 is_stmt 1 view .LVU419
 1515              	.LBB32:
 1516              		.loc 1 410 7 view .LVU420
 1517              		.loc 1 410 7 view .LVU421
 1518 000e 0B78     		ldrb	r3, [r1]
 1519 0010 9B00     		lsls	r3, r3, #2
 1520 0012 C318     		adds	r3, r0, r3
 1521 0014 1A68     		ldr	r2, [r3]
 1522              	.LVL132:
 1523              		.loc 1 410 7 view .LVU422
 1524 0016 5206     		lsls	r2, r2, #25
 1525 0018 05D5     		bpl	.L82
 1526              	.LVL133:
 1527              		.loc 1 410 7 discriminator 1 view .LVU423
 1528              	.LBB33:
 1529              		.loc 1 410 7 discriminator 1 view .LVU424
 1530              		.loc 1 410 7 discriminator 1 view .LVU425
 1531 001a 1C68     		ldr	r4, [r3]
 1532 001c 474A     		ldr	r2, .L96
 1533 001e 1440     		ands	r4, r2
 1534              	.LVL134:
 1535              		.loc 1 410 7 discriminator 1 view .LVU426
 1536 0020 474A     		ldr	r2, .L96+4
 1537 0022 2243     		orrs	r2, r4
 1538 0024 1A60     		str	r2, [r3]
 1539              	.LVL135:
 1540              	.L82:
 1541              		.loc 1 410 7 is_stmt 0 discriminator 1 view .LVU427
 1542              	.LBE33:
 1543              		.loc 1 410 7 is_stmt 1 discriminator 3 view .LVU428
 1544              	.LBE32:
 1545              		.loc 1 410 7 discriminator 3 view .LVU429
 411:Drivers/STM32G0xx_HAL_Driver/Src/stm32g0xx_ll_usb.c **** 
 412:Drivers/STM32G0xx_HAL_Driver/Src/stm32g0xx_ll_usb.c ****       /* Configure DISABLE status for the Endpoint */
 413:Drivers/STM32G0xx_HAL_Driver/Src/stm32g0xx_ll_usb.c ****       PCD_SET_EP_TX_STATUS(USBx, ep->num, USB_EP_TX_DIS);
 1546              		.loc 1 413 7 view .LVU430
 1547              	.LBB34:
 1548              		.loc 1 413 7 view .LVU431
 1549              		.loc 1 413 7 view .LVU432
 1550 0026 0B78     		ldrb	r3, [r1]
 1551 0028 9B00     		lsls	r3, r3, #2
 1552 002a C318     		adds	r3, r0, r3
 1553 002c 1968     		ldr	r1, [r3]
 1554              	.LVL136:
 1555              		.loc 1 413 7 is_stmt 0 view .LVU433
 1556 002e 454A     		ldr	r2, .L96+8
 1557 0030 1140     		ands	r1, r2
 1558              	.LVL137:
 1559              		.loc 1 413 7 is_stmt 1 view .LVU434
 1560              		.loc 1 413 7 discriminator 3 view .LVU435
 1561              		.loc 1 413 7 discriminator 6 view .LVU436
 1562 0032 454A     		ldr	r2, .L96+12
 1563 0034 0A43     		orrs	r2, r1
ARM GAS  /tmp/cc3M98Wq.s 			page 37


 1564 0036 1A60     		str	r2, [r3]
 1565              	.LBE34:
 1566              		.loc 1 413 7 discriminator 6 view .LVU437
 1567              	.LVL138:
 1568              	.L83:
 414:Drivers/STM32G0xx_HAL_Driver/Src/stm32g0xx_ll_usb.c ****     }
 415:Drivers/STM32G0xx_HAL_Driver/Src/stm32g0xx_ll_usb.c **** 
 416:Drivers/STM32G0xx_HAL_Driver/Src/stm32g0xx_ll_usb.c ****     else
 417:Drivers/STM32G0xx_HAL_Driver/Src/stm32g0xx_ll_usb.c ****     {
 418:Drivers/STM32G0xx_HAL_Driver/Src/stm32g0xx_ll_usb.c ****       PCD_CLEAR_RX_DTOG(USBx, ep->num);
 419:Drivers/STM32G0xx_HAL_Driver/Src/stm32g0xx_ll_usb.c **** 
 420:Drivers/STM32G0xx_HAL_Driver/Src/stm32g0xx_ll_usb.c ****       /* Configure DISABLE status for the Endpoint */
 421:Drivers/STM32G0xx_HAL_Driver/Src/stm32g0xx_ll_usb.c ****       PCD_SET_EP_RX_STATUS(USBx, ep->num, USB_EP_RX_DIS);
 422:Drivers/STM32G0xx_HAL_Driver/Src/stm32g0xx_ll_usb.c ****     }
 423:Drivers/STM32G0xx_HAL_Driver/Src/stm32g0xx_ll_usb.c ****   }
 424:Drivers/STM32G0xx_HAL_Driver/Src/stm32g0xx_ll_usb.c **** #if (USE_USB_DOUBLE_BUFFER == 1U)
 425:Drivers/STM32G0xx_HAL_Driver/Src/stm32g0xx_ll_usb.c ****   /* Double Buffer */
 426:Drivers/STM32G0xx_HAL_Driver/Src/stm32g0xx_ll_usb.c ****   else
 427:Drivers/STM32G0xx_HAL_Driver/Src/stm32g0xx_ll_usb.c ****   {
 428:Drivers/STM32G0xx_HAL_Driver/Src/stm32g0xx_ll_usb.c ****     if (ep->is_in == 0U)
 429:Drivers/STM32G0xx_HAL_Driver/Src/stm32g0xx_ll_usb.c ****     {
 430:Drivers/STM32G0xx_HAL_Driver/Src/stm32g0xx_ll_usb.c ****       /* Clear the data toggle bits for the endpoint IN/OUT*/
 431:Drivers/STM32G0xx_HAL_Driver/Src/stm32g0xx_ll_usb.c ****       PCD_CLEAR_RX_DTOG(USBx, ep->num);
 432:Drivers/STM32G0xx_HAL_Driver/Src/stm32g0xx_ll_usb.c ****       PCD_CLEAR_TX_DTOG(USBx, ep->num);
 433:Drivers/STM32G0xx_HAL_Driver/Src/stm32g0xx_ll_usb.c **** 
 434:Drivers/STM32G0xx_HAL_Driver/Src/stm32g0xx_ll_usb.c ****       /* Reset value of the data toggle bits for the endpoint out*/
 435:Drivers/STM32G0xx_HAL_Driver/Src/stm32g0xx_ll_usb.c ****       PCD_TX_DTOG(USBx, ep->num);
 436:Drivers/STM32G0xx_HAL_Driver/Src/stm32g0xx_ll_usb.c **** 
 437:Drivers/STM32G0xx_HAL_Driver/Src/stm32g0xx_ll_usb.c ****       PCD_SET_EP_RX_STATUS(USBx, ep->num, USB_EP_RX_DIS);
 438:Drivers/STM32G0xx_HAL_Driver/Src/stm32g0xx_ll_usb.c ****       PCD_SET_EP_TX_STATUS(USBx, ep->num, USB_EP_TX_DIS);
 439:Drivers/STM32G0xx_HAL_Driver/Src/stm32g0xx_ll_usb.c ****     }
 440:Drivers/STM32G0xx_HAL_Driver/Src/stm32g0xx_ll_usb.c ****     else
 441:Drivers/STM32G0xx_HAL_Driver/Src/stm32g0xx_ll_usb.c ****     {
 442:Drivers/STM32G0xx_HAL_Driver/Src/stm32g0xx_ll_usb.c ****       /* Clear the data toggle bits for the endpoint IN/OUT*/
 443:Drivers/STM32G0xx_HAL_Driver/Src/stm32g0xx_ll_usb.c ****       PCD_CLEAR_RX_DTOG(USBx, ep->num);
 444:Drivers/STM32G0xx_HAL_Driver/Src/stm32g0xx_ll_usb.c ****       PCD_CLEAR_TX_DTOG(USBx, ep->num);
 445:Drivers/STM32G0xx_HAL_Driver/Src/stm32g0xx_ll_usb.c ****       PCD_RX_DTOG(USBx, ep->num);
 446:Drivers/STM32G0xx_HAL_Driver/Src/stm32g0xx_ll_usb.c **** 
 447:Drivers/STM32G0xx_HAL_Driver/Src/stm32g0xx_ll_usb.c ****       /* Configure DISABLE status for the Endpoint*/
 448:Drivers/STM32G0xx_HAL_Driver/Src/stm32g0xx_ll_usb.c ****       PCD_SET_EP_TX_STATUS(USBx, ep->num, USB_EP_TX_DIS);
 449:Drivers/STM32G0xx_HAL_Driver/Src/stm32g0xx_ll_usb.c ****       PCD_SET_EP_RX_STATUS(USBx, ep->num, USB_EP_RX_DIS);
 1569              		.loc 1 449 7 discriminator 7 view .LVU438
 450:Drivers/STM32G0xx_HAL_Driver/Src/stm32g0xx_ll_usb.c ****     }
 451:Drivers/STM32G0xx_HAL_Driver/Src/stm32g0xx_ll_usb.c ****   }
 452:Drivers/STM32G0xx_HAL_Driver/Src/stm32g0xx_ll_usb.c **** #endif /* (USE_USB_DOUBLE_BUFFER == 1U) */
 453:Drivers/STM32G0xx_HAL_Driver/Src/stm32g0xx_ll_usb.c **** 
 454:Drivers/STM32G0xx_HAL_Driver/Src/stm32g0xx_ll_usb.c ****   return HAL_OK;
 1570              		.loc 1 454 3 view .LVU439
 455:Drivers/STM32G0xx_HAL_Driver/Src/stm32g0xx_ll_usb.c **** }
 1571              		.loc 1 455 1 is_stmt 0 view .LVU440
 1572 0038 0020     		movs	r0, #0
 1573              		@ sp needed
 1574 003a 10BD     		pop	{r4, pc}
 1575              	.LVL139:
 1576              	.L81:
 418:Drivers/STM32G0xx_HAL_Driver/Src/stm32g0xx_ll_usb.c **** 
 1577              		.loc 1 418 7 is_stmt 1 view .LVU441
ARM GAS  /tmp/cc3M98Wq.s 			page 38


 1578              	.LBB35:
 418:Drivers/STM32G0xx_HAL_Driver/Src/stm32g0xx_ll_usb.c **** 
 1579              		.loc 1 418 7 view .LVU442
 418:Drivers/STM32G0xx_HAL_Driver/Src/stm32g0xx_ll_usb.c **** 
 1580              		.loc 1 418 7 view .LVU443
 1581 003c 0B78     		ldrb	r3, [r1]
 1582 003e 9B00     		lsls	r3, r3, #2
 1583 0040 C318     		adds	r3, r0, r3
 1584 0042 1A68     		ldr	r2, [r3]
 1585              	.LVL140:
 418:Drivers/STM32G0xx_HAL_Driver/Src/stm32g0xx_ll_usb.c **** 
 1586              		.loc 1 418 7 view .LVU444
 1587 0044 5204     		lsls	r2, r2, #17
 1588 0046 05D5     		bpl	.L84
 1589              	.LVL141:
 418:Drivers/STM32G0xx_HAL_Driver/Src/stm32g0xx_ll_usb.c **** 
 1590              		.loc 1 418 7 discriminator 1 view .LVU445
 1591              	.LBB36:
 418:Drivers/STM32G0xx_HAL_Driver/Src/stm32g0xx_ll_usb.c **** 
 1592              		.loc 1 418 7 discriminator 1 view .LVU446
 418:Drivers/STM32G0xx_HAL_Driver/Src/stm32g0xx_ll_usb.c **** 
 1593              		.loc 1 418 7 discriminator 1 view .LVU447
 1594 0048 1C68     		ldr	r4, [r3]
 1595 004a 3C4A     		ldr	r2, .L96
 1596 004c 1440     		ands	r4, r2
 1597              	.LVL142:
 418:Drivers/STM32G0xx_HAL_Driver/Src/stm32g0xx_ll_usb.c **** 
 1598              		.loc 1 418 7 discriminator 1 view .LVU448
 1599 004e 3F4A     		ldr	r2, .L96+16
 1600 0050 2243     		orrs	r2, r4
 1601 0052 1A60     		str	r2, [r3]
 1602              	.LVL143:
 1603              	.L84:
 418:Drivers/STM32G0xx_HAL_Driver/Src/stm32g0xx_ll_usb.c **** 
 1604              		.loc 1 418 7 is_stmt 0 discriminator 1 view .LVU449
 1605              	.LBE36:
 418:Drivers/STM32G0xx_HAL_Driver/Src/stm32g0xx_ll_usb.c **** 
 1606              		.loc 1 418 7 is_stmt 1 discriminator 3 view .LVU450
 1607              	.LBE35:
 418:Drivers/STM32G0xx_HAL_Driver/Src/stm32g0xx_ll_usb.c **** 
 1608              		.loc 1 418 7 discriminator 3 view .LVU451
 421:Drivers/STM32G0xx_HAL_Driver/Src/stm32g0xx_ll_usb.c ****     }
 1609              		.loc 1 421 7 view .LVU452
 1610              	.LBB37:
 421:Drivers/STM32G0xx_HAL_Driver/Src/stm32g0xx_ll_usb.c ****     }
 1611              		.loc 1 421 7 view .LVU453
 421:Drivers/STM32G0xx_HAL_Driver/Src/stm32g0xx_ll_usb.c ****     }
 1612              		.loc 1 421 7 view .LVU454
 1613 0054 0B78     		ldrb	r3, [r1]
 1614 0056 9B00     		lsls	r3, r3, #2
 1615 0058 C318     		adds	r3, r0, r3
 1616 005a 1968     		ldr	r1, [r3]
 1617              	.LVL144:
 421:Drivers/STM32G0xx_HAL_Driver/Src/stm32g0xx_ll_usb.c ****     }
 1618              		.loc 1 421 7 is_stmt 0 view .LVU455
 1619 005c 3C4A     		ldr	r2, .L96+20
 1620 005e 1140     		ands	r1, r2
ARM GAS  /tmp/cc3M98Wq.s 			page 39


 1621              	.LVL145:
 421:Drivers/STM32G0xx_HAL_Driver/Src/stm32g0xx_ll_usb.c ****     }
 1622              		.loc 1 421 7 is_stmt 1 view .LVU456
 421:Drivers/STM32G0xx_HAL_Driver/Src/stm32g0xx_ll_usb.c ****     }
 1623              		.loc 1 421 7 discriminator 3 view .LVU457
 421:Drivers/STM32G0xx_HAL_Driver/Src/stm32g0xx_ll_usb.c ****     }
 1624              		.loc 1 421 7 discriminator 6 view .LVU458
 1625 0060 394A     		ldr	r2, .L96+12
 1626 0062 0A43     		orrs	r2, r1
 1627 0064 1A60     		str	r2, [r3]
 1628 0066 E7E7     		b	.L83
 1629              	.LVL146:
 1630              	.L80:
 421:Drivers/STM32G0xx_HAL_Driver/Src/stm32g0xx_ll_usb.c ****     }
 1631              		.loc 1 421 7 is_stmt 0 discriminator 6 view .LVU459
 1632              	.LBE37:
 428:Drivers/STM32G0xx_HAL_Driver/Src/stm32g0xx_ll_usb.c ****     {
 1633              		.loc 1 428 5 is_stmt 1 view .LVU460
 428:Drivers/STM32G0xx_HAL_Driver/Src/stm32g0xx_ll_usb.c ****     {
 1634              		.loc 1 428 11 is_stmt 0 view .LVU461
 1635 0068 4B78     		ldrb	r3, [r1, #1]
 428:Drivers/STM32G0xx_HAL_Driver/Src/stm32g0xx_ll_usb.c ****     {
 1636              		.loc 1 428 8 view .LVU462
 1637 006a 002B     		cmp	r3, #0
 1638 006c 32D1     		bne	.L85
 431:Drivers/STM32G0xx_HAL_Driver/Src/stm32g0xx_ll_usb.c ****       PCD_CLEAR_TX_DTOG(USBx, ep->num);
 1639              		.loc 1 431 7 is_stmt 1 view .LVU463
 1640              	.LBB38:
 431:Drivers/STM32G0xx_HAL_Driver/Src/stm32g0xx_ll_usb.c ****       PCD_CLEAR_TX_DTOG(USBx, ep->num);
 1641              		.loc 1 431 7 view .LVU464
 431:Drivers/STM32G0xx_HAL_Driver/Src/stm32g0xx_ll_usb.c ****       PCD_CLEAR_TX_DTOG(USBx, ep->num);
 1642              		.loc 1 431 7 view .LVU465
 1643 006e 0B78     		ldrb	r3, [r1]
 1644 0070 9B00     		lsls	r3, r3, #2
 1645 0072 C318     		adds	r3, r0, r3
 1646 0074 1A68     		ldr	r2, [r3]
 1647              	.LVL147:
 431:Drivers/STM32G0xx_HAL_Driver/Src/stm32g0xx_ll_usb.c ****       PCD_CLEAR_TX_DTOG(USBx, ep->num);
 1648              		.loc 1 431 7 view .LVU466
 1649 0076 5204     		lsls	r2, r2, #17
 1650 0078 05D5     		bpl	.L86
 1651              	.LVL148:
 431:Drivers/STM32G0xx_HAL_Driver/Src/stm32g0xx_ll_usb.c ****       PCD_CLEAR_TX_DTOG(USBx, ep->num);
 1652              		.loc 1 431 7 discriminator 1 view .LVU467
 1653              	.LBB39:
 431:Drivers/STM32G0xx_HAL_Driver/Src/stm32g0xx_ll_usb.c ****       PCD_CLEAR_TX_DTOG(USBx, ep->num);
 1654              		.loc 1 431 7 discriminator 1 view .LVU468
 431:Drivers/STM32G0xx_HAL_Driver/Src/stm32g0xx_ll_usb.c ****       PCD_CLEAR_TX_DTOG(USBx, ep->num);
 1655              		.loc 1 431 7 discriminator 1 view .LVU469
 1656 007a 1C68     		ldr	r4, [r3]
 1657 007c 2F4A     		ldr	r2, .L96
 1658 007e 1440     		ands	r4, r2
 1659              	.LVL149:
 431:Drivers/STM32G0xx_HAL_Driver/Src/stm32g0xx_ll_usb.c ****       PCD_CLEAR_TX_DTOG(USBx, ep->num);
 1660              		.loc 1 431 7 discriminator 1 view .LVU470
 1661 0080 324A     		ldr	r2, .L96+16
 1662 0082 2243     		orrs	r2, r4
ARM GAS  /tmp/cc3M98Wq.s 			page 40


 1663 0084 1A60     		str	r2, [r3]
 1664              	.LVL150:
 1665              	.L86:
 431:Drivers/STM32G0xx_HAL_Driver/Src/stm32g0xx_ll_usb.c ****       PCD_CLEAR_TX_DTOG(USBx, ep->num);
 1666              		.loc 1 431 7 is_stmt 0 discriminator 1 view .LVU471
 1667              	.LBE39:
 431:Drivers/STM32G0xx_HAL_Driver/Src/stm32g0xx_ll_usb.c ****       PCD_CLEAR_TX_DTOG(USBx, ep->num);
 1668              		.loc 1 431 7 is_stmt 1 discriminator 3 view .LVU472
 1669              	.LBE38:
 431:Drivers/STM32G0xx_HAL_Driver/Src/stm32g0xx_ll_usb.c ****       PCD_CLEAR_TX_DTOG(USBx, ep->num);
 1670              		.loc 1 431 7 discriminator 3 view .LVU473
 432:Drivers/STM32G0xx_HAL_Driver/Src/stm32g0xx_ll_usb.c **** 
 1671              		.loc 1 432 7 view .LVU474
 1672              	.LBB40:
 432:Drivers/STM32G0xx_HAL_Driver/Src/stm32g0xx_ll_usb.c **** 
 1673              		.loc 1 432 7 view .LVU475
 432:Drivers/STM32G0xx_HAL_Driver/Src/stm32g0xx_ll_usb.c **** 
 1674              		.loc 1 432 7 view .LVU476
 1675 0086 0B78     		ldrb	r3, [r1]
 1676 0088 9B00     		lsls	r3, r3, #2
 1677 008a C318     		adds	r3, r0, r3
 1678 008c 1A68     		ldr	r2, [r3]
 1679              	.LVL151:
 432:Drivers/STM32G0xx_HAL_Driver/Src/stm32g0xx_ll_usb.c **** 
 1680              		.loc 1 432 7 view .LVU477
 1681 008e 5206     		lsls	r2, r2, #25
 1682 0090 05D5     		bpl	.L87
 1683              	.LVL152:
 432:Drivers/STM32G0xx_HAL_Driver/Src/stm32g0xx_ll_usb.c **** 
 1684              		.loc 1 432 7 discriminator 1 view .LVU478
 1685              	.LBB41:
 432:Drivers/STM32G0xx_HAL_Driver/Src/stm32g0xx_ll_usb.c **** 
 1686              		.loc 1 432 7 discriminator 1 view .LVU479
 432:Drivers/STM32G0xx_HAL_Driver/Src/stm32g0xx_ll_usb.c **** 
 1687              		.loc 1 432 7 discriminator 1 view .LVU480
 1688 0092 1C68     		ldr	r4, [r3]
 1689 0094 294A     		ldr	r2, .L96
 1690 0096 1440     		ands	r4, r2
 1691              	.LVL153:
 432:Drivers/STM32G0xx_HAL_Driver/Src/stm32g0xx_ll_usb.c **** 
 1692              		.loc 1 432 7 discriminator 1 view .LVU481
 1693 0098 294A     		ldr	r2, .L96+4
 1694 009a 2243     		orrs	r2, r4
 1695 009c 1A60     		str	r2, [r3]
 1696              	.LVL154:
 1697              	.L87:
 432:Drivers/STM32G0xx_HAL_Driver/Src/stm32g0xx_ll_usb.c **** 
 1698              		.loc 1 432 7 is_stmt 0 discriminator 1 view .LVU482
 1699              	.LBE41:
 432:Drivers/STM32G0xx_HAL_Driver/Src/stm32g0xx_ll_usb.c **** 
 1700              		.loc 1 432 7 is_stmt 1 discriminator 3 view .LVU483
 1701              	.LBE40:
 432:Drivers/STM32G0xx_HAL_Driver/Src/stm32g0xx_ll_usb.c **** 
 1702              		.loc 1 432 7 discriminator 3 view .LVU484
 435:Drivers/STM32G0xx_HAL_Driver/Src/stm32g0xx_ll_usb.c **** 
 1703              		.loc 1 435 7 view .LVU485
 1704              	.LBB42:
ARM GAS  /tmp/cc3M98Wq.s 			page 41


 435:Drivers/STM32G0xx_HAL_Driver/Src/stm32g0xx_ll_usb.c **** 
 1705              		.loc 1 435 7 view .LVU486
 435:Drivers/STM32G0xx_HAL_Driver/Src/stm32g0xx_ll_usb.c **** 
 1706              		.loc 1 435 7 view .LVU487
 1707 009e 0B78     		ldrb	r3, [r1]
 1708 00a0 9B00     		lsls	r3, r3, #2
 1709 00a2 C318     		adds	r3, r0, r3
 1710 00a4 1C68     		ldr	r4, [r3]
 1711 00a6 254A     		ldr	r2, .L96
 1712 00a8 1440     		ands	r4, r2
 1713              	.LVL155:
 435:Drivers/STM32G0xx_HAL_Driver/Src/stm32g0xx_ll_usb.c **** 
 1714              		.loc 1 435 7 view .LVU488
 1715 00aa 254A     		ldr	r2, .L96+4
 1716 00ac 2243     		orrs	r2, r4
 1717 00ae 1A60     		str	r2, [r3]
 1718              	.LBE42:
 435:Drivers/STM32G0xx_HAL_Driver/Src/stm32g0xx_ll_usb.c **** 
 1719              		.loc 1 435 7 view .LVU489
 437:Drivers/STM32G0xx_HAL_Driver/Src/stm32g0xx_ll_usb.c ****       PCD_SET_EP_TX_STATUS(USBx, ep->num, USB_EP_TX_DIS);
 1720              		.loc 1 437 7 view .LVU490
 1721              	.LBB43:
 437:Drivers/STM32G0xx_HAL_Driver/Src/stm32g0xx_ll_usb.c ****       PCD_SET_EP_TX_STATUS(USBx, ep->num, USB_EP_TX_DIS);
 1722              		.loc 1 437 7 view .LVU491
 437:Drivers/STM32G0xx_HAL_Driver/Src/stm32g0xx_ll_usb.c ****       PCD_SET_EP_TX_STATUS(USBx, ep->num, USB_EP_TX_DIS);
 1723              		.loc 1 437 7 view .LVU492
 1724 00b0 0B78     		ldrb	r3, [r1]
 1725 00b2 9B00     		lsls	r3, r3, #2
 1726 00b4 C318     		adds	r3, r0, r3
 1727 00b6 1A68     		ldr	r2, [r3]
 1728 00b8 254C     		ldr	r4, .L96+20
 1729              	.LVL156:
 437:Drivers/STM32G0xx_HAL_Driver/Src/stm32g0xx_ll_usb.c ****       PCD_SET_EP_TX_STATUS(USBx, ep->num, USB_EP_TX_DIS);
 1730              		.loc 1 437 7 is_stmt 0 view .LVU493
 1731 00ba 2240     		ands	r2, r4
 1732              	.LVL157:
 437:Drivers/STM32G0xx_HAL_Driver/Src/stm32g0xx_ll_usb.c ****       PCD_SET_EP_TX_STATUS(USBx, ep->num, USB_EP_TX_DIS);
 1733              		.loc 1 437 7 is_stmt 1 view .LVU494
 437:Drivers/STM32G0xx_HAL_Driver/Src/stm32g0xx_ll_usb.c ****       PCD_SET_EP_TX_STATUS(USBx, ep->num, USB_EP_TX_DIS);
 1734              		.loc 1 437 7 discriminator 3 view .LVU495
 437:Drivers/STM32G0xx_HAL_Driver/Src/stm32g0xx_ll_usb.c ****       PCD_SET_EP_TX_STATUS(USBx, ep->num, USB_EP_TX_DIS);
 1735              		.loc 1 437 7 discriminator 6 view .LVU496
 1736 00bc 224C     		ldr	r4, .L96+12
 1737 00be 2243     		orrs	r2, r4
 1738              	.LVL158:
 437:Drivers/STM32G0xx_HAL_Driver/Src/stm32g0xx_ll_usb.c ****       PCD_SET_EP_TX_STATUS(USBx, ep->num, USB_EP_TX_DIS);
 1739              		.loc 1 437 7 is_stmt 0 discriminator 6 view .LVU497
 1740 00c0 1A60     		str	r2, [r3]
 1741              	.LBE43:
 437:Drivers/STM32G0xx_HAL_Driver/Src/stm32g0xx_ll_usb.c ****       PCD_SET_EP_TX_STATUS(USBx, ep->num, USB_EP_TX_DIS);
 1742              		.loc 1 437 7 is_stmt 1 discriminator 6 view .LVU498
 438:Drivers/STM32G0xx_HAL_Driver/Src/stm32g0xx_ll_usb.c ****     }
 1743              		.loc 1 438 7 view .LVU499
 1744              	.LBB44:
 438:Drivers/STM32G0xx_HAL_Driver/Src/stm32g0xx_ll_usb.c ****     }
 1745              		.loc 1 438 7 view .LVU500
 438:Drivers/STM32G0xx_HAL_Driver/Src/stm32g0xx_ll_usb.c ****     }
ARM GAS  /tmp/cc3M98Wq.s 			page 42


 1746              		.loc 1 438 7 view .LVU501
 1747 00c2 0B78     		ldrb	r3, [r1]
 1748 00c4 9B00     		lsls	r3, r3, #2
 1749 00c6 C318     		adds	r3, r0, r3
 1750 00c8 1A68     		ldr	r2, [r3]
 1751 00ca 1E49     		ldr	r1, .L96+8
 1752              	.LVL159:
 438:Drivers/STM32G0xx_HAL_Driver/Src/stm32g0xx_ll_usb.c ****     }
 1753              		.loc 1 438 7 is_stmt 0 view .LVU502
 1754 00cc 0A40     		ands	r2, r1
 1755              	.LVL160:
 438:Drivers/STM32G0xx_HAL_Driver/Src/stm32g0xx_ll_usb.c ****     }
 1756              		.loc 1 438 7 is_stmt 1 view .LVU503
 438:Drivers/STM32G0xx_HAL_Driver/Src/stm32g0xx_ll_usb.c ****     }
 1757              		.loc 1 438 7 discriminator 3 view .LVU504
 438:Drivers/STM32G0xx_HAL_Driver/Src/stm32g0xx_ll_usb.c ****     }
 1758              		.loc 1 438 7 discriminator 6 view .LVU505
 1759 00ce 1443     		orrs	r4, r2
 1760 00d0 1C60     		str	r4, [r3]
 1761              	.LBE44:
 438:Drivers/STM32G0xx_HAL_Driver/Src/stm32g0xx_ll_usb.c ****     }
 1762              		.loc 1 438 7 discriminator 6 view .LVU506
 1763 00d2 B1E7     		b	.L83
 1764              	.LVL161:
 1765              	.L85:
 443:Drivers/STM32G0xx_HAL_Driver/Src/stm32g0xx_ll_usb.c ****       PCD_CLEAR_TX_DTOG(USBx, ep->num);
 1766              		.loc 1 443 7 view .LVU507
 1767              	.LBB45:
 443:Drivers/STM32G0xx_HAL_Driver/Src/stm32g0xx_ll_usb.c ****       PCD_CLEAR_TX_DTOG(USBx, ep->num);
 1768              		.loc 1 443 7 view .LVU508
 443:Drivers/STM32G0xx_HAL_Driver/Src/stm32g0xx_ll_usb.c ****       PCD_CLEAR_TX_DTOG(USBx, ep->num);
 1769              		.loc 1 443 7 view .LVU509
 1770 00d4 0B78     		ldrb	r3, [r1]
 1771 00d6 9B00     		lsls	r3, r3, #2
 1772 00d8 C318     		adds	r3, r0, r3
 1773 00da 1A68     		ldr	r2, [r3]
 1774              	.LVL162:
 443:Drivers/STM32G0xx_HAL_Driver/Src/stm32g0xx_ll_usb.c ****       PCD_CLEAR_TX_DTOG(USBx, ep->num);
 1775              		.loc 1 443 7 view .LVU510
 1776 00dc 5204     		lsls	r2, r2, #17
 1777 00de 05D5     		bpl	.L88
 1778              	.LVL163:
 443:Drivers/STM32G0xx_HAL_Driver/Src/stm32g0xx_ll_usb.c ****       PCD_CLEAR_TX_DTOG(USBx, ep->num);
 1779              		.loc 1 443 7 discriminator 1 view .LVU511
 1780              	.LBB46:
 443:Drivers/STM32G0xx_HAL_Driver/Src/stm32g0xx_ll_usb.c ****       PCD_CLEAR_TX_DTOG(USBx, ep->num);
 1781              		.loc 1 443 7 discriminator 1 view .LVU512
 443:Drivers/STM32G0xx_HAL_Driver/Src/stm32g0xx_ll_usb.c ****       PCD_CLEAR_TX_DTOG(USBx, ep->num);
 1782              		.loc 1 443 7 discriminator 1 view .LVU513
 1783 00e0 1C68     		ldr	r4, [r3]
 1784 00e2 164A     		ldr	r2, .L96
 1785 00e4 1440     		ands	r4, r2
 1786              	.LVL164:
 443:Drivers/STM32G0xx_HAL_Driver/Src/stm32g0xx_ll_usb.c ****       PCD_CLEAR_TX_DTOG(USBx, ep->num);
 1787              		.loc 1 443 7 discriminator 1 view .LVU514
 1788 00e6 194A     		ldr	r2, .L96+16
 1789 00e8 2243     		orrs	r2, r4
ARM GAS  /tmp/cc3M98Wq.s 			page 43


 1790 00ea 1A60     		str	r2, [r3]
 1791              	.LVL165:
 1792              	.L88:
 443:Drivers/STM32G0xx_HAL_Driver/Src/stm32g0xx_ll_usb.c ****       PCD_CLEAR_TX_DTOG(USBx, ep->num);
 1793              		.loc 1 443 7 is_stmt 0 discriminator 1 view .LVU515
 1794              	.LBE46:
 443:Drivers/STM32G0xx_HAL_Driver/Src/stm32g0xx_ll_usb.c ****       PCD_CLEAR_TX_DTOG(USBx, ep->num);
 1795              		.loc 1 443 7 is_stmt 1 discriminator 3 view .LVU516
 1796              	.LBE45:
 443:Drivers/STM32G0xx_HAL_Driver/Src/stm32g0xx_ll_usb.c ****       PCD_CLEAR_TX_DTOG(USBx, ep->num);
 1797              		.loc 1 443 7 discriminator 3 view .LVU517
 444:Drivers/STM32G0xx_HAL_Driver/Src/stm32g0xx_ll_usb.c ****       PCD_RX_DTOG(USBx, ep->num);
 1798              		.loc 1 444 7 view .LVU518
 1799              	.LBB47:
 444:Drivers/STM32G0xx_HAL_Driver/Src/stm32g0xx_ll_usb.c ****       PCD_RX_DTOG(USBx, ep->num);
 1800              		.loc 1 444 7 view .LVU519
 444:Drivers/STM32G0xx_HAL_Driver/Src/stm32g0xx_ll_usb.c ****       PCD_RX_DTOG(USBx, ep->num);
 1801              		.loc 1 444 7 view .LVU520
 1802 00ec 0B78     		ldrb	r3, [r1]
 1803 00ee 9B00     		lsls	r3, r3, #2
 1804 00f0 C318     		adds	r3, r0, r3
 1805 00f2 1A68     		ldr	r2, [r3]
 1806              	.LVL166:
 444:Drivers/STM32G0xx_HAL_Driver/Src/stm32g0xx_ll_usb.c ****       PCD_RX_DTOG(USBx, ep->num);
 1807              		.loc 1 444 7 view .LVU521
 1808 00f4 5206     		lsls	r2, r2, #25
 1809 00f6 05D5     		bpl	.L89
 1810              	.LVL167:
 444:Drivers/STM32G0xx_HAL_Driver/Src/stm32g0xx_ll_usb.c ****       PCD_RX_DTOG(USBx, ep->num);
 1811              		.loc 1 444 7 discriminator 1 view .LVU522
 1812              	.LBB48:
 444:Drivers/STM32G0xx_HAL_Driver/Src/stm32g0xx_ll_usb.c ****       PCD_RX_DTOG(USBx, ep->num);
 1813              		.loc 1 444 7 discriminator 1 view .LVU523
 444:Drivers/STM32G0xx_HAL_Driver/Src/stm32g0xx_ll_usb.c ****       PCD_RX_DTOG(USBx, ep->num);
 1814              		.loc 1 444 7 discriminator 1 view .LVU524
 1815 00f8 1C68     		ldr	r4, [r3]
 1816 00fa 104A     		ldr	r2, .L96
 1817 00fc 1440     		ands	r4, r2
 1818              	.LVL168:
 444:Drivers/STM32G0xx_HAL_Driver/Src/stm32g0xx_ll_usb.c ****       PCD_RX_DTOG(USBx, ep->num);
 1819              		.loc 1 444 7 discriminator 1 view .LVU525
 1820 00fe 104A     		ldr	r2, .L96+4
 1821 0100 2243     		orrs	r2, r4
 1822 0102 1A60     		str	r2, [r3]
 1823              	.LVL169:
 1824              	.L89:
 444:Drivers/STM32G0xx_HAL_Driver/Src/stm32g0xx_ll_usb.c ****       PCD_RX_DTOG(USBx, ep->num);
 1825              		.loc 1 444 7 is_stmt 0 discriminator 1 view .LVU526
 1826              	.LBE48:
 444:Drivers/STM32G0xx_HAL_Driver/Src/stm32g0xx_ll_usb.c ****       PCD_RX_DTOG(USBx, ep->num);
 1827              		.loc 1 444 7 is_stmt 1 discriminator 3 view .LVU527
 1828              	.LBE47:
 444:Drivers/STM32G0xx_HAL_Driver/Src/stm32g0xx_ll_usb.c ****       PCD_RX_DTOG(USBx, ep->num);
 1829              		.loc 1 444 7 discriminator 3 view .LVU528
 445:Drivers/STM32G0xx_HAL_Driver/Src/stm32g0xx_ll_usb.c **** 
 1830              		.loc 1 445 7 view .LVU529
 1831              	.LBB49:
ARM GAS  /tmp/cc3M98Wq.s 			page 44


 445:Drivers/STM32G0xx_HAL_Driver/Src/stm32g0xx_ll_usb.c **** 
 1832              		.loc 1 445 7 view .LVU530
 445:Drivers/STM32G0xx_HAL_Driver/Src/stm32g0xx_ll_usb.c **** 
 1833              		.loc 1 445 7 view .LVU531
 1834 0104 0B78     		ldrb	r3, [r1]
 1835 0106 9B00     		lsls	r3, r3, #2
 1836 0108 C318     		adds	r3, r0, r3
 1837 010a 1C68     		ldr	r4, [r3]
 1838 010c 0B4A     		ldr	r2, .L96
 1839 010e 1440     		ands	r4, r2
 1840              	.LVL170:
 445:Drivers/STM32G0xx_HAL_Driver/Src/stm32g0xx_ll_usb.c **** 
 1841              		.loc 1 445 7 view .LVU532
 1842 0110 0E4A     		ldr	r2, .L96+16
 1843 0112 2243     		orrs	r2, r4
 1844 0114 1A60     		str	r2, [r3]
 1845              	.LBE49:
 445:Drivers/STM32G0xx_HAL_Driver/Src/stm32g0xx_ll_usb.c **** 
 1846              		.loc 1 445 7 view .LVU533
 448:Drivers/STM32G0xx_HAL_Driver/Src/stm32g0xx_ll_usb.c ****       PCD_SET_EP_RX_STATUS(USBx, ep->num, USB_EP_RX_DIS);
 1847              		.loc 1 448 7 view .LVU534
 1848              	.LBB50:
 448:Drivers/STM32G0xx_HAL_Driver/Src/stm32g0xx_ll_usb.c ****       PCD_SET_EP_RX_STATUS(USBx, ep->num, USB_EP_RX_DIS);
 1849              		.loc 1 448 7 view .LVU535
 448:Drivers/STM32G0xx_HAL_Driver/Src/stm32g0xx_ll_usb.c ****       PCD_SET_EP_RX_STATUS(USBx, ep->num, USB_EP_RX_DIS);
 1850              		.loc 1 448 7 view .LVU536
 1851 0116 0B78     		ldrb	r3, [r1]
 1852 0118 9B00     		lsls	r3, r3, #2
 1853 011a C318     		adds	r3, r0, r3
 1854 011c 1A68     		ldr	r2, [r3]
 1855 011e 094C     		ldr	r4, .L96+8
 1856              	.LVL171:
 448:Drivers/STM32G0xx_HAL_Driver/Src/stm32g0xx_ll_usb.c ****       PCD_SET_EP_RX_STATUS(USBx, ep->num, USB_EP_RX_DIS);
 1857              		.loc 1 448 7 is_stmt 0 view .LVU537
 1858 0120 2240     		ands	r2, r4
 1859              	.LVL172:
 448:Drivers/STM32G0xx_HAL_Driver/Src/stm32g0xx_ll_usb.c ****       PCD_SET_EP_RX_STATUS(USBx, ep->num, USB_EP_RX_DIS);
 1860              		.loc 1 448 7 is_stmt 1 view .LVU538
 448:Drivers/STM32G0xx_HAL_Driver/Src/stm32g0xx_ll_usb.c ****       PCD_SET_EP_RX_STATUS(USBx, ep->num, USB_EP_RX_DIS);
 1861              		.loc 1 448 7 discriminator 3 view .LVU539
 448:Drivers/STM32G0xx_HAL_Driver/Src/stm32g0xx_ll_usb.c ****       PCD_SET_EP_RX_STATUS(USBx, ep->num, USB_EP_RX_DIS);
 1862              		.loc 1 448 7 discriminator 6 view .LVU540
 1863 0122 094C     		ldr	r4, .L96+12
 1864 0124 2243     		orrs	r2, r4
 1865              	.LVL173:
 448:Drivers/STM32G0xx_HAL_Driver/Src/stm32g0xx_ll_usb.c ****       PCD_SET_EP_RX_STATUS(USBx, ep->num, USB_EP_RX_DIS);
 1866              		.loc 1 448 7 is_stmt 0 discriminator 6 view .LVU541
 1867 0126 1A60     		str	r2, [r3]
 1868              	.LBE50:
 448:Drivers/STM32G0xx_HAL_Driver/Src/stm32g0xx_ll_usb.c ****       PCD_SET_EP_RX_STATUS(USBx, ep->num, USB_EP_RX_DIS);
 1869              		.loc 1 448 7 is_stmt 1 discriminator 6 view .LVU542
 449:Drivers/STM32G0xx_HAL_Driver/Src/stm32g0xx_ll_usb.c ****     }
 1870              		.loc 1 449 7 view .LVU543
 1871              	.LBB51:
 449:Drivers/STM32G0xx_HAL_Driver/Src/stm32g0xx_ll_usb.c ****     }
 1872              		.loc 1 449 7 view .LVU544
 449:Drivers/STM32G0xx_HAL_Driver/Src/stm32g0xx_ll_usb.c ****     }
ARM GAS  /tmp/cc3M98Wq.s 			page 45


 1873              		.loc 1 449 7 view .LVU545
 1874 0128 0B78     		ldrb	r3, [r1]
 1875 012a 9B00     		lsls	r3, r3, #2
 1876 012c C018     		adds	r0, r0, r3
 1877              	.LVL174:
 449:Drivers/STM32G0xx_HAL_Driver/Src/stm32g0xx_ll_usb.c ****     }
 1878              		.loc 1 449 7 is_stmt 0 view .LVU546
 1879 012e 0368     		ldr	r3, [r0]
 1880 0130 074A     		ldr	r2, .L96+20
 1881 0132 1340     		ands	r3, r2
 1882              	.LVL175:
 449:Drivers/STM32G0xx_HAL_Driver/Src/stm32g0xx_ll_usb.c ****     }
 1883              		.loc 1 449 7 is_stmt 1 view .LVU547
 449:Drivers/STM32G0xx_HAL_Driver/Src/stm32g0xx_ll_usb.c ****     }
 1884              		.loc 1 449 7 discriminator 3 view .LVU548
 449:Drivers/STM32G0xx_HAL_Driver/Src/stm32g0xx_ll_usb.c ****     }
 1885              		.loc 1 449 7 discriminator 6 view .LVU549
 1886 0134 1C43     		orrs	r4, r3
 1887 0136 0460     		str	r4, [r0]
 1888 0138 7EE7     		b	.L83
 1889              	.L97:
 1890 013a C046     		.align	2
 1891              	.L96:
 1892 013c 8F8FFF07 		.word	134188943
 1893 0140 C0800000 		.word	32960
 1894 0144 BF8FFF07 		.word	134188991
 1895 0148 80800000 		.word	32896
 1896 014c 80C00000 		.word	49280
 1897 0150 8FBFFF07 		.word	134201231
 1898              	.LBE51:
 1899              		.cfi_endproc
 1900              	.LFE375:
 1902              		.section	.text.USB_EPSetStall,"ax",%progbits
 1903              		.align	1
 1904              		.global	USB_EPSetStall
 1905              		.syntax unified
 1906              		.code	16
 1907              		.thumb_func
 1909              	USB_EPSetStall:
 1910              	.LVL176:
 1911              	.LFB377:
 456:Drivers/STM32G0xx_HAL_Driver/Src/stm32g0xx_ll_usb.c **** 
 457:Drivers/STM32G0xx_HAL_Driver/Src/stm32g0xx_ll_usb.c **** /**
 458:Drivers/STM32G0xx_HAL_Driver/Src/stm32g0xx_ll_usb.c ****   * @brief  USB_EPStartXfer setup and starts a transfer over an EP
 459:Drivers/STM32G0xx_HAL_Driver/Src/stm32g0xx_ll_usb.c ****   * @param  USBx Selected device
 460:Drivers/STM32G0xx_HAL_Driver/Src/stm32g0xx_ll_usb.c ****   * @param  ep pointer to endpoint structure
 461:Drivers/STM32G0xx_HAL_Driver/Src/stm32g0xx_ll_usb.c ****   * @retval HAL status
 462:Drivers/STM32G0xx_HAL_Driver/Src/stm32g0xx_ll_usb.c ****   */
 463:Drivers/STM32G0xx_HAL_Driver/Src/stm32g0xx_ll_usb.c **** HAL_StatusTypeDef USB_EPStartXfer(USB_DRD_TypeDef *USBx, USB_DRD_EPTypeDef *ep)
 464:Drivers/STM32G0xx_HAL_Driver/Src/stm32g0xx_ll_usb.c **** {
 465:Drivers/STM32G0xx_HAL_Driver/Src/stm32g0xx_ll_usb.c ****   uint32_t len;
 466:Drivers/STM32G0xx_HAL_Driver/Src/stm32g0xx_ll_usb.c **** #if (USE_USB_DOUBLE_BUFFER == 1U)
 467:Drivers/STM32G0xx_HAL_Driver/Src/stm32g0xx_ll_usb.c ****   uint16_t pmabuffer;
 468:Drivers/STM32G0xx_HAL_Driver/Src/stm32g0xx_ll_usb.c ****   uint16_t wEPVal;
 469:Drivers/STM32G0xx_HAL_Driver/Src/stm32g0xx_ll_usb.c **** #endif /* (USE_USB_DOUBLE_BUFFER == 1U) */
 470:Drivers/STM32G0xx_HAL_Driver/Src/stm32g0xx_ll_usb.c **** 
 471:Drivers/STM32G0xx_HAL_Driver/Src/stm32g0xx_ll_usb.c ****   /* IN endpoint */
ARM GAS  /tmp/cc3M98Wq.s 			page 46


 472:Drivers/STM32G0xx_HAL_Driver/Src/stm32g0xx_ll_usb.c ****   if (ep->is_in == 1U)
 473:Drivers/STM32G0xx_HAL_Driver/Src/stm32g0xx_ll_usb.c ****   {
 474:Drivers/STM32G0xx_HAL_Driver/Src/stm32g0xx_ll_usb.c ****     /* Multi packet transfer */
 475:Drivers/STM32G0xx_HAL_Driver/Src/stm32g0xx_ll_usb.c ****     if (ep->xfer_len > ep->maxpacket)
 476:Drivers/STM32G0xx_HAL_Driver/Src/stm32g0xx_ll_usb.c ****     {
 477:Drivers/STM32G0xx_HAL_Driver/Src/stm32g0xx_ll_usb.c ****       len = ep->maxpacket;
 478:Drivers/STM32G0xx_HAL_Driver/Src/stm32g0xx_ll_usb.c ****     }
 479:Drivers/STM32G0xx_HAL_Driver/Src/stm32g0xx_ll_usb.c ****     else
 480:Drivers/STM32G0xx_HAL_Driver/Src/stm32g0xx_ll_usb.c ****     {
 481:Drivers/STM32G0xx_HAL_Driver/Src/stm32g0xx_ll_usb.c ****       len = ep->xfer_len;
 482:Drivers/STM32G0xx_HAL_Driver/Src/stm32g0xx_ll_usb.c ****     }
 483:Drivers/STM32G0xx_HAL_Driver/Src/stm32g0xx_ll_usb.c **** 
 484:Drivers/STM32G0xx_HAL_Driver/Src/stm32g0xx_ll_usb.c ****     /* configure and validate Tx endpoint */
 485:Drivers/STM32G0xx_HAL_Driver/Src/stm32g0xx_ll_usb.c ****     if (ep->doublebuffer == 0U)
 486:Drivers/STM32G0xx_HAL_Driver/Src/stm32g0xx_ll_usb.c ****     {
 487:Drivers/STM32G0xx_HAL_Driver/Src/stm32g0xx_ll_usb.c ****       USB_WritePMA(USBx, ep->xfer_buff, ep->pmaadress, (uint16_t)len);
 488:Drivers/STM32G0xx_HAL_Driver/Src/stm32g0xx_ll_usb.c ****       PCD_SET_EP_TX_CNT(USBx, ep->num, len);
 489:Drivers/STM32G0xx_HAL_Driver/Src/stm32g0xx_ll_usb.c ****     }
 490:Drivers/STM32G0xx_HAL_Driver/Src/stm32g0xx_ll_usb.c **** #if (USE_USB_DOUBLE_BUFFER == 1U)
 491:Drivers/STM32G0xx_HAL_Driver/Src/stm32g0xx_ll_usb.c ****     else
 492:Drivers/STM32G0xx_HAL_Driver/Src/stm32g0xx_ll_usb.c ****     {
 493:Drivers/STM32G0xx_HAL_Driver/Src/stm32g0xx_ll_usb.c ****       /* double buffer bulk management */
 494:Drivers/STM32G0xx_HAL_Driver/Src/stm32g0xx_ll_usb.c ****       if (ep->type == EP_TYPE_BULK)
 495:Drivers/STM32G0xx_HAL_Driver/Src/stm32g0xx_ll_usb.c ****       {
 496:Drivers/STM32G0xx_HAL_Driver/Src/stm32g0xx_ll_usb.c ****         if (ep->xfer_len_db > ep->maxpacket)
 497:Drivers/STM32G0xx_HAL_Driver/Src/stm32g0xx_ll_usb.c ****         {
 498:Drivers/STM32G0xx_HAL_Driver/Src/stm32g0xx_ll_usb.c ****           /* enable double buffer */
 499:Drivers/STM32G0xx_HAL_Driver/Src/stm32g0xx_ll_usb.c ****           PCD_SET_BULK_EP_DBUF(USBx, ep->num);
 500:Drivers/STM32G0xx_HAL_Driver/Src/stm32g0xx_ll_usb.c **** 
 501:Drivers/STM32G0xx_HAL_Driver/Src/stm32g0xx_ll_usb.c ****           /* each Time to write in PMA xfer_len_db will */
 502:Drivers/STM32G0xx_HAL_Driver/Src/stm32g0xx_ll_usb.c ****           ep->xfer_len_db -= len;
 503:Drivers/STM32G0xx_HAL_Driver/Src/stm32g0xx_ll_usb.c **** 
 504:Drivers/STM32G0xx_HAL_Driver/Src/stm32g0xx_ll_usb.c ****           /* Fill the two first buffer in the Buffer0 & Buffer1 */
 505:Drivers/STM32G0xx_HAL_Driver/Src/stm32g0xx_ll_usb.c ****           if ((PCD_GET_ENDPOINT(USBx, ep->num) & USB_EP_DTOG_TX) != 0U)
 506:Drivers/STM32G0xx_HAL_Driver/Src/stm32g0xx_ll_usb.c ****           {
 507:Drivers/STM32G0xx_HAL_Driver/Src/stm32g0xx_ll_usb.c ****             /* Set the Double buffer counter for pmabuffer1 */
 508:Drivers/STM32G0xx_HAL_Driver/Src/stm32g0xx_ll_usb.c ****             PCD_SET_EP_DBUF1_CNT(USBx, ep->num, ep->is_in, len);
 509:Drivers/STM32G0xx_HAL_Driver/Src/stm32g0xx_ll_usb.c ****             pmabuffer = ep->pmaaddr1;
 510:Drivers/STM32G0xx_HAL_Driver/Src/stm32g0xx_ll_usb.c **** 
 511:Drivers/STM32G0xx_HAL_Driver/Src/stm32g0xx_ll_usb.c ****             /* Write the user buffer to USB PMA */
 512:Drivers/STM32G0xx_HAL_Driver/Src/stm32g0xx_ll_usb.c ****             USB_WritePMA(USBx, ep->xfer_buff, pmabuffer, (uint16_t)len);
 513:Drivers/STM32G0xx_HAL_Driver/Src/stm32g0xx_ll_usb.c ****             ep->xfer_buff += len;
 514:Drivers/STM32G0xx_HAL_Driver/Src/stm32g0xx_ll_usb.c **** 
 515:Drivers/STM32G0xx_HAL_Driver/Src/stm32g0xx_ll_usb.c ****             if (ep->xfer_len_db > ep->maxpacket)
 516:Drivers/STM32G0xx_HAL_Driver/Src/stm32g0xx_ll_usb.c ****             {
 517:Drivers/STM32G0xx_HAL_Driver/Src/stm32g0xx_ll_usb.c ****               ep->xfer_len_db -= len;
 518:Drivers/STM32G0xx_HAL_Driver/Src/stm32g0xx_ll_usb.c ****             }
 519:Drivers/STM32G0xx_HAL_Driver/Src/stm32g0xx_ll_usb.c ****             else
 520:Drivers/STM32G0xx_HAL_Driver/Src/stm32g0xx_ll_usb.c ****             {
 521:Drivers/STM32G0xx_HAL_Driver/Src/stm32g0xx_ll_usb.c ****               len = ep->xfer_len_db;
 522:Drivers/STM32G0xx_HAL_Driver/Src/stm32g0xx_ll_usb.c ****               ep->xfer_len_db = 0U;
 523:Drivers/STM32G0xx_HAL_Driver/Src/stm32g0xx_ll_usb.c ****             }
 524:Drivers/STM32G0xx_HAL_Driver/Src/stm32g0xx_ll_usb.c **** 
 525:Drivers/STM32G0xx_HAL_Driver/Src/stm32g0xx_ll_usb.c ****             /* Set the Double buffer counter for pmabuffer0 */
 526:Drivers/STM32G0xx_HAL_Driver/Src/stm32g0xx_ll_usb.c ****             PCD_SET_EP_DBUF0_CNT(USBx, ep->num, ep->is_in, len);
 527:Drivers/STM32G0xx_HAL_Driver/Src/stm32g0xx_ll_usb.c ****             pmabuffer = ep->pmaaddr0;
 528:Drivers/STM32G0xx_HAL_Driver/Src/stm32g0xx_ll_usb.c **** 
ARM GAS  /tmp/cc3M98Wq.s 			page 47


 529:Drivers/STM32G0xx_HAL_Driver/Src/stm32g0xx_ll_usb.c ****             /* Write the user buffer to USB PMA */
 530:Drivers/STM32G0xx_HAL_Driver/Src/stm32g0xx_ll_usb.c ****             USB_WritePMA(USBx, ep->xfer_buff, pmabuffer, (uint16_t)len);
 531:Drivers/STM32G0xx_HAL_Driver/Src/stm32g0xx_ll_usb.c ****           }
 532:Drivers/STM32G0xx_HAL_Driver/Src/stm32g0xx_ll_usb.c ****           else
 533:Drivers/STM32G0xx_HAL_Driver/Src/stm32g0xx_ll_usb.c ****           {
 534:Drivers/STM32G0xx_HAL_Driver/Src/stm32g0xx_ll_usb.c ****             /* Set the Double buffer counter for pmabuffer0 */
 535:Drivers/STM32G0xx_HAL_Driver/Src/stm32g0xx_ll_usb.c ****             PCD_SET_EP_DBUF0_CNT(USBx, ep->num, ep->is_in, len);
 536:Drivers/STM32G0xx_HAL_Driver/Src/stm32g0xx_ll_usb.c ****             pmabuffer = ep->pmaaddr0;
 537:Drivers/STM32G0xx_HAL_Driver/Src/stm32g0xx_ll_usb.c **** 
 538:Drivers/STM32G0xx_HAL_Driver/Src/stm32g0xx_ll_usb.c ****             /* Write the user buffer to USB PMA */
 539:Drivers/STM32G0xx_HAL_Driver/Src/stm32g0xx_ll_usb.c ****             USB_WritePMA(USBx, ep->xfer_buff, pmabuffer, (uint16_t)len);
 540:Drivers/STM32G0xx_HAL_Driver/Src/stm32g0xx_ll_usb.c ****             ep->xfer_buff += len;
 541:Drivers/STM32G0xx_HAL_Driver/Src/stm32g0xx_ll_usb.c **** 
 542:Drivers/STM32G0xx_HAL_Driver/Src/stm32g0xx_ll_usb.c ****             if (ep->xfer_len_db > ep->maxpacket)
 543:Drivers/STM32G0xx_HAL_Driver/Src/stm32g0xx_ll_usb.c ****             {
 544:Drivers/STM32G0xx_HAL_Driver/Src/stm32g0xx_ll_usb.c ****               ep->xfer_len_db -= len;
 545:Drivers/STM32G0xx_HAL_Driver/Src/stm32g0xx_ll_usb.c ****             }
 546:Drivers/STM32G0xx_HAL_Driver/Src/stm32g0xx_ll_usb.c ****             else
 547:Drivers/STM32G0xx_HAL_Driver/Src/stm32g0xx_ll_usb.c ****             {
 548:Drivers/STM32G0xx_HAL_Driver/Src/stm32g0xx_ll_usb.c ****               len = ep->xfer_len_db;
 549:Drivers/STM32G0xx_HAL_Driver/Src/stm32g0xx_ll_usb.c ****               ep->xfer_len_db = 0U;
 550:Drivers/STM32G0xx_HAL_Driver/Src/stm32g0xx_ll_usb.c ****             }
 551:Drivers/STM32G0xx_HAL_Driver/Src/stm32g0xx_ll_usb.c **** 
 552:Drivers/STM32G0xx_HAL_Driver/Src/stm32g0xx_ll_usb.c ****             /* Set the Double buffer counter for pmabuffer1 */
 553:Drivers/STM32G0xx_HAL_Driver/Src/stm32g0xx_ll_usb.c ****             PCD_SET_EP_DBUF1_CNT(USBx, ep->num, ep->is_in, len);
 554:Drivers/STM32G0xx_HAL_Driver/Src/stm32g0xx_ll_usb.c ****             pmabuffer = ep->pmaaddr1;
 555:Drivers/STM32G0xx_HAL_Driver/Src/stm32g0xx_ll_usb.c **** 
 556:Drivers/STM32G0xx_HAL_Driver/Src/stm32g0xx_ll_usb.c ****             /* Write the user buffer to USB PMA */
 557:Drivers/STM32G0xx_HAL_Driver/Src/stm32g0xx_ll_usb.c ****             USB_WritePMA(USBx, ep->xfer_buff, pmabuffer, (uint16_t)len);
 558:Drivers/STM32G0xx_HAL_Driver/Src/stm32g0xx_ll_usb.c ****           }
 559:Drivers/STM32G0xx_HAL_Driver/Src/stm32g0xx_ll_usb.c ****         }
 560:Drivers/STM32G0xx_HAL_Driver/Src/stm32g0xx_ll_usb.c ****         /* auto Switch to single buffer mode when transfer <Mps no need to manage in double buffer 
 561:Drivers/STM32G0xx_HAL_Driver/Src/stm32g0xx_ll_usb.c ****         else
 562:Drivers/STM32G0xx_HAL_Driver/Src/stm32g0xx_ll_usb.c ****         {
 563:Drivers/STM32G0xx_HAL_Driver/Src/stm32g0xx_ll_usb.c ****           len = ep->xfer_len_db;
 564:Drivers/STM32G0xx_HAL_Driver/Src/stm32g0xx_ll_usb.c **** 
 565:Drivers/STM32G0xx_HAL_Driver/Src/stm32g0xx_ll_usb.c ****           /* disable double buffer mode for Bulk endpoint */
 566:Drivers/STM32G0xx_HAL_Driver/Src/stm32g0xx_ll_usb.c ****           PCD_CLEAR_BULK_EP_DBUF(USBx, ep->num);
 567:Drivers/STM32G0xx_HAL_Driver/Src/stm32g0xx_ll_usb.c **** 
 568:Drivers/STM32G0xx_HAL_Driver/Src/stm32g0xx_ll_usb.c ****           /* Set Tx count with nbre of byte to be transmitted */
 569:Drivers/STM32G0xx_HAL_Driver/Src/stm32g0xx_ll_usb.c ****           PCD_SET_EP_TX_CNT(USBx, ep->num, len);
 570:Drivers/STM32G0xx_HAL_Driver/Src/stm32g0xx_ll_usb.c ****           pmabuffer = ep->pmaaddr0;
 571:Drivers/STM32G0xx_HAL_Driver/Src/stm32g0xx_ll_usb.c **** 
 572:Drivers/STM32G0xx_HAL_Driver/Src/stm32g0xx_ll_usb.c ****           /* Write the user buffer to USB PMA */
 573:Drivers/STM32G0xx_HAL_Driver/Src/stm32g0xx_ll_usb.c ****           USB_WritePMA(USBx, ep->xfer_buff, pmabuffer, (uint16_t)len);
 574:Drivers/STM32G0xx_HAL_Driver/Src/stm32g0xx_ll_usb.c ****         }
 575:Drivers/STM32G0xx_HAL_Driver/Src/stm32g0xx_ll_usb.c ****       }
 576:Drivers/STM32G0xx_HAL_Driver/Src/stm32g0xx_ll_usb.c ****       else /* Manage isochronous double buffer IN mode */
 577:Drivers/STM32G0xx_HAL_Driver/Src/stm32g0xx_ll_usb.c ****       {
 578:Drivers/STM32G0xx_HAL_Driver/Src/stm32g0xx_ll_usb.c ****         /* Each Time to write in PMA xfer_len_db will */
 579:Drivers/STM32G0xx_HAL_Driver/Src/stm32g0xx_ll_usb.c ****         ep->xfer_len_db -= len;
 580:Drivers/STM32G0xx_HAL_Driver/Src/stm32g0xx_ll_usb.c **** 
 581:Drivers/STM32G0xx_HAL_Driver/Src/stm32g0xx_ll_usb.c ****         /* Fill the data buffer */
 582:Drivers/STM32G0xx_HAL_Driver/Src/stm32g0xx_ll_usb.c ****         if ((PCD_GET_ENDPOINT(USBx, ep->num) & USB_EP_DTOG_TX) != 0U)
 583:Drivers/STM32G0xx_HAL_Driver/Src/stm32g0xx_ll_usb.c ****         {
 584:Drivers/STM32G0xx_HAL_Driver/Src/stm32g0xx_ll_usb.c ****           /* Set the Double buffer counter for pmabuffer1 */
 585:Drivers/STM32G0xx_HAL_Driver/Src/stm32g0xx_ll_usb.c ****           PCD_SET_EP_DBUF1_CNT(USBx, ep->num, ep->is_in, len);
ARM GAS  /tmp/cc3M98Wq.s 			page 48


 586:Drivers/STM32G0xx_HAL_Driver/Src/stm32g0xx_ll_usb.c ****           pmabuffer = ep->pmaaddr1;
 587:Drivers/STM32G0xx_HAL_Driver/Src/stm32g0xx_ll_usb.c **** 
 588:Drivers/STM32G0xx_HAL_Driver/Src/stm32g0xx_ll_usb.c ****           /* Write the user buffer to USB PMA */
 589:Drivers/STM32G0xx_HAL_Driver/Src/stm32g0xx_ll_usb.c ****           USB_WritePMA(USBx, ep->xfer_buff, pmabuffer, (uint16_t)len);
 590:Drivers/STM32G0xx_HAL_Driver/Src/stm32g0xx_ll_usb.c ****         }
 591:Drivers/STM32G0xx_HAL_Driver/Src/stm32g0xx_ll_usb.c ****         else
 592:Drivers/STM32G0xx_HAL_Driver/Src/stm32g0xx_ll_usb.c ****         {
 593:Drivers/STM32G0xx_HAL_Driver/Src/stm32g0xx_ll_usb.c ****           /* Set the Double buffer counter for pmabuffer0 */
 594:Drivers/STM32G0xx_HAL_Driver/Src/stm32g0xx_ll_usb.c ****           PCD_SET_EP_DBUF0_CNT(USBx, ep->num, ep->is_in, len);
 595:Drivers/STM32G0xx_HAL_Driver/Src/stm32g0xx_ll_usb.c ****           pmabuffer = ep->pmaaddr0;
 596:Drivers/STM32G0xx_HAL_Driver/Src/stm32g0xx_ll_usb.c **** 
 597:Drivers/STM32G0xx_HAL_Driver/Src/stm32g0xx_ll_usb.c ****           /* Write the user buffer to USB PMA */
 598:Drivers/STM32G0xx_HAL_Driver/Src/stm32g0xx_ll_usb.c ****           USB_WritePMA(USBx, ep->xfer_buff, pmabuffer, (uint16_t)len);
 599:Drivers/STM32G0xx_HAL_Driver/Src/stm32g0xx_ll_usb.c ****         }
 600:Drivers/STM32G0xx_HAL_Driver/Src/stm32g0xx_ll_usb.c ****       }
 601:Drivers/STM32G0xx_HAL_Driver/Src/stm32g0xx_ll_usb.c ****     }
 602:Drivers/STM32G0xx_HAL_Driver/Src/stm32g0xx_ll_usb.c **** #endif /* (USE_USB_DOUBLE_BUFFER == 1U) */
 603:Drivers/STM32G0xx_HAL_Driver/Src/stm32g0xx_ll_usb.c **** 
 604:Drivers/STM32G0xx_HAL_Driver/Src/stm32g0xx_ll_usb.c ****     PCD_SET_EP_TX_STATUS(USBx, ep->num, USB_EP_TX_VALID);
 605:Drivers/STM32G0xx_HAL_Driver/Src/stm32g0xx_ll_usb.c ****   }
 606:Drivers/STM32G0xx_HAL_Driver/Src/stm32g0xx_ll_usb.c ****   else /* OUT endpoint */
 607:Drivers/STM32G0xx_HAL_Driver/Src/stm32g0xx_ll_usb.c ****   {
 608:Drivers/STM32G0xx_HAL_Driver/Src/stm32g0xx_ll_usb.c ****     if (ep->doublebuffer == 0U)
 609:Drivers/STM32G0xx_HAL_Driver/Src/stm32g0xx_ll_usb.c ****     {
 610:Drivers/STM32G0xx_HAL_Driver/Src/stm32g0xx_ll_usb.c ****       if ((ep->xfer_len == 0U) && (ep->type == EP_TYPE_CTRL))
 611:Drivers/STM32G0xx_HAL_Driver/Src/stm32g0xx_ll_usb.c ****       {
 612:Drivers/STM32G0xx_HAL_Driver/Src/stm32g0xx_ll_usb.c ****         /* This is a status out stage set the OUT_STATUS */
 613:Drivers/STM32G0xx_HAL_Driver/Src/stm32g0xx_ll_usb.c ****         PCD_SET_OUT_STATUS(USBx, ep->num);
 614:Drivers/STM32G0xx_HAL_Driver/Src/stm32g0xx_ll_usb.c ****       }
 615:Drivers/STM32G0xx_HAL_Driver/Src/stm32g0xx_ll_usb.c ****       else
 616:Drivers/STM32G0xx_HAL_Driver/Src/stm32g0xx_ll_usb.c ****       {
 617:Drivers/STM32G0xx_HAL_Driver/Src/stm32g0xx_ll_usb.c ****         PCD_CLEAR_OUT_STATUS(USBx, ep->num);
 618:Drivers/STM32G0xx_HAL_Driver/Src/stm32g0xx_ll_usb.c ****       }
 619:Drivers/STM32G0xx_HAL_Driver/Src/stm32g0xx_ll_usb.c **** 
 620:Drivers/STM32G0xx_HAL_Driver/Src/stm32g0xx_ll_usb.c ****       /* Multi packet transfer */
 621:Drivers/STM32G0xx_HAL_Driver/Src/stm32g0xx_ll_usb.c ****       if (ep->xfer_len > ep->maxpacket)
 622:Drivers/STM32G0xx_HAL_Driver/Src/stm32g0xx_ll_usb.c ****       {
 623:Drivers/STM32G0xx_HAL_Driver/Src/stm32g0xx_ll_usb.c ****         ep->xfer_len -= ep->maxpacket;
 624:Drivers/STM32G0xx_HAL_Driver/Src/stm32g0xx_ll_usb.c ****       }
 625:Drivers/STM32G0xx_HAL_Driver/Src/stm32g0xx_ll_usb.c ****       else
 626:Drivers/STM32G0xx_HAL_Driver/Src/stm32g0xx_ll_usb.c ****       {
 627:Drivers/STM32G0xx_HAL_Driver/Src/stm32g0xx_ll_usb.c ****         ep->xfer_len = 0U;
 628:Drivers/STM32G0xx_HAL_Driver/Src/stm32g0xx_ll_usb.c ****       }
 629:Drivers/STM32G0xx_HAL_Driver/Src/stm32g0xx_ll_usb.c ****     }
 630:Drivers/STM32G0xx_HAL_Driver/Src/stm32g0xx_ll_usb.c **** #if (USE_USB_DOUBLE_BUFFER == 1U)
 631:Drivers/STM32G0xx_HAL_Driver/Src/stm32g0xx_ll_usb.c ****     else
 632:Drivers/STM32G0xx_HAL_Driver/Src/stm32g0xx_ll_usb.c ****     {
 633:Drivers/STM32G0xx_HAL_Driver/Src/stm32g0xx_ll_usb.c ****       /* First Transfer Coming From HAL_PCD_EP_Receive & From ISR */
 634:Drivers/STM32G0xx_HAL_Driver/Src/stm32g0xx_ll_usb.c ****       /* Set the Double buffer counter */
 635:Drivers/STM32G0xx_HAL_Driver/Src/stm32g0xx_ll_usb.c ****       if (ep->type == EP_TYPE_BULK)
 636:Drivers/STM32G0xx_HAL_Driver/Src/stm32g0xx_ll_usb.c ****       {
 637:Drivers/STM32G0xx_HAL_Driver/Src/stm32g0xx_ll_usb.c ****         /* Coming from ISR */
 638:Drivers/STM32G0xx_HAL_Driver/Src/stm32g0xx_ll_usb.c ****         if (ep->xfer_count != 0U)
 639:Drivers/STM32G0xx_HAL_Driver/Src/stm32g0xx_ll_usb.c ****         {
 640:Drivers/STM32G0xx_HAL_Driver/Src/stm32g0xx_ll_usb.c ****           /* Update last value to check if there is blocking state */
 641:Drivers/STM32G0xx_HAL_Driver/Src/stm32g0xx_ll_usb.c ****           wEPVal = (uint16_t)PCD_GET_ENDPOINT(USBx, ep->num);
 642:Drivers/STM32G0xx_HAL_Driver/Src/stm32g0xx_ll_usb.c **** 
ARM GAS  /tmp/cc3M98Wq.s 			page 49


 643:Drivers/STM32G0xx_HAL_Driver/Src/stm32g0xx_ll_usb.c ****           /* Blocking State */
 644:Drivers/STM32G0xx_HAL_Driver/Src/stm32g0xx_ll_usb.c ****           if ((((wEPVal & USB_EP_DTOG_RX) != 0U) && ((wEPVal & USB_EP_DTOG_TX) != 0U)) ||
 645:Drivers/STM32G0xx_HAL_Driver/Src/stm32g0xx_ll_usb.c ****               (((wEPVal & USB_EP_DTOG_RX) == 0U) && ((wEPVal & USB_EP_DTOG_TX) == 0U)))
 646:Drivers/STM32G0xx_HAL_Driver/Src/stm32g0xx_ll_usb.c ****           {
 647:Drivers/STM32G0xx_HAL_Driver/Src/stm32g0xx_ll_usb.c ****             PCD_FREE_USER_BUFFER(USBx, ep->num, 0U);
 648:Drivers/STM32G0xx_HAL_Driver/Src/stm32g0xx_ll_usb.c ****           }
 649:Drivers/STM32G0xx_HAL_Driver/Src/stm32g0xx_ll_usb.c ****         }
 650:Drivers/STM32G0xx_HAL_Driver/Src/stm32g0xx_ll_usb.c ****       }
 651:Drivers/STM32G0xx_HAL_Driver/Src/stm32g0xx_ll_usb.c ****       /* iso out double */
 652:Drivers/STM32G0xx_HAL_Driver/Src/stm32g0xx_ll_usb.c ****       else if (ep->type == EP_TYPE_ISOC)
 653:Drivers/STM32G0xx_HAL_Driver/Src/stm32g0xx_ll_usb.c ****       {
 654:Drivers/STM32G0xx_HAL_Driver/Src/stm32g0xx_ll_usb.c ****         /* Only single packet transfer supported in FS */
 655:Drivers/STM32G0xx_HAL_Driver/Src/stm32g0xx_ll_usb.c ****         ep->xfer_len = 0U;
 656:Drivers/STM32G0xx_HAL_Driver/Src/stm32g0xx_ll_usb.c ****       }
 657:Drivers/STM32G0xx_HAL_Driver/Src/stm32g0xx_ll_usb.c ****       else
 658:Drivers/STM32G0xx_HAL_Driver/Src/stm32g0xx_ll_usb.c ****       {
 659:Drivers/STM32G0xx_HAL_Driver/Src/stm32g0xx_ll_usb.c ****         return HAL_ERROR;
 660:Drivers/STM32G0xx_HAL_Driver/Src/stm32g0xx_ll_usb.c ****       }
 661:Drivers/STM32G0xx_HAL_Driver/Src/stm32g0xx_ll_usb.c ****     }
 662:Drivers/STM32G0xx_HAL_Driver/Src/stm32g0xx_ll_usb.c **** #endif /* (USE_USB_DOUBLE_BUFFER == 1U) */
 663:Drivers/STM32G0xx_HAL_Driver/Src/stm32g0xx_ll_usb.c **** 
 664:Drivers/STM32G0xx_HAL_Driver/Src/stm32g0xx_ll_usb.c ****     PCD_SET_EP_RX_STATUS(USBx, ep->num, USB_EP_RX_VALID);
 665:Drivers/STM32G0xx_HAL_Driver/Src/stm32g0xx_ll_usb.c ****   }
 666:Drivers/STM32G0xx_HAL_Driver/Src/stm32g0xx_ll_usb.c **** 
 667:Drivers/STM32G0xx_HAL_Driver/Src/stm32g0xx_ll_usb.c ****   return HAL_OK;
 668:Drivers/STM32G0xx_HAL_Driver/Src/stm32g0xx_ll_usb.c **** }
 669:Drivers/STM32G0xx_HAL_Driver/Src/stm32g0xx_ll_usb.c **** 
 670:Drivers/STM32G0xx_HAL_Driver/Src/stm32g0xx_ll_usb.c **** 
 671:Drivers/STM32G0xx_HAL_Driver/Src/stm32g0xx_ll_usb.c **** /**
 672:Drivers/STM32G0xx_HAL_Driver/Src/stm32g0xx_ll_usb.c ****   * @brief  USB_EPSetStall set a stall condition over an EP
 673:Drivers/STM32G0xx_HAL_Driver/Src/stm32g0xx_ll_usb.c ****   * @param  USBx Selected device
 674:Drivers/STM32G0xx_HAL_Driver/Src/stm32g0xx_ll_usb.c ****   * @param  ep pointer to endpoint structure
 675:Drivers/STM32G0xx_HAL_Driver/Src/stm32g0xx_ll_usb.c ****   * @retval HAL status
 676:Drivers/STM32G0xx_HAL_Driver/Src/stm32g0xx_ll_usb.c ****   */
 677:Drivers/STM32G0xx_HAL_Driver/Src/stm32g0xx_ll_usb.c **** HAL_StatusTypeDef USB_EPSetStall(USB_DRD_TypeDef *USBx, USB_DRD_EPTypeDef *ep)
 678:Drivers/STM32G0xx_HAL_Driver/Src/stm32g0xx_ll_usb.c **** {
 1912              		.loc 1 678 1 view -0
 1913              		.cfi_startproc
 1914              		@ args = 0, pretend = 0, frame = 0
 1915              		@ frame_needed = 0, uses_anonymous_args = 0
 1916              		@ link register save eliminated.
 679:Drivers/STM32G0xx_HAL_Driver/Src/stm32g0xx_ll_usb.c ****   if (ep->is_in != 0U)
 1917              		.loc 1 679 3 view .LVU551
 1918              		.loc 1 679 9 is_stmt 0 view .LVU552
 1919 0000 4B78     		ldrb	r3, [r1, #1]
 1920              		.loc 1 679 6 view .LVU553
 1921 0002 002B     		cmp	r3, #0
 1922 0004 0CD0     		beq	.L99
 680:Drivers/STM32G0xx_HAL_Driver/Src/stm32g0xx_ll_usb.c ****   {
 681:Drivers/STM32G0xx_HAL_Driver/Src/stm32g0xx_ll_usb.c ****     PCD_SET_EP_TX_STATUS(USBx, ep->num, USB_EP_TX_STALL);
 1923              		.loc 1 681 5 is_stmt 1 view .LVU554
 1924              	.LBB52:
 1925              		.loc 1 681 5 view .LVU555
 1926              		.loc 1 681 5 view .LVU556
 1927 0006 0B78     		ldrb	r3, [r1]
 1928 0008 9B00     		lsls	r3, r3, #2
 1929 000a C018     		adds	r0, r0, r3
ARM GAS  /tmp/cc3M98Wq.s 			page 50


 1930              	.LVL177:
 1931              		.loc 1 681 5 is_stmt 0 view .LVU557
 1932 000c 0368     		ldr	r3, [r0]
 1933 000e 0B4A     		ldr	r2, .L101
 1934 0010 1340     		ands	r3, r2
 1935              	.LVL178:
 1936              		.loc 1 681 5 is_stmt 1 view .LVU558
 1937              		.loc 1 681 5 discriminator 1 view .LVU559
 1938 0012 1022     		movs	r2, #16
 1939 0014 5340     		eors	r3, r2
 1940              	.LVL179:
 1941              		.loc 1 681 5 discriminator 3 view .LVU560
 1942              		.loc 1 681 5 discriminator 6 view .LVU561
 1943 0016 0A4A     		ldr	r2, .L101+4
 1944 0018 1343     		orrs	r3, r2
 1945              	.LVL180:
 1946              		.loc 1 681 5 is_stmt 0 discriminator 6 view .LVU562
 1947 001a 0360     		str	r3, [r0]
 1948              	.LBE52:
 1949              		.loc 1 681 5 is_stmt 1 discriminator 6 view .LVU563
 1950              	.LVL181:
 1951              	.L100:
 682:Drivers/STM32G0xx_HAL_Driver/Src/stm32g0xx_ll_usb.c ****   }
 683:Drivers/STM32G0xx_HAL_Driver/Src/stm32g0xx_ll_usb.c ****   else
 684:Drivers/STM32G0xx_HAL_Driver/Src/stm32g0xx_ll_usb.c ****   {
 685:Drivers/STM32G0xx_HAL_Driver/Src/stm32g0xx_ll_usb.c ****     PCD_SET_EP_RX_STATUS(USBx, ep->num, USB_EP_RX_STALL);
 1952              		.loc 1 685 5 discriminator 7 view .LVU564
 686:Drivers/STM32G0xx_HAL_Driver/Src/stm32g0xx_ll_usb.c ****   }
 687:Drivers/STM32G0xx_HAL_Driver/Src/stm32g0xx_ll_usb.c **** 
 688:Drivers/STM32G0xx_HAL_Driver/Src/stm32g0xx_ll_usb.c ****   return HAL_OK;
 1953              		.loc 1 688 3 view .LVU565
 689:Drivers/STM32G0xx_HAL_Driver/Src/stm32g0xx_ll_usb.c **** }
 1954              		.loc 1 689 1 is_stmt 0 view .LVU566
 1955 001c 0020     		movs	r0, #0
 1956              		@ sp needed
 1957 001e 7047     		bx	lr
 1958              	.LVL182:
 1959              	.L99:
 685:Drivers/STM32G0xx_HAL_Driver/Src/stm32g0xx_ll_usb.c ****   }
 1960              		.loc 1 685 5 is_stmt 1 view .LVU567
 1961              	.LBB53:
 685:Drivers/STM32G0xx_HAL_Driver/Src/stm32g0xx_ll_usb.c ****   }
 1962              		.loc 1 685 5 view .LVU568
 685:Drivers/STM32G0xx_HAL_Driver/Src/stm32g0xx_ll_usb.c ****   }
 1963              		.loc 1 685 5 view .LVU569
 1964 0020 0B78     		ldrb	r3, [r1]
 1965 0022 9B00     		lsls	r3, r3, #2
 1966 0024 C018     		adds	r0, r0, r3
 1967              	.LVL183:
 685:Drivers/STM32G0xx_HAL_Driver/Src/stm32g0xx_ll_usb.c ****   }
 1968              		.loc 1 685 5 is_stmt 0 view .LVU570
 1969 0026 0368     		ldr	r3, [r0]
 1970 0028 064A     		ldr	r2, .L101+8
 1971 002a 1340     		ands	r3, r2
 1972              	.LVL184:
 685:Drivers/STM32G0xx_HAL_Driver/Src/stm32g0xx_ll_usb.c ****   }
 1973              		.loc 1 685 5 is_stmt 1 view .LVU571
ARM GAS  /tmp/cc3M98Wq.s 			page 51


 685:Drivers/STM32G0xx_HAL_Driver/Src/stm32g0xx_ll_usb.c ****   }
 1974              		.loc 1 685 5 discriminator 1 view .LVU572
 1975 002c 8022     		movs	r2, #128
 1976 002e 5201     		lsls	r2, r2, #5
 1977 0030 5A40     		eors	r2, r3
 1978              	.LVL185:
 685:Drivers/STM32G0xx_HAL_Driver/Src/stm32g0xx_ll_usb.c ****   }
 1979              		.loc 1 685 5 discriminator 3 view .LVU573
 685:Drivers/STM32G0xx_HAL_Driver/Src/stm32g0xx_ll_usb.c ****   }
 1980              		.loc 1 685 5 discriminator 6 view .LVU574
 1981 0032 034B     		ldr	r3, .L101+4
 1982 0034 1343     		orrs	r3, r2
 1983 0036 0360     		str	r3, [r0]
 1984 0038 F0E7     		b	.L100
 1985              	.L102:
 1986 003a C046     		.align	2
 1987              	.L101:
 1988 003c BF8FFF07 		.word	134188991
 1989 0040 80800000 		.word	32896
 1990 0044 8FBFFF07 		.word	134201231
 1991              	.LBE53:
 1992              		.cfi_endproc
 1993              	.LFE377:
 1995              		.section	.text.USB_EPClearStall,"ax",%progbits
 1996              		.align	1
 1997              		.global	USB_EPClearStall
 1998              		.syntax unified
 1999              		.code	16
 2000              		.thumb_func
 2002              	USB_EPClearStall:
 2003              	.LVL186:
 2004              	.LFB378:
 690:Drivers/STM32G0xx_HAL_Driver/Src/stm32g0xx_ll_usb.c **** 
 691:Drivers/STM32G0xx_HAL_Driver/Src/stm32g0xx_ll_usb.c **** /**
 692:Drivers/STM32G0xx_HAL_Driver/Src/stm32g0xx_ll_usb.c ****   * @brief  USB_EPClearStall Clear a stall condition over an EP
 693:Drivers/STM32G0xx_HAL_Driver/Src/stm32g0xx_ll_usb.c ****   * @param  USBx Selected device
 694:Drivers/STM32G0xx_HAL_Driver/Src/stm32g0xx_ll_usb.c ****   * @param  ep pointer to endpoint structure
 695:Drivers/STM32G0xx_HAL_Driver/Src/stm32g0xx_ll_usb.c ****   * @retval HAL status
 696:Drivers/STM32G0xx_HAL_Driver/Src/stm32g0xx_ll_usb.c ****   */
 697:Drivers/STM32G0xx_HAL_Driver/Src/stm32g0xx_ll_usb.c **** HAL_StatusTypeDef USB_EPClearStall(USB_DRD_TypeDef *USBx, USB_DRD_EPTypeDef *ep)
 698:Drivers/STM32G0xx_HAL_Driver/Src/stm32g0xx_ll_usb.c **** {
 2005              		.loc 1 698 1 view -0
 2006              		.cfi_startproc
 2007              		@ args = 0, pretend = 0, frame = 0
 2008              		@ frame_needed = 0, uses_anonymous_args = 0
 2009              		.loc 1 698 1 is_stmt 0 view .LVU576
 2010 0000 10B5     		push	{r4, lr}
 2011              	.LCFI6:
 2012              		.cfi_def_cfa_offset 8
 2013              		.cfi_offset 4, -8
 2014              		.cfi_offset 14, -4
 699:Drivers/STM32G0xx_HAL_Driver/Src/stm32g0xx_ll_usb.c ****   if (ep->is_in != 0U)
 2015              		.loc 1 699 3 is_stmt 1 view .LVU577
 2016              		.loc 1 699 9 is_stmt 0 view .LVU578
 2017 0002 4B78     		ldrb	r3, [r1, #1]
 2018              		.loc 1 699 6 view .LVU579
 2019 0004 002B     		cmp	r3, #0
ARM GAS  /tmp/cc3M98Wq.s 			page 52


 2020 0006 1AD0     		beq	.L104
 700:Drivers/STM32G0xx_HAL_Driver/Src/stm32g0xx_ll_usb.c ****   {
 701:Drivers/STM32G0xx_HAL_Driver/Src/stm32g0xx_ll_usb.c ****     PCD_CLEAR_TX_DTOG(USBx, ep->num);
 2021              		.loc 1 701 5 is_stmt 1 view .LVU580
 2022              	.LBB54:
 2023              		.loc 1 701 5 view .LVU581
 2024              		.loc 1 701 5 view .LVU582
 2025 0008 0B78     		ldrb	r3, [r1]
 2026 000a 9B00     		lsls	r3, r3, #2
 2027 000c C318     		adds	r3, r0, r3
 2028 000e 1A68     		ldr	r2, [r3]
 2029              	.LVL187:
 2030              		.loc 1 701 5 view .LVU583
 2031 0010 5206     		lsls	r2, r2, #25
 2032 0012 05D5     		bpl	.L105
 2033              	.LVL188:
 2034              		.loc 1 701 5 discriminator 1 view .LVU584
 2035              	.LBB55:
 2036              		.loc 1 701 5 discriminator 1 view .LVU585
 2037              		.loc 1 701 5 discriminator 1 view .LVU586
 2038 0014 1C68     		ldr	r4, [r3]
 2039 0016 174A     		ldr	r2, .L110
 2040 0018 1440     		ands	r4, r2
 2041              	.LVL189:
 2042              		.loc 1 701 5 discriminator 1 view .LVU587
 2043 001a 174A     		ldr	r2, .L110+4
 2044 001c 2243     		orrs	r2, r4
 2045 001e 1A60     		str	r2, [r3]
 2046              	.LVL190:
 2047              	.L105:
 2048              		.loc 1 701 5 is_stmt 0 discriminator 1 view .LVU588
 2049              	.LBE55:
 2050              		.loc 1 701 5 is_stmt 1 discriminator 3 view .LVU589
 2051              	.LBE54:
 2052              		.loc 1 701 5 discriminator 3 view .LVU590
 702:Drivers/STM32G0xx_HAL_Driver/Src/stm32g0xx_ll_usb.c **** 
 703:Drivers/STM32G0xx_HAL_Driver/Src/stm32g0xx_ll_usb.c ****     if (ep->type != EP_TYPE_ISOC)
 2053              		.loc 1 703 5 view .LVU591
 2054              		.loc 1 703 11 is_stmt 0 view .LVU592
 2055 0020 CB78     		ldrb	r3, [r1, #3]
 2056              		.loc 1 703 8 view .LVU593
 2057 0022 012B     		cmp	r3, #1
 2058 0024 23D0     		beq	.L106
 704:Drivers/STM32G0xx_HAL_Driver/Src/stm32g0xx_ll_usb.c ****     {
 705:Drivers/STM32G0xx_HAL_Driver/Src/stm32g0xx_ll_usb.c ****       /* Configure NAK status for the Endpoint */
 706:Drivers/STM32G0xx_HAL_Driver/Src/stm32g0xx_ll_usb.c ****       PCD_SET_EP_TX_STATUS(USBx, ep->num, USB_EP_TX_NAK);
 2059              		.loc 1 706 7 is_stmt 1 view .LVU594
 2060              	.LBB56:
 2061              		.loc 1 706 7 view .LVU595
 2062              		.loc 1 706 7 view .LVU596
 2063 0026 0B78     		ldrb	r3, [r1]
 2064 0028 9B00     		lsls	r3, r3, #2
 2065 002a C318     		adds	r3, r0, r3
 2066 002c 1A68     		ldr	r2, [r3]
 2067 002e 1349     		ldr	r1, .L110+8
 2068              	.LVL191:
 2069              		.loc 1 706 7 is_stmt 0 view .LVU597
ARM GAS  /tmp/cc3M98Wq.s 			page 53


 2070 0030 0A40     		ands	r2, r1
 2071              	.LVL192:
 2072              		.loc 1 706 7 is_stmt 1 view .LVU598
 2073              		.loc 1 706 7 discriminator 3 view .LVU599
 2074              		.loc 1 706 7 discriminator 4 view .LVU600
 2075 0032 2021     		movs	r1, #32
 2076 0034 4A40     		eors	r2, r1
 2077              	.LVL193:
 2078              		.loc 1 706 7 discriminator 6 view .LVU601
 2079 0036 1249     		ldr	r1, .L110+12
 2080 0038 0A43     		orrs	r2, r1
 2081              	.LVL194:
 2082              		.loc 1 706 7 is_stmt 0 discriminator 6 view .LVU602
 2083 003a 1A60     		str	r2, [r3]
 2084 003c 17E0     		b	.L106
 2085              	.LVL195:
 2086              	.L104:
 2087              		.loc 1 706 7 discriminator 6 view .LVU603
 2088              	.LBE56:
 707:Drivers/STM32G0xx_HAL_Driver/Src/stm32g0xx_ll_usb.c ****     }
 708:Drivers/STM32G0xx_HAL_Driver/Src/stm32g0xx_ll_usb.c ****   }
 709:Drivers/STM32G0xx_HAL_Driver/Src/stm32g0xx_ll_usb.c ****   else
 710:Drivers/STM32G0xx_HAL_Driver/Src/stm32g0xx_ll_usb.c ****   {
 711:Drivers/STM32G0xx_HAL_Driver/Src/stm32g0xx_ll_usb.c ****     PCD_CLEAR_RX_DTOG(USBx, ep->num);
 2089              		.loc 1 711 5 is_stmt 1 view .LVU604
 2090              	.LBB57:
 2091              		.loc 1 711 5 view .LVU605
 2092              		.loc 1 711 5 view .LVU606
 2093 003e 0B78     		ldrb	r3, [r1]
 2094 0040 9B00     		lsls	r3, r3, #2
 2095 0042 C318     		adds	r3, r0, r3
 2096 0044 1A68     		ldr	r2, [r3]
 2097              	.LVL196:
 2098              		.loc 1 711 5 view .LVU607
 2099 0046 5204     		lsls	r2, r2, #17
 2100 0048 05D5     		bpl	.L107
 2101              	.LVL197:
 2102              		.loc 1 711 5 discriminator 1 view .LVU608
 2103              	.LBB58:
 2104              		.loc 1 711 5 discriminator 1 view .LVU609
 2105              		.loc 1 711 5 discriminator 1 view .LVU610
 2106 004a 1C68     		ldr	r4, [r3]
 2107 004c 094A     		ldr	r2, .L110
 2108 004e 1440     		ands	r4, r2
 2109              	.LVL198:
 2110              		.loc 1 711 5 discriminator 1 view .LVU611
 2111 0050 0C4A     		ldr	r2, .L110+16
 2112 0052 2243     		orrs	r2, r4
 2113 0054 1A60     		str	r2, [r3]
 2114              	.LVL199:
 2115              	.L107:
 2116              		.loc 1 711 5 is_stmt 0 discriminator 1 view .LVU612
 2117              	.LBE58:
 2118              		.loc 1 711 5 is_stmt 1 discriminator 3 view .LVU613
 2119              	.LBE57:
 2120              		.loc 1 711 5 discriminator 3 view .LVU614
 712:Drivers/STM32G0xx_HAL_Driver/Src/stm32g0xx_ll_usb.c **** 
ARM GAS  /tmp/cc3M98Wq.s 			page 54


 713:Drivers/STM32G0xx_HAL_Driver/Src/stm32g0xx_ll_usb.c ****     /* Configure VALID status for the Endpoint */
 714:Drivers/STM32G0xx_HAL_Driver/Src/stm32g0xx_ll_usb.c ****     PCD_SET_EP_RX_STATUS(USBx, ep->num, USB_EP_RX_VALID);
 2121              		.loc 1 714 5 view .LVU615
 2122              	.LBB59:
 2123              		.loc 1 714 5 view .LVU616
 2124              		.loc 1 714 5 view .LVU617
 2125 0056 0B78     		ldrb	r3, [r1]
 2126 0058 9B00     		lsls	r3, r3, #2
 2127 005a C018     		adds	r0, r0, r3
 2128              	.LVL200:
 2129              		.loc 1 714 5 is_stmt 0 view .LVU618
 2130 005c 0368     		ldr	r3, [r0]
 2131 005e 0A4A     		ldr	r2, .L110+20
 2132 0060 1340     		ands	r3, r2
 2133              	.LVL201:
 2134              		.loc 1 714 5 is_stmt 1 view .LVU619
 2135              		.loc 1 714 5 discriminator 1 view .LVU620
 2136              		.loc 1 714 5 discriminator 3 view .LVU621
 2137              		.loc 1 714 5 discriminator 4 view .LVU622
 2138 0062 C022     		movs	r2, #192
 2139 0064 9201     		lsls	r2, r2, #6
 2140 0066 5A40     		eors	r2, r3
 2141              	.LVL202:
 2142              		.loc 1 714 5 discriminator 6 view .LVU623
 2143 0068 054B     		ldr	r3, .L110+12
 2144 006a 1343     		orrs	r3, r2
 2145 006c 0360     		str	r3, [r0]
 2146              	.LVL203:
 2147              	.L106:
 2148              		.loc 1 714 5 is_stmt 0 discriminator 6 view .LVU624
 2149              	.LBE59:
 2150              		.loc 1 714 5 is_stmt 1 discriminator 7 view .LVU625
 715:Drivers/STM32G0xx_HAL_Driver/Src/stm32g0xx_ll_usb.c ****   }
 716:Drivers/STM32G0xx_HAL_Driver/Src/stm32g0xx_ll_usb.c **** 
 717:Drivers/STM32G0xx_HAL_Driver/Src/stm32g0xx_ll_usb.c ****   return HAL_OK;
 2151              		.loc 1 717 3 view .LVU626
 718:Drivers/STM32G0xx_HAL_Driver/Src/stm32g0xx_ll_usb.c **** }
 2152              		.loc 1 718 1 is_stmt 0 view .LVU627
 2153 006e 0020     		movs	r0, #0
 2154              		@ sp needed
 2155 0070 10BD     		pop	{r4, pc}
 2156              	.L111:
 2157 0072 C046     		.align	2
 2158              	.L110:
 2159 0074 8F8FFF07 		.word	134188943
 2160 0078 C0800000 		.word	32960
 2161 007c BF8FFF07 		.word	134188991
 2162 0080 80800000 		.word	32896
 2163 0084 80C00000 		.word	49280
 2164 0088 8FBFFF07 		.word	134201231
 2165              		.cfi_endproc
 2166              	.LFE378:
 2168              		.section	.text.USB_EPStopXfer,"ax",%progbits
 2169              		.align	1
 2170              		.global	USB_EPStopXfer
 2171              		.syntax unified
 2172              		.code	16
ARM GAS  /tmp/cc3M98Wq.s 			page 55


 2173              		.thumb_func
 2175              	USB_EPStopXfer:
 2176              	.LVL204:
 2177              	.LFB379:
 719:Drivers/STM32G0xx_HAL_Driver/Src/stm32g0xx_ll_usb.c **** 
 720:Drivers/STM32G0xx_HAL_Driver/Src/stm32g0xx_ll_usb.c **** /**
 721:Drivers/STM32G0xx_HAL_Driver/Src/stm32g0xx_ll_usb.c ****    * @brief  USB_EPStoptXfer  Stop transfer on an EP
 722:Drivers/STM32G0xx_HAL_Driver/Src/stm32g0xx_ll_usb.c ****    * @param  USBx  usb device instance
 723:Drivers/STM32G0xx_HAL_Driver/Src/stm32g0xx_ll_usb.c ****    * @param  ep pointer to endpoint structure
 724:Drivers/STM32G0xx_HAL_Driver/Src/stm32g0xx_ll_usb.c ****    * @retval HAL status
 725:Drivers/STM32G0xx_HAL_Driver/Src/stm32g0xx_ll_usb.c ****    */
 726:Drivers/STM32G0xx_HAL_Driver/Src/stm32g0xx_ll_usb.c **** HAL_StatusTypeDef USB_EPStopXfer(USB_DRD_TypeDef *USBx, USB_DRD_EPTypeDef *ep)
 727:Drivers/STM32G0xx_HAL_Driver/Src/stm32g0xx_ll_usb.c **** {
 2178              		.loc 1 727 1 is_stmt 1 view -0
 2179              		.cfi_startproc
 2180              		@ args = 0, pretend = 0, frame = 0
 2181              		@ frame_needed = 0, uses_anonymous_args = 0
 2182              		@ link register save eliminated.
 728:Drivers/STM32G0xx_HAL_Driver/Src/stm32g0xx_ll_usb.c ****   /* IN endpoint */
 729:Drivers/STM32G0xx_HAL_Driver/Src/stm32g0xx_ll_usb.c ****   if (ep->is_in == 1U)
 2183              		.loc 1 729 3 view .LVU629
 2184              		.loc 1 729 9 is_stmt 0 view .LVU630
 2185 0000 4B78     		ldrb	r3, [r1, #1]
 2186              		.loc 1 729 6 view .LVU631
 2187 0002 012B     		cmp	r3, #1
 2188 0004 13D0     		beq	.L117
 730:Drivers/STM32G0xx_HAL_Driver/Src/stm32g0xx_ll_usb.c ****   {
 731:Drivers/STM32G0xx_HAL_Driver/Src/stm32g0xx_ll_usb.c ****     if (ep->doublebuffer == 0U)
 732:Drivers/STM32G0xx_HAL_Driver/Src/stm32g0xx_ll_usb.c ****     {
 733:Drivers/STM32G0xx_HAL_Driver/Src/stm32g0xx_ll_usb.c ****       if (ep->type != EP_TYPE_ISOC)
 734:Drivers/STM32G0xx_HAL_Driver/Src/stm32g0xx_ll_usb.c ****       {
 735:Drivers/STM32G0xx_HAL_Driver/Src/stm32g0xx_ll_usb.c ****         /* Configure NAK status for the Endpoint */
 736:Drivers/STM32G0xx_HAL_Driver/Src/stm32g0xx_ll_usb.c ****         PCD_SET_EP_TX_STATUS(USBx, ep->num, USB_EP_TX_NAK);
 737:Drivers/STM32G0xx_HAL_Driver/Src/stm32g0xx_ll_usb.c ****       }
 738:Drivers/STM32G0xx_HAL_Driver/Src/stm32g0xx_ll_usb.c ****       else
 739:Drivers/STM32G0xx_HAL_Driver/Src/stm32g0xx_ll_usb.c ****       {
 740:Drivers/STM32G0xx_HAL_Driver/Src/stm32g0xx_ll_usb.c ****         /* Configure TX Endpoint to disabled state */
 741:Drivers/STM32G0xx_HAL_Driver/Src/stm32g0xx_ll_usb.c ****         PCD_SET_EP_TX_STATUS(USBx, ep->num, USB_EP_TX_DIS);
 742:Drivers/STM32G0xx_HAL_Driver/Src/stm32g0xx_ll_usb.c ****       }
 743:Drivers/STM32G0xx_HAL_Driver/Src/stm32g0xx_ll_usb.c ****     }
 744:Drivers/STM32G0xx_HAL_Driver/Src/stm32g0xx_ll_usb.c ****   }
 745:Drivers/STM32G0xx_HAL_Driver/Src/stm32g0xx_ll_usb.c ****   else /* OUT endpoint */
 746:Drivers/STM32G0xx_HAL_Driver/Src/stm32g0xx_ll_usb.c ****   {
 747:Drivers/STM32G0xx_HAL_Driver/Src/stm32g0xx_ll_usb.c ****     if (ep->doublebuffer == 0U)
 2189              		.loc 1 747 5 is_stmt 1 view .LVU632
 2190              		.loc 1 747 11 is_stmt 0 view .LVU633
 2191 0006 0B7B     		ldrb	r3, [r1, #12]
 2192              		.loc 1 747 8 view .LVU634
 2193 0008 002B     		cmp	r3, #0
 2194 000a 0ED1     		bne	.L114
 748:Drivers/STM32G0xx_HAL_Driver/Src/stm32g0xx_ll_usb.c ****     {
 749:Drivers/STM32G0xx_HAL_Driver/Src/stm32g0xx_ll_usb.c ****       if (ep->type != EP_TYPE_ISOC)
 2195              		.loc 1 749 7 is_stmt 1 view .LVU635
 2196              		.loc 1 749 13 is_stmt 0 view .LVU636
 2197 000c CB78     		ldrb	r3, [r1, #3]
 2198              		.loc 1 749 10 view .LVU637
 2199 000e 012B     		cmp	r3, #1
ARM GAS  /tmp/cc3M98Wq.s 			page 56


 2200 0010 29D0     		beq	.L116
 750:Drivers/STM32G0xx_HAL_Driver/Src/stm32g0xx_ll_usb.c ****       {
 751:Drivers/STM32G0xx_HAL_Driver/Src/stm32g0xx_ll_usb.c ****         /* Configure NAK status for the Endpoint */
 752:Drivers/STM32G0xx_HAL_Driver/Src/stm32g0xx_ll_usb.c ****         PCD_SET_EP_RX_STATUS(USBx, ep->num, USB_EP_RX_NAK);
 2201              		.loc 1 752 9 is_stmt 1 view .LVU638
 2202              	.LBB60:
 2203              		.loc 1 752 9 view .LVU639
 2204              		.loc 1 752 9 view .LVU640
 2205 0012 0B78     		ldrb	r3, [r1]
 2206 0014 9B00     		lsls	r3, r3, #2
 2207 0016 C318     		adds	r3, r0, r3
 2208 0018 1A68     		ldr	r2, [r3]
 2209 001a 1849     		ldr	r1, .L118
 2210              	.LVL205:
 2211              		.loc 1 752 9 is_stmt 0 view .LVU641
 2212 001c 0A40     		ands	r2, r1
 2213              	.LVL206:
 2214              		.loc 1 752 9 is_stmt 1 view .LVU642
 2215              		.loc 1 752 9 discriminator 3 view .LVU643
 2216              		.loc 1 752 9 discriminator 4 view .LVU644
 2217 001e 8021     		movs	r1, #128
 2218 0020 8901     		lsls	r1, r1, #6
 2219 0022 5140     		eors	r1, r2
 2220              	.LVL207:
 2221              		.loc 1 752 9 discriminator 6 view .LVU645
 2222 0024 164A     		ldr	r2, .L118+4
 2223 0026 0A43     		orrs	r2, r1
 2224 0028 1A60     		str	r2, [r3]
 2225              	.LBE60:
 2226              		.loc 1 752 9 discriminator 6 view .LVU646
 2227              	.LVL208:
 2228              	.L114:
 753:Drivers/STM32G0xx_HAL_Driver/Src/stm32g0xx_ll_usb.c ****       }
 754:Drivers/STM32G0xx_HAL_Driver/Src/stm32g0xx_ll_usb.c ****       else
 755:Drivers/STM32G0xx_HAL_Driver/Src/stm32g0xx_ll_usb.c ****       {
 756:Drivers/STM32G0xx_HAL_Driver/Src/stm32g0xx_ll_usb.c ****         /* Configure RX Endpoint to disabled state */
 757:Drivers/STM32G0xx_HAL_Driver/Src/stm32g0xx_ll_usb.c ****         PCD_SET_EP_RX_STATUS(USBx, ep->num, USB_EP_RX_DIS);
 2229              		.loc 1 757 9 discriminator 7 view .LVU647
 758:Drivers/STM32G0xx_HAL_Driver/Src/stm32g0xx_ll_usb.c ****       }
 759:Drivers/STM32G0xx_HAL_Driver/Src/stm32g0xx_ll_usb.c ****     }
 760:Drivers/STM32G0xx_HAL_Driver/Src/stm32g0xx_ll_usb.c ****   }
 761:Drivers/STM32G0xx_HAL_Driver/Src/stm32g0xx_ll_usb.c **** 
 762:Drivers/STM32G0xx_HAL_Driver/Src/stm32g0xx_ll_usb.c ****   return HAL_OK;
 2230              		.loc 1 762 3 view .LVU648
 763:Drivers/STM32G0xx_HAL_Driver/Src/stm32g0xx_ll_usb.c **** }
 2231              		.loc 1 763 1 is_stmt 0 view .LVU649
 2232 002a 0020     		movs	r0, #0
 2233              		@ sp needed
 2234 002c 7047     		bx	lr
 2235              	.LVL209:
 2236              	.L117:
 731:Drivers/STM32G0xx_HAL_Driver/Src/stm32g0xx_ll_usb.c ****     {
 2237              		.loc 1 731 5 is_stmt 1 view .LVU650
 731:Drivers/STM32G0xx_HAL_Driver/Src/stm32g0xx_ll_usb.c ****     {
 2238              		.loc 1 731 11 is_stmt 0 view .LVU651
 2239 002e 0B7B     		ldrb	r3, [r1, #12]
 731:Drivers/STM32G0xx_HAL_Driver/Src/stm32g0xx_ll_usb.c ****     {
ARM GAS  /tmp/cc3M98Wq.s 			page 57


 2240              		.loc 1 731 8 view .LVU652
 2241 0030 002B     		cmp	r3, #0
 2242 0032 FAD1     		bne	.L114
 733:Drivers/STM32G0xx_HAL_Driver/Src/stm32g0xx_ll_usb.c ****       {
 2243              		.loc 1 733 7 is_stmt 1 view .LVU653
 733:Drivers/STM32G0xx_HAL_Driver/Src/stm32g0xx_ll_usb.c ****       {
 2244              		.loc 1 733 13 is_stmt 0 view .LVU654
 2245 0034 CB78     		ldrb	r3, [r1, #3]
 733:Drivers/STM32G0xx_HAL_Driver/Src/stm32g0xx_ll_usb.c ****       {
 2246              		.loc 1 733 10 view .LVU655
 2247 0036 012B     		cmp	r3, #1
 2248 0038 0BD0     		beq	.L115
 736:Drivers/STM32G0xx_HAL_Driver/Src/stm32g0xx_ll_usb.c ****       }
 2249              		.loc 1 736 9 is_stmt 1 view .LVU656
 2250              	.LBB61:
 736:Drivers/STM32G0xx_HAL_Driver/Src/stm32g0xx_ll_usb.c ****       }
 2251              		.loc 1 736 9 view .LVU657
 736:Drivers/STM32G0xx_HAL_Driver/Src/stm32g0xx_ll_usb.c ****       }
 2252              		.loc 1 736 9 view .LVU658
 2253 003a 0B78     		ldrb	r3, [r1]
 2254 003c 9B00     		lsls	r3, r3, #2
 2255 003e C318     		adds	r3, r0, r3
 2256 0040 1A68     		ldr	r2, [r3]
 2257 0042 1049     		ldr	r1, .L118+8
 2258              	.LVL210:
 736:Drivers/STM32G0xx_HAL_Driver/Src/stm32g0xx_ll_usb.c ****       }
 2259              		.loc 1 736 9 is_stmt 0 view .LVU659
 2260 0044 0A40     		ands	r2, r1
 2261              	.LVL211:
 736:Drivers/STM32G0xx_HAL_Driver/Src/stm32g0xx_ll_usb.c ****       }
 2262              		.loc 1 736 9 is_stmt 1 view .LVU660
 736:Drivers/STM32G0xx_HAL_Driver/Src/stm32g0xx_ll_usb.c ****       }
 2263              		.loc 1 736 9 discriminator 3 view .LVU661
 736:Drivers/STM32G0xx_HAL_Driver/Src/stm32g0xx_ll_usb.c ****       }
 2264              		.loc 1 736 9 discriminator 4 view .LVU662
 2265 0046 2021     		movs	r1, #32
 2266 0048 4A40     		eors	r2, r1
 2267              	.LVL212:
 736:Drivers/STM32G0xx_HAL_Driver/Src/stm32g0xx_ll_usb.c ****       }
 2268              		.loc 1 736 9 discriminator 6 view .LVU663
 2269 004a 0D49     		ldr	r1, .L118+4
 2270 004c 0A43     		orrs	r2, r1
 2271              	.LVL213:
 736:Drivers/STM32G0xx_HAL_Driver/Src/stm32g0xx_ll_usb.c ****       }
 2272              		.loc 1 736 9 is_stmt 0 discriminator 6 view .LVU664
 2273 004e 1A60     		str	r2, [r3]
 2274              	.LBE61:
 736:Drivers/STM32G0xx_HAL_Driver/Src/stm32g0xx_ll_usb.c ****       }
 2275              		.loc 1 736 9 is_stmt 1 discriminator 6 view .LVU665
 2276 0050 EBE7     		b	.L114
 2277              	.LVL214:
 2278              	.L115:
 741:Drivers/STM32G0xx_HAL_Driver/Src/stm32g0xx_ll_usb.c ****       }
 2279              		.loc 1 741 9 view .LVU666
 2280              	.LBB62:
 741:Drivers/STM32G0xx_HAL_Driver/Src/stm32g0xx_ll_usb.c ****       }
 2281              		.loc 1 741 9 view .LVU667
ARM GAS  /tmp/cc3M98Wq.s 			page 58


 741:Drivers/STM32G0xx_HAL_Driver/Src/stm32g0xx_ll_usb.c ****       }
 2282              		.loc 1 741 9 view .LVU668
 2283 0052 0B78     		ldrb	r3, [r1]
 2284 0054 9B00     		lsls	r3, r3, #2
 2285 0056 C318     		adds	r3, r0, r3
 2286 0058 1968     		ldr	r1, [r3]
 2287              	.LVL215:
 741:Drivers/STM32G0xx_HAL_Driver/Src/stm32g0xx_ll_usb.c ****       }
 2288              		.loc 1 741 9 is_stmt 0 view .LVU669
 2289 005a 0A4A     		ldr	r2, .L118+8
 2290 005c 1140     		ands	r1, r2
 2291              	.LVL216:
 741:Drivers/STM32G0xx_HAL_Driver/Src/stm32g0xx_ll_usb.c ****       }
 2292              		.loc 1 741 9 is_stmt 1 view .LVU670
 741:Drivers/STM32G0xx_HAL_Driver/Src/stm32g0xx_ll_usb.c ****       }
 2293              		.loc 1 741 9 discriminator 3 view .LVU671
 741:Drivers/STM32G0xx_HAL_Driver/Src/stm32g0xx_ll_usb.c ****       }
 2294              		.loc 1 741 9 discriminator 6 view .LVU672
 2295 005e 084A     		ldr	r2, .L118+4
 2296 0060 0A43     		orrs	r2, r1
 2297 0062 1A60     		str	r2, [r3]
 2298 0064 E1E7     		b	.L114
 2299              	.LVL217:
 2300              	.L116:
 741:Drivers/STM32G0xx_HAL_Driver/Src/stm32g0xx_ll_usb.c ****       }
 2301              		.loc 1 741 9 is_stmt 0 discriminator 6 view .LVU673
 2302              	.LBE62:
 757:Drivers/STM32G0xx_HAL_Driver/Src/stm32g0xx_ll_usb.c ****       }
 2303              		.loc 1 757 9 is_stmt 1 view .LVU674
 2304              	.LBB63:
 757:Drivers/STM32G0xx_HAL_Driver/Src/stm32g0xx_ll_usb.c ****       }
 2305              		.loc 1 757 9 view .LVU675
 757:Drivers/STM32G0xx_HAL_Driver/Src/stm32g0xx_ll_usb.c ****       }
 2306              		.loc 1 757 9 view .LVU676
 2307 0066 0B78     		ldrb	r3, [r1]
 2308 0068 9B00     		lsls	r3, r3, #2
 2309 006a C018     		adds	r0, r0, r3
 2310              	.LVL218:
 757:Drivers/STM32G0xx_HAL_Driver/Src/stm32g0xx_ll_usb.c ****       }
 2311              		.loc 1 757 9 is_stmt 0 view .LVU677
 2312 006c 0268     		ldr	r2, [r0]
 2313 006e 034B     		ldr	r3, .L118
 2314 0070 1A40     		ands	r2, r3
 2315              	.LVL219:
 757:Drivers/STM32G0xx_HAL_Driver/Src/stm32g0xx_ll_usb.c ****       }
 2316              		.loc 1 757 9 is_stmt 1 view .LVU678
 757:Drivers/STM32G0xx_HAL_Driver/Src/stm32g0xx_ll_usb.c ****       }
 2317              		.loc 1 757 9 discriminator 3 view .LVU679
 757:Drivers/STM32G0xx_HAL_Driver/Src/stm32g0xx_ll_usb.c ****       }
 2318              		.loc 1 757 9 discriminator 6 view .LVU680
 2319 0072 034B     		ldr	r3, .L118+4
 2320 0074 1343     		orrs	r3, r2
 2321 0076 0360     		str	r3, [r0]
 2322 0078 D7E7     		b	.L114
 2323              	.L119:
 2324 007a C046     		.align	2
 2325              	.L118:
ARM GAS  /tmp/cc3M98Wq.s 			page 59


 2326 007c 8FBFFF07 		.word	134201231
 2327 0080 80800000 		.word	32896
 2328 0084 BF8FFF07 		.word	134188991
 2329              	.LBE63:
 2330              		.cfi_endproc
 2331              	.LFE379:
 2333              		.section	.text.USB_StopDevice,"ax",%progbits
 2334              		.align	1
 2335              		.global	USB_StopDevice
 2336              		.syntax unified
 2337              		.code	16
 2338              		.thumb_func
 2340              	USB_StopDevice:
 2341              	.LVL220:
 2342              	.LFB380:
 764:Drivers/STM32G0xx_HAL_Driver/Src/stm32g0xx_ll_usb.c **** #endif /* defined (HAL_PCD_MODULE_ENABLED) */
 765:Drivers/STM32G0xx_HAL_Driver/Src/stm32g0xx_ll_usb.c **** 
 766:Drivers/STM32G0xx_HAL_Driver/Src/stm32g0xx_ll_usb.c **** /**
 767:Drivers/STM32G0xx_HAL_Driver/Src/stm32g0xx_ll_usb.c ****   * @brief  USB_StopDevice Stop the usb device mode
 768:Drivers/STM32G0xx_HAL_Driver/Src/stm32g0xx_ll_usb.c ****   * @param  USBx Selected device
 769:Drivers/STM32G0xx_HAL_Driver/Src/stm32g0xx_ll_usb.c ****   * @retval HAL status
 770:Drivers/STM32G0xx_HAL_Driver/Src/stm32g0xx_ll_usb.c ****   */
 771:Drivers/STM32G0xx_HAL_Driver/Src/stm32g0xx_ll_usb.c **** HAL_StatusTypeDef USB_StopDevice(USB_DRD_TypeDef *USBx)
 772:Drivers/STM32G0xx_HAL_Driver/Src/stm32g0xx_ll_usb.c **** {
 2343              		.loc 1 772 1 view -0
 2344              		.cfi_startproc
 2345              		@ args = 0, pretend = 0, frame = 0
 2346              		@ frame_needed = 0, uses_anonymous_args = 0
 2347              		@ link register save eliminated.
 773:Drivers/STM32G0xx_HAL_Driver/Src/stm32g0xx_ll_usb.c ****   /* disable all interrupts and force USB reset */
 774:Drivers/STM32G0xx_HAL_Driver/Src/stm32g0xx_ll_usb.c ****   USBx->CNTR = USB_CNTR_USBRST;
 2348              		.loc 1 774 3 view .LVU682
 2349              		.loc 1 774 14 is_stmt 0 view .LVU683
 2350 0000 0123     		movs	r3, #1
 2351 0002 0364     		str	r3, [r0, #64]
 775:Drivers/STM32G0xx_HAL_Driver/Src/stm32g0xx_ll_usb.c **** 
 776:Drivers/STM32G0xx_HAL_Driver/Src/stm32g0xx_ll_usb.c ****   /* clear interrupt status register */
 777:Drivers/STM32G0xx_HAL_Driver/Src/stm32g0xx_ll_usb.c ****   USBx->ISTR = 0U;
 2352              		.loc 1 777 3 is_stmt 1 view .LVU684
 2353              		.loc 1 777 14 is_stmt 0 view .LVU685
 2354 0004 0023     		movs	r3, #0
 2355 0006 4364     		str	r3, [r0, #68]
 778:Drivers/STM32G0xx_HAL_Driver/Src/stm32g0xx_ll_usb.c **** 
 779:Drivers/STM32G0xx_HAL_Driver/Src/stm32g0xx_ll_usb.c ****   /* switch-off device */
 780:Drivers/STM32G0xx_HAL_Driver/Src/stm32g0xx_ll_usb.c ****   USBx->CNTR = (USB_CNTR_USBRST | USB_CNTR_PDWN);
 2356              		.loc 1 780 3 is_stmt 1 view .LVU686
 2357              		.loc 1 780 14 is_stmt 0 view .LVU687
 2358 0008 0333     		adds	r3, r3, #3
 2359 000a 0364     		str	r3, [r0, #64]
 781:Drivers/STM32G0xx_HAL_Driver/Src/stm32g0xx_ll_usb.c **** 
 782:Drivers/STM32G0xx_HAL_Driver/Src/stm32g0xx_ll_usb.c ****   return HAL_OK;
 2360              		.loc 1 782 3 is_stmt 1 view .LVU688
 783:Drivers/STM32G0xx_HAL_Driver/Src/stm32g0xx_ll_usb.c **** }
 2361              		.loc 1 783 1 is_stmt 0 view .LVU689
 2362 000c 0020     		movs	r0, #0
 2363              	.LVL221:
 2364              		.loc 1 783 1 view .LVU690
ARM GAS  /tmp/cc3M98Wq.s 			page 60


 2365              		@ sp needed
 2366 000e 7047     		bx	lr
 2367              		.cfi_endproc
 2368              	.LFE380:
 2370              		.section	.text.USB_SetDevAddress,"ax",%progbits
 2371              		.align	1
 2372              		.global	USB_SetDevAddress
 2373              		.syntax unified
 2374              		.code	16
 2375              		.thumb_func
 2377              	USB_SetDevAddress:
 2378              	.LVL222:
 2379              	.LFB381:
 784:Drivers/STM32G0xx_HAL_Driver/Src/stm32g0xx_ll_usb.c **** 
 785:Drivers/STM32G0xx_HAL_Driver/Src/stm32g0xx_ll_usb.c **** /**
 786:Drivers/STM32G0xx_HAL_Driver/Src/stm32g0xx_ll_usb.c ****   * @brief  USB_SetDevAddress Stop the usb device mode
 787:Drivers/STM32G0xx_HAL_Driver/Src/stm32g0xx_ll_usb.c ****   * @param  USBx Selected device
 788:Drivers/STM32G0xx_HAL_Driver/Src/stm32g0xx_ll_usb.c ****   * @param  address new device address to be assigned
 789:Drivers/STM32G0xx_HAL_Driver/Src/stm32g0xx_ll_usb.c ****   *          This parameter can be a value from 0 to 255
 790:Drivers/STM32G0xx_HAL_Driver/Src/stm32g0xx_ll_usb.c ****   * @retval HAL status
 791:Drivers/STM32G0xx_HAL_Driver/Src/stm32g0xx_ll_usb.c ****   */
 792:Drivers/STM32G0xx_HAL_Driver/Src/stm32g0xx_ll_usb.c **** HAL_StatusTypeDef  USB_SetDevAddress(USB_DRD_TypeDef *USBx, uint8_t address)
 793:Drivers/STM32G0xx_HAL_Driver/Src/stm32g0xx_ll_usb.c **** {
 2380              		.loc 1 793 1 is_stmt 1 view -0
 2381              		.cfi_startproc
 2382              		@ args = 0, pretend = 0, frame = 0
 2383              		@ frame_needed = 0, uses_anonymous_args = 0
 2384              		@ link register save eliminated.
 794:Drivers/STM32G0xx_HAL_Driver/Src/stm32g0xx_ll_usb.c ****   if (address == 0U)
 2385              		.loc 1 794 3 view .LVU692
 2386              		.loc 1 794 6 is_stmt 0 view .LVU693
 2387 0000 0029     		cmp	r1, #0
 2388 0002 01D1     		bne	.L122
 795:Drivers/STM32G0xx_HAL_Driver/Src/stm32g0xx_ll_usb.c ****   {
 796:Drivers/STM32G0xx_HAL_Driver/Src/stm32g0xx_ll_usb.c ****     /* set device address and enable function */
 797:Drivers/STM32G0xx_HAL_Driver/Src/stm32g0xx_ll_usb.c ****     USBx->DADDR = USB_DADDR_EF;
 2389              		.loc 1 797 5 is_stmt 1 view .LVU694
 2390              		.loc 1 797 17 is_stmt 0 view .LVU695
 2391 0004 8023     		movs	r3, #128
 2392 0006 C364     		str	r3, [r0, #76]
 2393              	.L122:
 798:Drivers/STM32G0xx_HAL_Driver/Src/stm32g0xx_ll_usb.c ****   }
 799:Drivers/STM32G0xx_HAL_Driver/Src/stm32g0xx_ll_usb.c **** 
 800:Drivers/STM32G0xx_HAL_Driver/Src/stm32g0xx_ll_usb.c ****   return HAL_OK;
 2394              		.loc 1 800 3 is_stmt 1 view .LVU696
 801:Drivers/STM32G0xx_HAL_Driver/Src/stm32g0xx_ll_usb.c **** }
 2395              		.loc 1 801 1 is_stmt 0 view .LVU697
 2396 0008 0020     		movs	r0, #0
 2397              	.LVL223:
 2398              		.loc 1 801 1 view .LVU698
 2399              		@ sp needed
 2400 000a 7047     		bx	lr
 2401              		.cfi_endproc
 2402              	.LFE381:
 2404              		.section	.text.USB_DevConnect,"ax",%progbits
 2405              		.align	1
 2406              		.global	USB_DevConnect
ARM GAS  /tmp/cc3M98Wq.s 			page 61


 2407              		.syntax unified
 2408              		.code	16
 2409              		.thumb_func
 2411              	USB_DevConnect:
 2412              	.LVL224:
 2413              	.LFB382:
 802:Drivers/STM32G0xx_HAL_Driver/Src/stm32g0xx_ll_usb.c **** 
 803:Drivers/STM32G0xx_HAL_Driver/Src/stm32g0xx_ll_usb.c **** /**
 804:Drivers/STM32G0xx_HAL_Driver/Src/stm32g0xx_ll_usb.c ****   * @brief  USB_DevConnect Connect the USB device by enabling the pull-up/pull-down
 805:Drivers/STM32G0xx_HAL_Driver/Src/stm32g0xx_ll_usb.c ****   * @param  USBx Selected device
 806:Drivers/STM32G0xx_HAL_Driver/Src/stm32g0xx_ll_usb.c ****   * @retval HAL status
 807:Drivers/STM32G0xx_HAL_Driver/Src/stm32g0xx_ll_usb.c ****   */
 808:Drivers/STM32G0xx_HAL_Driver/Src/stm32g0xx_ll_usb.c **** HAL_StatusTypeDef  USB_DevConnect(USB_DRD_TypeDef *USBx)
 809:Drivers/STM32G0xx_HAL_Driver/Src/stm32g0xx_ll_usb.c **** {
 2414              		.loc 1 809 1 is_stmt 1 view -0
 2415              		.cfi_startproc
 2416              		@ args = 0, pretend = 0, frame = 0
 2417              		@ frame_needed = 0, uses_anonymous_args = 0
 2418              		@ link register save eliminated.
 810:Drivers/STM32G0xx_HAL_Driver/Src/stm32g0xx_ll_usb.c ****   /* Enabling DP Pull-UP bit to Connect internal PU resistor on USB DP line */
 811:Drivers/STM32G0xx_HAL_Driver/Src/stm32g0xx_ll_usb.c ****   USBx->BCDR |= USB_BCDR_DPPU;
 2419              		.loc 1 811 3 view .LVU700
 2420              		.loc 1 811 7 is_stmt 0 view .LVU701
 2421 0000 826D     		ldr	r2, [r0, #88]
 2422              		.loc 1 811 14 view .LVU702
 2423 0002 8023     		movs	r3, #128
 2424 0004 1B02     		lsls	r3, r3, #8
 2425 0006 1343     		orrs	r3, r2
 2426 0008 8365     		str	r3, [r0, #88]
 812:Drivers/STM32G0xx_HAL_Driver/Src/stm32g0xx_ll_usb.c **** 
 813:Drivers/STM32G0xx_HAL_Driver/Src/stm32g0xx_ll_usb.c ****   return HAL_OK;
 2427              		.loc 1 813 3 is_stmt 1 view .LVU703
 814:Drivers/STM32G0xx_HAL_Driver/Src/stm32g0xx_ll_usb.c **** }
 2428              		.loc 1 814 1 is_stmt 0 view .LVU704
 2429 000a 0020     		movs	r0, #0
 2430              	.LVL225:
 2431              		.loc 1 814 1 view .LVU705
 2432              		@ sp needed
 2433 000c 7047     		bx	lr
 2434              		.cfi_endproc
 2435              	.LFE382:
 2437              		.section	.text.USB_DevDisconnect,"ax",%progbits
 2438              		.align	1
 2439              		.global	USB_DevDisconnect
 2440              		.syntax unified
 2441              		.code	16
 2442              		.thumb_func
 2444              	USB_DevDisconnect:
 2445              	.LVL226:
 2446              	.LFB383:
 815:Drivers/STM32G0xx_HAL_Driver/Src/stm32g0xx_ll_usb.c **** 
 816:Drivers/STM32G0xx_HAL_Driver/Src/stm32g0xx_ll_usb.c **** /**
 817:Drivers/STM32G0xx_HAL_Driver/Src/stm32g0xx_ll_usb.c ****   * @brief  USB_DevDisconnect Disconnect the USB device by disabling the pull-up/pull-down
 818:Drivers/STM32G0xx_HAL_Driver/Src/stm32g0xx_ll_usb.c ****   * @param  USBx Selected device
 819:Drivers/STM32G0xx_HAL_Driver/Src/stm32g0xx_ll_usb.c ****   * @retval HAL status
 820:Drivers/STM32G0xx_HAL_Driver/Src/stm32g0xx_ll_usb.c ****   */
 821:Drivers/STM32G0xx_HAL_Driver/Src/stm32g0xx_ll_usb.c **** HAL_StatusTypeDef  USB_DevDisconnect(USB_DRD_TypeDef *USBx)
ARM GAS  /tmp/cc3M98Wq.s 			page 62


 822:Drivers/STM32G0xx_HAL_Driver/Src/stm32g0xx_ll_usb.c **** {
 2447              		.loc 1 822 1 is_stmt 1 view -0
 2448              		.cfi_startproc
 2449              		@ args = 0, pretend = 0, frame = 0
 2450              		@ frame_needed = 0, uses_anonymous_args = 0
 2451              		@ link register save eliminated.
 823:Drivers/STM32G0xx_HAL_Driver/Src/stm32g0xx_ll_usb.c ****   /* Disable DP Pull-Up bit to disconnect the Internal PU resistor on USB DP line */
 824:Drivers/STM32G0xx_HAL_Driver/Src/stm32g0xx_ll_usb.c ****   USBx->BCDR &= ~(USB_BCDR_DPPU);
 2452              		.loc 1 824 3 view .LVU707
 2453              		.loc 1 824 7 is_stmt 0 view .LVU708
 2454 0000 836D     		ldr	r3, [r0, #88]
 2455              		.loc 1 824 14 view .LVU709
 2456 0002 024A     		ldr	r2, .L125
 2457 0004 1340     		ands	r3, r2
 2458 0006 8365     		str	r3, [r0, #88]
 825:Drivers/STM32G0xx_HAL_Driver/Src/stm32g0xx_ll_usb.c **** 
 826:Drivers/STM32G0xx_HAL_Driver/Src/stm32g0xx_ll_usb.c ****   return HAL_OK;
 2459              		.loc 1 826 3 is_stmt 1 view .LVU710
 827:Drivers/STM32G0xx_HAL_Driver/Src/stm32g0xx_ll_usb.c **** }
 2460              		.loc 1 827 1 is_stmt 0 view .LVU711
 2461 0008 0020     		movs	r0, #0
 2462              	.LVL227:
 2463              		.loc 1 827 1 view .LVU712
 2464              		@ sp needed
 2465 000a 7047     		bx	lr
 2466              	.L126:
 2467              		.align	2
 2468              	.L125:
 2469 000c FF7FFFFF 		.word	-32769
 2470              		.cfi_endproc
 2471              	.LFE383:
 2473              		.section	.text.USB_ReadInterrupts,"ax",%progbits
 2474              		.align	1
 2475              		.global	USB_ReadInterrupts
 2476              		.syntax unified
 2477              		.code	16
 2478              		.thumb_func
 2480              	USB_ReadInterrupts:
 2481              	.LVL228:
 2482              	.LFB384:
 828:Drivers/STM32G0xx_HAL_Driver/Src/stm32g0xx_ll_usb.c **** 
 829:Drivers/STM32G0xx_HAL_Driver/Src/stm32g0xx_ll_usb.c **** /**
 830:Drivers/STM32G0xx_HAL_Driver/Src/stm32g0xx_ll_usb.c ****   * @brief  USB_ReadInterrupts return the global USB interrupt status
 831:Drivers/STM32G0xx_HAL_Driver/Src/stm32g0xx_ll_usb.c ****   * @param  USBx Selected device
 832:Drivers/STM32G0xx_HAL_Driver/Src/stm32g0xx_ll_usb.c ****   * @retval USB Global Interrupt status
 833:Drivers/STM32G0xx_HAL_Driver/Src/stm32g0xx_ll_usb.c ****   */
 834:Drivers/STM32G0xx_HAL_Driver/Src/stm32g0xx_ll_usb.c **** uint32_t USB_ReadInterrupts(USB_DRD_TypeDef const *USBx)
 835:Drivers/STM32G0xx_HAL_Driver/Src/stm32g0xx_ll_usb.c **** {
 2483              		.loc 1 835 1 is_stmt 1 view -0
 2484              		.cfi_startproc
 2485              		@ args = 0, pretend = 0, frame = 0
 2486              		@ frame_needed = 0, uses_anonymous_args = 0
 2487              		@ link register save eliminated.
 836:Drivers/STM32G0xx_HAL_Driver/Src/stm32g0xx_ll_usb.c ****   uint32_t tmpreg;
 2488              		.loc 1 836 3 view .LVU714
 837:Drivers/STM32G0xx_HAL_Driver/Src/stm32g0xx_ll_usb.c **** 
 838:Drivers/STM32G0xx_HAL_Driver/Src/stm32g0xx_ll_usb.c ****   tmpreg = USBx->ISTR;
ARM GAS  /tmp/cc3M98Wq.s 			page 63


 2489              		.loc 1 838 3 view .LVU715
 2490              		.loc 1 838 10 is_stmt 0 view .LVU716
 2491 0000 406C     		ldr	r0, [r0, #68]
 2492              	.LVL229:
 839:Drivers/STM32G0xx_HAL_Driver/Src/stm32g0xx_ll_usb.c ****   return tmpreg;
 2493              		.loc 1 839 3 is_stmt 1 view .LVU717
 840:Drivers/STM32G0xx_HAL_Driver/Src/stm32g0xx_ll_usb.c **** }
 2494              		.loc 1 840 1 is_stmt 0 view .LVU718
 2495              		@ sp needed
 2496 0002 7047     		bx	lr
 2497              		.cfi_endproc
 2498              	.LFE384:
 2500              		.section	.text.USB_ActivateRemoteWakeup,"ax",%progbits
 2501              		.align	1
 2502              		.global	USB_ActivateRemoteWakeup
 2503              		.syntax unified
 2504              		.code	16
 2505              		.thumb_func
 2507              	USB_ActivateRemoteWakeup:
 2508              	.LVL230:
 2509              	.LFB385:
 841:Drivers/STM32G0xx_HAL_Driver/Src/stm32g0xx_ll_usb.c **** 
 842:Drivers/STM32G0xx_HAL_Driver/Src/stm32g0xx_ll_usb.c **** /**
 843:Drivers/STM32G0xx_HAL_Driver/Src/stm32g0xx_ll_usb.c ****   * @brief  USB_ActivateRemoteWakeup : active remote wakeup signalling
 844:Drivers/STM32G0xx_HAL_Driver/Src/stm32g0xx_ll_usb.c ****   * @param  USBx Selected device
 845:Drivers/STM32G0xx_HAL_Driver/Src/stm32g0xx_ll_usb.c ****   * @retval HAL status
 846:Drivers/STM32G0xx_HAL_Driver/Src/stm32g0xx_ll_usb.c ****   */
 847:Drivers/STM32G0xx_HAL_Driver/Src/stm32g0xx_ll_usb.c **** HAL_StatusTypeDef USB_ActivateRemoteWakeup(USB_DRD_TypeDef *USBx)
 848:Drivers/STM32G0xx_HAL_Driver/Src/stm32g0xx_ll_usb.c **** {
 2510              		.loc 1 848 1 is_stmt 1 view -0
 2511              		.cfi_startproc
 2512              		@ args = 0, pretend = 0, frame = 0
 2513              		@ frame_needed = 0, uses_anonymous_args = 0
 2514              		@ link register save eliminated.
 849:Drivers/STM32G0xx_HAL_Driver/Src/stm32g0xx_ll_usb.c ****   USBx->CNTR |= USB_CNTR_L2RES;
 2515              		.loc 1 849 3 view .LVU720
 2516              		.loc 1 849 7 is_stmt 0 view .LVU721
 2517 0000 036C     		ldr	r3, [r0, #64]
 2518              		.loc 1 849 14 view .LVU722
 2519 0002 1022     		movs	r2, #16
 2520 0004 1343     		orrs	r3, r2
 2521 0006 0364     		str	r3, [r0, #64]
 850:Drivers/STM32G0xx_HAL_Driver/Src/stm32g0xx_ll_usb.c **** 
 851:Drivers/STM32G0xx_HAL_Driver/Src/stm32g0xx_ll_usb.c ****   return HAL_OK;
 2522              		.loc 1 851 3 is_stmt 1 view .LVU723
 852:Drivers/STM32G0xx_HAL_Driver/Src/stm32g0xx_ll_usb.c **** }
 2523              		.loc 1 852 1 is_stmt 0 view .LVU724
 2524 0008 0020     		movs	r0, #0
 2525              	.LVL231:
 2526              		.loc 1 852 1 view .LVU725
 2527              		@ sp needed
 2528 000a 7047     		bx	lr
 2529              		.cfi_endproc
 2530              	.LFE385:
 2532              		.section	.text.USB_DeActivateRemoteWakeup,"ax",%progbits
 2533              		.align	1
 2534              		.global	USB_DeActivateRemoteWakeup
ARM GAS  /tmp/cc3M98Wq.s 			page 64


 2535              		.syntax unified
 2536              		.code	16
 2537              		.thumb_func
 2539              	USB_DeActivateRemoteWakeup:
 2540              	.LVL232:
 2541              	.LFB386:
 853:Drivers/STM32G0xx_HAL_Driver/Src/stm32g0xx_ll_usb.c **** 
 854:Drivers/STM32G0xx_HAL_Driver/Src/stm32g0xx_ll_usb.c **** /**
 855:Drivers/STM32G0xx_HAL_Driver/Src/stm32g0xx_ll_usb.c ****   * @brief  USB_DeActivateRemoteWakeup de-active remote wakeup signalling
 856:Drivers/STM32G0xx_HAL_Driver/Src/stm32g0xx_ll_usb.c ****   * @param  USBx Selected device
 857:Drivers/STM32G0xx_HAL_Driver/Src/stm32g0xx_ll_usb.c ****   * @retval HAL status
 858:Drivers/STM32G0xx_HAL_Driver/Src/stm32g0xx_ll_usb.c ****   */
 859:Drivers/STM32G0xx_HAL_Driver/Src/stm32g0xx_ll_usb.c **** HAL_StatusTypeDef USB_DeActivateRemoteWakeup(USB_DRD_TypeDef *USBx)
 860:Drivers/STM32G0xx_HAL_Driver/Src/stm32g0xx_ll_usb.c **** {
 2542              		.loc 1 860 1 is_stmt 1 view -0
 2543              		.cfi_startproc
 2544              		@ args = 0, pretend = 0, frame = 0
 2545              		@ frame_needed = 0, uses_anonymous_args = 0
 2546              		@ link register save eliminated.
 861:Drivers/STM32G0xx_HAL_Driver/Src/stm32g0xx_ll_usb.c ****   USBx->CNTR &= ~USB_CNTR_L2RES;
 2547              		.loc 1 861 3 view .LVU727
 2548              		.loc 1 861 7 is_stmt 0 view .LVU728
 2549 0000 036C     		ldr	r3, [r0, #64]
 2550              		.loc 1 861 14 view .LVU729
 2551 0002 1022     		movs	r2, #16
 2552 0004 9343     		bics	r3, r2
 2553 0006 0364     		str	r3, [r0, #64]
 862:Drivers/STM32G0xx_HAL_Driver/Src/stm32g0xx_ll_usb.c **** 
 863:Drivers/STM32G0xx_HAL_Driver/Src/stm32g0xx_ll_usb.c ****   return HAL_OK;
 2554              		.loc 1 863 3 is_stmt 1 view .LVU730
 864:Drivers/STM32G0xx_HAL_Driver/Src/stm32g0xx_ll_usb.c **** }
 2555              		.loc 1 864 1 is_stmt 0 view .LVU731
 2556 0008 0020     		movs	r0, #0
 2557              	.LVL233:
 2558              		.loc 1 864 1 view .LVU732
 2559              		@ sp needed
 2560 000a 7047     		bx	lr
 2561              		.cfi_endproc
 2562              	.LFE386:
 2564              		.section	.text.USB_WritePMA,"ax",%progbits
 2565              		.align	1
 2566              		.global	USB_WritePMA
 2567              		.syntax unified
 2568              		.code	16
 2569              		.thumb_func
 2571              	USB_WritePMA:
 2572              	.LVL234:
 2573              	.LFB387:
 865:Drivers/STM32G0xx_HAL_Driver/Src/stm32g0xx_ll_usb.c **** 
 866:Drivers/STM32G0xx_HAL_Driver/Src/stm32g0xx_ll_usb.c **** /**
 867:Drivers/STM32G0xx_HAL_Driver/Src/stm32g0xx_ll_usb.c ****   * @brief Copy a buffer from user memory area to packet memory area (PMA)
 868:Drivers/STM32G0xx_HAL_Driver/Src/stm32g0xx_ll_usb.c ****   * @param   USBx USB peripheral instance register address.
 869:Drivers/STM32G0xx_HAL_Driver/Src/stm32g0xx_ll_usb.c ****   * @param   pbUsrBuf pointer to user memory area.
 870:Drivers/STM32G0xx_HAL_Driver/Src/stm32g0xx_ll_usb.c ****   * @param   wPMABufAddr address into PMA.
 871:Drivers/STM32G0xx_HAL_Driver/Src/stm32g0xx_ll_usb.c ****   * @param   wNBytes no. of bytes to be copied.
 872:Drivers/STM32G0xx_HAL_Driver/Src/stm32g0xx_ll_usb.c ****   * @retval None
 873:Drivers/STM32G0xx_HAL_Driver/Src/stm32g0xx_ll_usb.c ****   */
ARM GAS  /tmp/cc3M98Wq.s 			page 65


 874:Drivers/STM32G0xx_HAL_Driver/Src/stm32g0xx_ll_usb.c **** void USB_WritePMA(USB_DRD_TypeDef const *USBx, uint8_t *pbUsrBuf, uint16_t wPMABufAddr, uint16_t wN
 875:Drivers/STM32G0xx_HAL_Driver/Src/stm32g0xx_ll_usb.c **** {
 2574              		.loc 1 875 1 is_stmt 1 view -0
 2575              		.cfi_startproc
 2576              		@ args = 0, pretend = 0, frame = 0
 2577              		@ frame_needed = 0, uses_anonymous_args = 0
 2578              		.loc 1 875 1 is_stmt 0 view .LVU734
 2579 0000 70B5     		push	{r4, r5, r6, lr}
 2580              	.LCFI7:
 2581              		.cfi_def_cfa_offset 16
 2582              		.cfi_offset 4, -16
 2583              		.cfi_offset 5, -12
 2584              		.cfi_offset 6, -8
 2585              		.cfi_offset 14, -4
 876:Drivers/STM32G0xx_HAL_Driver/Src/stm32g0xx_ll_usb.c ****   UNUSED(USBx);
 2586              		.loc 1 876 3 is_stmt 1 view .LVU735
 877:Drivers/STM32G0xx_HAL_Driver/Src/stm32g0xx_ll_usb.c ****   uint32_t WrVal;
 2587              		.loc 1 877 3 view .LVU736
 878:Drivers/STM32G0xx_HAL_Driver/Src/stm32g0xx_ll_usb.c ****   uint32_t count;
 2588              		.loc 1 878 3 view .LVU737
 879:Drivers/STM32G0xx_HAL_Driver/Src/stm32g0xx_ll_usb.c ****   __IO uint32_t *pdwVal;
 2589              		.loc 1 879 3 view .LVU738
 880:Drivers/STM32G0xx_HAL_Driver/Src/stm32g0xx_ll_usb.c ****   uint32_t NbWords = ((uint32_t)wNBytes + 3U) >> 2U;
 2590              		.loc 1 880 3 view .LVU739
 2591              		.loc 1 880 41 is_stmt 0 view .LVU740
 2592 0002 DC1C     		adds	r4, r3, #3
 2593              		.loc 1 880 12 view .LVU741
 2594 0004 A408     		lsrs	r4, r4, #2
 2595              	.LVL235:
 881:Drivers/STM32G0xx_HAL_Driver/Src/stm32g0xx_ll_usb.c ****   /* Due to the PMA access 32bit only so the last non word data should be processed alone */
 882:Drivers/STM32G0xx_HAL_Driver/Src/stm32g0xx_ll_usb.c ****   uint16_t remaining_bytes = wNBytes % 4U;
 2596              		.loc 1 882 3 is_stmt 1 view .LVU742
 2597              		.loc 1 882 12 is_stmt 0 view .LVU743
 2598 0006 0320     		movs	r0, #3
 2599              	.LVL236:
 2600              		.loc 1 882 12 view .LVU744
 2601 0008 0500     		movs	r5, r0
 2602 000a 1D40     		ands	r5, r3
 2603              	.LVL237:
 883:Drivers/STM32G0xx_HAL_Driver/Src/stm32g0xx_ll_usb.c ****   uint8_t *pBuf = pbUsrBuf;
 2604              		.loc 1 883 3 is_stmt 1 view .LVU745
 884:Drivers/STM32G0xx_HAL_Driver/Src/stm32g0xx_ll_usb.c **** 
 885:Drivers/STM32G0xx_HAL_Driver/Src/stm32g0xx_ll_usb.c ****   /* Check if there is a remaining byte */
 886:Drivers/STM32G0xx_HAL_Driver/Src/stm32g0xx_ll_usb.c ****   if (remaining_bytes != 0U)
 2605              		.loc 1 886 3 view .LVU746
 2606              		.loc 1 886 6 is_stmt 0 view .LVU747
 2607 000c 1842     		tst	r0, r3
 2608 000e 00D0     		beq	.L131
 887:Drivers/STM32G0xx_HAL_Driver/Src/stm32g0xx_ll_usb.c ****   {
 888:Drivers/STM32G0xx_HAL_Driver/Src/stm32g0xx_ll_usb.c ****     NbWords--;
 2609              		.loc 1 888 5 is_stmt 1 view .LVU748
 2610              		.loc 1 888 12 is_stmt 0 view .LVU749
 2611 0010 013C     		subs	r4, r4, #1
 2612              	.LVL238:
 2613              	.L131:
 889:Drivers/STM32G0xx_HAL_Driver/Src/stm32g0xx_ll_usb.c ****   }
 890:Drivers/STM32G0xx_HAL_Driver/Src/stm32g0xx_ll_usb.c **** 
ARM GAS  /tmp/cc3M98Wq.s 			page 66


 891:Drivers/STM32G0xx_HAL_Driver/Src/stm32g0xx_ll_usb.c ****   /* Get the PMA Buffer pointer */
 892:Drivers/STM32G0xx_HAL_Driver/Src/stm32g0xx_ll_usb.c ****   pdwVal = (__IO uint32_t *)(USB_DRD_PMAADDR + (uint32_t)wPMABufAddr);
 2614              		.loc 1 892 3 is_stmt 1 view .LVU750
 2615              		.loc 1 892 46 is_stmt 0 view .LVU751
 2616 0012 114B     		ldr	r3, .L136
 2617              	.LVL239:
 2618              		.loc 1 892 46 view .LVU752
 2619 0014 9C46     		mov	ip, r3
 2620 0016 6244     		add	r2, r2, ip
 2621              	.LVL240:
 893:Drivers/STM32G0xx_HAL_Driver/Src/stm32g0xx_ll_usb.c **** 
 894:Drivers/STM32G0xx_HAL_Driver/Src/stm32g0xx_ll_usb.c ****   /* Write the Calculated Word into the PMA related Buffer */
 895:Drivers/STM32G0xx_HAL_Driver/Src/stm32g0xx_ll_usb.c ****   for (count = NbWords; count != 0U; count--)
 2622              		.loc 1 895 3 is_stmt 1 view .LVU753
 2623              		.loc 1 895 3 is_stmt 0 view .LVU754
 2624 0018 0CE0     		b	.L132
 2625              	.LVL241:
 2626              	.L133:
 896:Drivers/STM32G0xx_HAL_Driver/Src/stm32g0xx_ll_usb.c ****   {
 897:Drivers/STM32G0xx_HAL_Driver/Src/stm32g0xx_ll_usb.c ****     *pdwVal = __UNALIGNED_UINT32_READ(pBuf);
 2627              		.loc 1 897 5 is_stmt 1 view .LVU755
 2628              		.loc 1 897 15 is_stmt 0 view .LVU756
 2629 001a 0878     		ldrb	r0, [r1]
 2630 001c 4B78     		ldrb	r3, [r1, #1]
 2631 001e 1B02     		lsls	r3, r3, #8
 2632 0020 0343     		orrs	r3, r0
 2633 0022 8878     		ldrb	r0, [r1, #2]
 2634 0024 0004     		lsls	r0, r0, #16
 2635 0026 1843     		orrs	r0, r3
 2636 0028 CB78     		ldrb	r3, [r1, #3]
 2637 002a 1B06     		lsls	r3, r3, #24
 2638 002c 0343     		orrs	r3, r0
 2639              		.loc 1 897 13 view .LVU757
 2640 002e 08C2     		stmia	r2!, {r3}
 2641              	.LVL242:
 898:Drivers/STM32G0xx_HAL_Driver/Src/stm32g0xx_ll_usb.c ****     pdwVal++;
 2642              		.loc 1 898 5 is_stmt 1 view .LVU758
 899:Drivers/STM32G0xx_HAL_Driver/Src/stm32g0xx_ll_usb.c ****     /* Increment pBuf 4 Time as Word Increment */
 900:Drivers/STM32G0xx_HAL_Driver/Src/stm32g0xx_ll_usb.c ****     pBuf++;
 2643              		.loc 1 900 5 view .LVU759
 901:Drivers/STM32G0xx_HAL_Driver/Src/stm32g0xx_ll_usb.c ****     pBuf++;
 2644              		.loc 1 901 5 view .LVU760
 902:Drivers/STM32G0xx_HAL_Driver/Src/stm32g0xx_ll_usb.c ****     pBuf++;
 2645              		.loc 1 902 5 view .LVU761
 903:Drivers/STM32G0xx_HAL_Driver/Src/stm32g0xx_ll_usb.c ****     pBuf++;
 2646              		.loc 1 903 5 view .LVU762
 2647              		.loc 1 903 9 is_stmt 0 view .LVU763
 2648 0030 0431     		adds	r1, r1, #4
 2649              	.LVL243:
 895:Drivers/STM32G0xx_HAL_Driver/Src/stm32g0xx_ll_usb.c ****   {
 2650              		.loc 1 895 43 is_stmt 1 discriminator 3 view .LVU764
 2651 0032 013C     		subs	r4, r4, #1
 2652              	.LVL244:
 2653              	.L132:
 895:Drivers/STM32G0xx_HAL_Driver/Src/stm32g0xx_ll_usb.c ****   {
 2654              		.loc 1 895 31 discriminator 1 view .LVU765
 2655 0034 002C     		cmp	r4, #0
ARM GAS  /tmp/cc3M98Wq.s 			page 67


 2656 0036 F0D1     		bne	.L133
 904:Drivers/STM32G0xx_HAL_Driver/Src/stm32g0xx_ll_usb.c ****   }
 905:Drivers/STM32G0xx_HAL_Driver/Src/stm32g0xx_ll_usb.c **** 
 906:Drivers/STM32G0xx_HAL_Driver/Src/stm32g0xx_ll_usb.c ****   /* When Number of data is not word aligned, write the remaining Byte */
 907:Drivers/STM32G0xx_HAL_Driver/Src/stm32g0xx_ll_usb.c ****   if (remaining_bytes != 0U)
 2657              		.loc 1 907 3 view .LVU766
 2658              		.loc 1 907 6 is_stmt 0 view .LVU767
 2659 0038 002D     		cmp	r5, #0
 2660 003a 0BD0     		beq	.L130
 2661 003c 2000     		movs	r0, r4
 2662              	.LVL245:
 2663              	.L135:
 908:Drivers/STM32G0xx_HAL_Driver/Src/stm32g0xx_ll_usb.c ****   {
 909:Drivers/STM32G0xx_HAL_Driver/Src/stm32g0xx_ll_usb.c ****     WrVal = 0U;
 910:Drivers/STM32G0xx_HAL_Driver/Src/stm32g0xx_ll_usb.c **** 
 911:Drivers/STM32G0xx_HAL_Driver/Src/stm32g0xx_ll_usb.c ****     do
 2664              		.loc 1 911 5 is_stmt 1 view .LVU768
 912:Drivers/STM32G0xx_HAL_Driver/Src/stm32g0xx_ll_usb.c ****     {
 913:Drivers/STM32G0xx_HAL_Driver/Src/stm32g0xx_ll_usb.c ****       WrVal |= (uint32_t)(*(uint8_t *)pBuf) << (8U * count);
 2665              		.loc 1 913 7 view .LVU769
 2666              		.loc 1 913 27 is_stmt 0 view .LVU770
 2667 003e 0B78     		ldrb	r3, [r1]
 2668              		.loc 1 913 52 view .LVU771
 2669 0040 C600     		lsls	r6, r0, #3
 2670              		.loc 1 913 45 view .LVU772
 2671 0042 B340     		lsls	r3, r3, r6
 2672              		.loc 1 913 13 view .LVU773
 2673 0044 1C43     		orrs	r4, r3
 2674              	.LVL246:
 914:Drivers/STM32G0xx_HAL_Driver/Src/stm32g0xx_ll_usb.c ****       count++;
 2675              		.loc 1 914 7 is_stmt 1 view .LVU774
 2676              		.loc 1 914 12 is_stmt 0 view .LVU775
 2677 0046 0130     		adds	r0, r0, #1
 2678              	.LVL247:
 915:Drivers/STM32G0xx_HAL_Driver/Src/stm32g0xx_ll_usb.c ****       pBuf++;
 2679              		.loc 1 915 7 is_stmt 1 view .LVU776
 2680              		.loc 1 915 11 is_stmt 0 view .LVU777
 2681 0048 0131     		adds	r1, r1, #1
 2682              	.LVL248:
 916:Drivers/STM32G0xx_HAL_Driver/Src/stm32g0xx_ll_usb.c ****       remaining_bytes--;
 2683              		.loc 1 916 7 is_stmt 1 view .LVU778
 2684              		.loc 1 916 22 is_stmt 0 view .LVU779
 2685 004a 013D     		subs	r5, r5, #1
 2686              	.LVL249:
 2687              		.loc 1 916 22 view .LVU780
 2688 004c ADB2     		uxth	r5, r5
 2689              	.LVL250:
 917:Drivers/STM32G0xx_HAL_Driver/Src/stm32g0xx_ll_usb.c ****     } while (remaining_bytes != 0U);
 2690              		.loc 1 917 30 is_stmt 1 discriminator 1 view .LVU781
 2691 004e 002D     		cmp	r5, #0
 2692 0050 F5D1     		bne	.L135
 918:Drivers/STM32G0xx_HAL_Driver/Src/stm32g0xx_ll_usb.c **** 
 919:Drivers/STM32G0xx_HAL_Driver/Src/stm32g0xx_ll_usb.c ****     *pdwVal = WrVal;
 2693              		.loc 1 919 5 view .LVU782
 2694              		.loc 1 919 13 is_stmt 0 view .LVU783
 2695 0052 1460     		str	r4, [r2]
 2696              	.LVL251:
ARM GAS  /tmp/cc3M98Wq.s 			page 68


 2697              	.L130:
 920:Drivers/STM32G0xx_HAL_Driver/Src/stm32g0xx_ll_usb.c ****   }
 921:Drivers/STM32G0xx_HAL_Driver/Src/stm32g0xx_ll_usb.c **** }
 2698              		.loc 1 921 1 view .LVU784
 2699              		@ sp needed
 2700              	.LVL252:
 2701              		.loc 1 921 1 view .LVU785
 2702 0054 70BD     		pop	{r4, r5, r6, pc}
 2703              	.L137:
 2704 0056 C046     		.align	2
 2705              	.L136:
 2706 0058 00980040 		.word	1073780736
 2707              		.cfi_endproc
 2708              	.LFE387:
 2710              		.section	.text.USB_EPStartXfer,"ax",%progbits
 2711              		.align	1
 2712              		.global	USB_EPStartXfer
 2713              		.syntax unified
 2714              		.code	16
 2715              		.thumb_func
 2717              	USB_EPStartXfer:
 2718              	.LVL253:
 2719              	.LFB376:
 464:Drivers/STM32G0xx_HAL_Driver/Src/stm32g0xx_ll_usb.c ****   uint32_t len;
 2720              		.loc 1 464 1 is_stmt 1 view -0
 2721              		.cfi_startproc
 2722              		@ args = 0, pretend = 0, frame = 0
 2723              		@ frame_needed = 0, uses_anonymous_args = 0
 464:Drivers/STM32G0xx_HAL_Driver/Src/stm32g0xx_ll_usb.c ****   uint32_t len;
 2724              		.loc 1 464 1 is_stmt 0 view .LVU787
 2725 0000 70B5     		push	{r4, r5, r6, lr}
 2726              	.LCFI8:
 2727              		.cfi_def_cfa_offset 16
 2728              		.cfi_offset 4, -16
 2729              		.cfi_offset 5, -12
 2730              		.cfi_offset 6, -8
 2731              		.cfi_offset 14, -4
 2732 0002 0500     		movs	r5, r0
 2733 0004 0C00     		movs	r4, r1
 465:Drivers/STM32G0xx_HAL_Driver/Src/stm32g0xx_ll_usb.c **** #if (USE_USB_DOUBLE_BUFFER == 1U)
 2734              		.loc 1 465 3 is_stmt 1 view .LVU788
 467:Drivers/STM32G0xx_HAL_Driver/Src/stm32g0xx_ll_usb.c ****   uint16_t wEPVal;
 2735              		.loc 1 467 3 view .LVU789
 468:Drivers/STM32G0xx_HAL_Driver/Src/stm32g0xx_ll_usb.c **** #endif /* (USE_USB_DOUBLE_BUFFER == 1U) */
 2736              		.loc 1 468 3 view .LVU790
 472:Drivers/STM32G0xx_HAL_Driver/Src/stm32g0xx_ll_usb.c ****   {
 2737              		.loc 1 472 3 view .LVU791
 472:Drivers/STM32G0xx_HAL_Driver/Src/stm32g0xx_ll_usb.c ****   {
 2738              		.loc 1 472 9 is_stmt 0 view .LVU792
 2739 0006 4B78     		ldrb	r3, [r1, #1]
 472:Drivers/STM32G0xx_HAL_Driver/Src/stm32g0xx_ll_usb.c ****   {
 2740              		.loc 1 472 6 view .LVU793
 2741 0008 012B     		cmp	r3, #1
 2742 000a 15D0     		beq	.L208
 608:Drivers/STM32G0xx_HAL_Driver/Src/stm32g0xx_ll_usb.c ****     {
 2743              		.loc 1 608 5 is_stmt 1 view .LVU794
 608:Drivers/STM32G0xx_HAL_Driver/Src/stm32g0xx_ll_usb.c ****     {
ARM GAS  /tmp/cc3M98Wq.s 			page 69


 2744              		.loc 1 608 11 is_stmt 0 view .LVU795
 2745 000c 0B7B     		ldrb	r3, [r1, #12]
 608:Drivers/STM32G0xx_HAL_Driver/Src/stm32g0xx_ll_usb.c ****     {
 2746              		.loc 1 608 8 view .LVU796
 2747 000e 002B     		cmp	r3, #0
 2748 0010 00D0     		beq	.LCB2667
 2749 0012 A1E2     		b	.L188	@long jump
 2750              	.LCB2667:
 610:Drivers/STM32G0xx_HAL_Driver/Src/stm32g0xx_ll_usb.c ****       {
 2751              		.loc 1 610 7 is_stmt 1 view .LVU797
 610:Drivers/STM32G0xx_HAL_Driver/Src/stm32g0xx_ll_usb.c ****       {
 2752              		.loc 1 610 14 is_stmt 0 view .LVU798
 2753 0014 8B69     		ldr	r3, [r1, #24]
 610:Drivers/STM32G0xx_HAL_Driver/Src/stm32g0xx_ll_usb.c ****       {
 2754              		.loc 1 610 10 view .LVU799
 2755 0016 002B     		cmp	r3, #0
 2756 0018 00D0     		beq	.LCB2671
 2757 001a 7DE2     		b	.L189	@long jump
 2758              	.LCB2671:
 610:Drivers/STM32G0xx_HAL_Driver/Src/stm32g0xx_ll_usb.c ****       {
 2759              		.loc 1 610 38 discriminator 1 view .LVU800
 2760 001c CB78     		ldrb	r3, [r1, #3]
 610:Drivers/STM32G0xx_HAL_Driver/Src/stm32g0xx_ll_usb.c ****       {
 2761              		.loc 1 610 32 discriminator 1 view .LVU801
 2762 001e 002B     		cmp	r3, #0
 2763 0020 00D0     		beq	.LCB2674
 2764 0022 79E2     		b	.L189	@long jump
 2765              	.LCB2674:
 613:Drivers/STM32G0xx_HAL_Driver/Src/stm32g0xx_ll_usb.c ****       }
 2766              		.loc 1 613 9 is_stmt 1 view .LVU802
 2767              	.LBB64:
 613:Drivers/STM32G0xx_HAL_Driver/Src/stm32g0xx_ll_usb.c ****       }
 2768              		.loc 1 613 9 view .LVU803
 613:Drivers/STM32G0xx_HAL_Driver/Src/stm32g0xx_ll_usb.c ****       }
 2769              		.loc 1 613 9 view .LVU804
 2770 0024 0B78     		ldrb	r3, [r1]
 2771 0026 9B00     		lsls	r3, r3, #2
 2772 0028 C318     		adds	r3, r0, r3
 2773 002a 1968     		ldr	r1, [r3]
 2774              	.LVL254:
 613:Drivers/STM32G0xx_HAL_Driver/Src/stm32g0xx_ll_usb.c ****       }
 2775              		.loc 1 613 9 is_stmt 0 view .LVU805
 2776 002c CE4A     		ldr	r2, .L216
 2777 002e 1140     		ands	r1, r2
 2778              	.LVL255:
 613:Drivers/STM32G0xx_HAL_Driver/Src/stm32g0xx_ll_usb.c ****       }
 2779              		.loc 1 613 9 is_stmt 1 view .LVU806
 2780 0030 CE4A     		ldr	r2, .L216+4
 2781 0032 0A43     		orrs	r2, r1
 2782 0034 1A60     		str	r2, [r3]
 2783              	.LBE64:
 613:Drivers/STM32G0xx_HAL_Driver/Src/stm32g0xx_ll_usb.c ****       }
 2784              		.loc 1 613 9 view .LVU807
 2785 0036 78E2     		b	.L190
 2786              	.LVL256:
 2787              	.L208:
 475:Drivers/STM32G0xx_HAL_Driver/Src/stm32g0xx_ll_usb.c ****     {
ARM GAS  /tmp/cc3M98Wq.s 			page 70


 2788              		.loc 1 475 5 view .LVU808
 475:Drivers/STM32G0xx_HAL_Driver/Src/stm32g0xx_ll_usb.c ****     {
 2789              		.loc 1 475 11 is_stmt 0 view .LVU809
 2790 0038 8E69     		ldr	r6, [r1, #24]
 475:Drivers/STM32G0xx_HAL_Driver/Src/stm32g0xx_ll_usb.c ****     {
 2791              		.loc 1 475 26 view .LVU810
 2792 003a 0A69     		ldr	r2, [r1, #16]
 475:Drivers/STM32G0xx_HAL_Driver/Src/stm32g0xx_ll_usb.c ****     {
 2793              		.loc 1 475 8 view .LVU811
 2794 003c 9642     		cmp	r6, r2
 2795 003e 00D9     		bls	.L140
 477:Drivers/STM32G0xx_HAL_Driver/Src/stm32g0xx_ll_usb.c ****     }
 2796              		.loc 1 477 11 view .LVU812
 2797 0040 1600     		movs	r6, r2
 2798              	.L140:
 2799              	.LVL257:
 485:Drivers/STM32G0xx_HAL_Driver/Src/stm32g0xx_ll_usb.c ****     {
 2800              		.loc 1 485 5 is_stmt 1 view .LVU813
 485:Drivers/STM32G0xx_HAL_Driver/Src/stm32g0xx_ll_usb.c ****     {
 2801              		.loc 1 485 11 is_stmt 0 view .LVU814
 2802 0042 217B     		ldrb	r1, [r4, #12]
 2803              	.LVL258:
 485:Drivers/STM32G0xx_HAL_Driver/Src/stm32g0xx_ll_usb.c ****     {
 2804              		.loc 1 485 8 view .LVU815
 2805 0044 0029     		cmp	r1, #0
 2806 0046 23D0     		beq	.L209
 494:Drivers/STM32G0xx_HAL_Driver/Src/stm32g0xx_ll_usb.c ****       {
 2807              		.loc 1 494 7 is_stmt 1 view .LVU816
 494:Drivers/STM32G0xx_HAL_Driver/Src/stm32g0xx_ll_usb.c ****       {
 2808              		.loc 1 494 13 is_stmt 0 view .LVU817
 2809 0048 E178     		ldrb	r1, [r4, #3]
 494:Drivers/STM32G0xx_HAL_Driver/Src/stm32g0xx_ll_usb.c ****       {
 2810              		.loc 1 494 10 view .LVU818
 2811 004a 0229     		cmp	r1, #2
 2812 004c 43D0     		beq	.L210
 579:Drivers/STM32G0xx_HAL_Driver/Src/stm32g0xx_ll_usb.c **** 
 2813              		.loc 1 579 9 is_stmt 1 view .LVU819
 579:Drivers/STM32G0xx_HAL_Driver/Src/stm32g0xx_ll_usb.c **** 
 2814              		.loc 1 579 11 is_stmt 0 view .LVU820
 2815 004e 226A     		ldr	r2, [r4, #32]
 579:Drivers/STM32G0xx_HAL_Driver/Src/stm32g0xx_ll_usb.c **** 
 2816              		.loc 1 579 25 view .LVU821
 2817 0050 921B     		subs	r2, r2, r6
 2818 0052 2262     		str	r2, [r4, #32]
 582:Drivers/STM32G0xx_HAL_Driver/Src/stm32g0xx_ll_usb.c ****         {
 2819              		.loc 1 582 9 is_stmt 1 view .LVU822
 582:Drivers/STM32G0xx_HAL_Driver/Src/stm32g0xx_ll_usb.c ****         {
 2820              		.loc 1 582 14 is_stmt 0 view .LVU823
 2821 0054 2278     		ldrb	r2, [r4]
 2822 0056 9100     		lsls	r1, r2, #2
 2823 0058 6918     		adds	r1, r5, r1
 2824 005a 0968     		ldr	r1, [r1]
 582:Drivers/STM32G0xx_HAL_Driver/Src/stm32g0xx_ll_usb.c ****         {
 2825              		.loc 1 582 12 view .LVU824
 2826 005c 4906     		lsls	r1, r1, #25
 2827 005e 00D4     		bmi	.LCB2729
 2828 0060 0EE2     		b	.L174	@long jump
ARM GAS  /tmp/cc3M98Wq.s 			page 71


 2829              	.LCB2729:
 585:Drivers/STM32G0xx_HAL_Driver/Src/stm32g0xx_ll_usb.c ****           pmabuffer = ep->pmaaddr1;
 2830              		.loc 1 585 11 is_stmt 1 view .LVU825
 585:Drivers/STM32G0xx_HAL_Driver/Src/stm32g0xx_ll_usb.c ****           pmabuffer = ep->pmaaddr1;
 2831              		.loc 1 585 11 view .LVU826
 2832 0062 002B     		cmp	r3, #0
 2833 0064 00D0     		beq	.LCB2733
 2834 0066 F5E1     		b	.L175	@long jump
 2835              	.LCB2733:
 585:Drivers/STM32G0xx_HAL_Driver/Src/stm32g0xx_ll_usb.c ****           pmabuffer = ep->pmaaddr1;
 2836              		.loc 1 585 11 discriminator 1 view .LVU827
 2837              	.LBB65:
 585:Drivers/STM32G0xx_HAL_Driver/Src/stm32g0xx_ll_usb.c ****           pmabuffer = ep->pmaaddr1;
 2838              		.loc 1 585 11 discriminator 1 view .LVU828
 585:Drivers/STM32G0xx_HAL_Driver/Src/stm32g0xx_ll_usb.c ****           pmabuffer = ep->pmaaddr1;
 2839              		.loc 1 585 11 discriminator 1 view .LVU829
 2840 0068 D200     		lsls	r2, r2, #3
 2841 006a C14B     		ldr	r3, .L216+8
 2842 006c 9C46     		mov	ip, r3
 2843 006e 6244     		add	r2, r2, ip
 2844 0070 5368     		ldr	r3, [r2, #4]
 2845 0072 9B01     		lsls	r3, r3, #6
 2846 0074 9B09     		lsrs	r3, r3, #6
 2847 0076 5360     		str	r3, [r2, #4]
 585:Drivers/STM32G0xx_HAL_Driver/Src/stm32g0xx_ll_usb.c ****           pmabuffer = ep->pmaaddr1;
 2848              		.loc 1 585 11 discriminator 1 view .LVU830
 2849 0078 002E     		cmp	r6, #0
 2850 007a 00D0     		beq	.LCB2748
 2851 007c C9E1     		b	.L176	@long jump
 2852              	.LCB2748:
 585:Drivers/STM32G0xx_HAL_Driver/Src/stm32g0xx_ll_usb.c ****           pmabuffer = ep->pmaaddr1;
 2853              		.loc 1 585 11 discriminator 3 view .LVU831
 2854 007e 2378     		ldrb	r3, [r4]
 2855 0080 DB00     		lsls	r3, r3, #3
 2856 0082 6344     		add	r3, r3, ip
 2857 0084 5968     		ldr	r1, [r3, #4]
 2858 0086 8022     		movs	r2, #128
 2859 0088 1206     		lsls	r2, r2, #24
 2860 008a 0A43     		orrs	r2, r1
 2861 008c 5A60     		str	r2, [r3, #4]
 2862 008e F0E1     		b	.L177
 2863              	.L209:
 585:Drivers/STM32G0xx_HAL_Driver/Src/stm32g0xx_ll_usb.c ****           pmabuffer = ep->pmaaddr1;
 2864              		.loc 1 585 11 is_stmt 0 discriminator 3 view .LVU832
 2865              	.LBE65:
 487:Drivers/STM32G0xx_HAL_Driver/Src/stm32g0xx_ll_usb.c ****       PCD_SET_EP_TX_CNT(USBx, ep->num, len);
 2866              		.loc 1 487 7 is_stmt 1 view .LVU833
 2867 0090 B3B2     		uxth	r3, r6
 2868 0092 E288     		ldrh	r2, [r4, #6]
 2869 0094 6169     		ldr	r1, [r4, #20]
 2870 0096 2800     		movs	r0, r5
 2871              	.LVL259:
 487:Drivers/STM32G0xx_HAL_Driver/Src/stm32g0xx_ll_usb.c ****       PCD_SET_EP_TX_CNT(USBx, ep->num, len);
 2872              		.loc 1 487 7 is_stmt 0 view .LVU834
 2873 0098 FFF7FEFF 		bl	USB_WritePMA
 2874              	.LVL260:
 488:Drivers/STM32G0xx_HAL_Driver/Src/stm32g0xx_ll_usb.c ****     }
ARM GAS  /tmp/cc3M98Wq.s 			page 72


 2875              		.loc 1 488 7 is_stmt 1 view .LVU835
 488:Drivers/STM32G0xx_HAL_Driver/Src/stm32g0xx_ll_usb.c ****     }
 2876              		.loc 1 488 7 view .LVU836
 2877 009c 2378     		ldrb	r3, [r4]
 2878 009e DB00     		lsls	r3, r3, #3
 2879 00a0 B34A     		ldr	r2, .L216+8
 2880 00a2 9446     		mov	ip, r2
 2881 00a4 6344     		add	r3, r3, ip
 2882 00a6 1A68     		ldr	r2, [r3]
 2883 00a8 1204     		lsls	r2, r2, #16
 2884 00aa 120C     		lsrs	r2, r2, #16
 2885 00ac 1A60     		str	r2, [r3]
 488:Drivers/STM32G0xx_HAL_Driver/Src/stm32g0xx_ll_usb.c ****     }
 2886              		.loc 1 488 7 view .LVU837
 2887 00ae 2278     		ldrb	r2, [r4]
 2888 00b0 D200     		lsls	r2, r2, #3
 2889 00b2 6244     		add	r2, r2, ip
 2890 00b4 1168     		ldr	r1, [r2]
 2891 00b6 3604     		lsls	r6, r6, #16
 2892              	.LVL261:
 488:Drivers/STM32G0xx_HAL_Driver/Src/stm32g0xx_ll_usb.c ****     }
 2893              		.loc 1 488 7 is_stmt 0 view .LVU838
 2894 00b8 0E43     		orrs	r6, r1
 2895 00ba 1660     		str	r6, [r2]
 488:Drivers/STM32G0xx_HAL_Driver/Src/stm32g0xx_ll_usb.c ****     }
 2896              		.loc 1 488 7 is_stmt 1 view .LVU839
 2897              	.LVL262:
 2898              	.L142:
 604:Drivers/STM32G0xx_HAL_Driver/Src/stm32g0xx_ll_usb.c ****   }
 2899              		.loc 1 604 5 view .LVU840
 2900              	.LBB66:
 604:Drivers/STM32G0xx_HAL_Driver/Src/stm32g0xx_ll_usb.c ****   }
 2901              		.loc 1 604 5 view .LVU841
 604:Drivers/STM32G0xx_HAL_Driver/Src/stm32g0xx_ll_usb.c ****   }
 2902              		.loc 1 604 5 view .LVU842
 2903 00bc 2378     		ldrb	r3, [r4]
 2904 00be 9B00     		lsls	r3, r3, #2
 2905 00c0 EB18     		adds	r3, r5, r3
 2906 00c2 1A68     		ldr	r2, [r3]
 2907 00c4 AB49     		ldr	r1, .L216+12
 2908 00c6 0A40     		ands	r2, r1
 2909              	.LVL263:
 604:Drivers/STM32G0xx_HAL_Driver/Src/stm32g0xx_ll_usb.c ****   }
 2910              		.loc 1 604 5 view .LVU843
 604:Drivers/STM32G0xx_HAL_Driver/Src/stm32g0xx_ll_usb.c ****   }
 2911              		.loc 1 604 5 discriminator 1 view .LVU844
 604:Drivers/STM32G0xx_HAL_Driver/Src/stm32g0xx_ll_usb.c ****   }
 2912              		.loc 1 604 5 discriminator 3 view .LVU845
 604:Drivers/STM32G0xx_HAL_Driver/Src/stm32g0xx_ll_usb.c ****   }
 2913              		.loc 1 604 5 discriminator 4 view .LVU846
 2914 00c8 3021     		movs	r1, #48
 2915 00ca 4A40     		eors	r2, r1
 2916              	.LVL264:
 604:Drivers/STM32G0xx_HAL_Driver/Src/stm32g0xx_ll_usb.c ****   }
 2917              		.loc 1 604 5 discriminator 6 view .LVU847
 2918 00cc AA49     		ldr	r1, .L216+16
 2919 00ce 0A43     		orrs	r2, r1
ARM GAS  /tmp/cc3M98Wq.s 			page 73


 2920              	.LVL265:
 604:Drivers/STM32G0xx_HAL_Driver/Src/stm32g0xx_ll_usb.c ****   }
 2921              		.loc 1 604 5 is_stmt 0 discriminator 6 view .LVU848
 2922 00d0 1A60     		str	r2, [r3]
 2923              	.LBE66:
 604:Drivers/STM32G0xx_HAL_Driver/Src/stm32g0xx_ll_usb.c ****   }
 2924              		.loc 1 604 5 is_stmt 1 discriminator 6 view .LVU849
 667:Drivers/STM32G0xx_HAL_Driver/Src/stm32g0xx_ll_usb.c **** }
 2925              		.loc 1 667 10 is_stmt 0 view .LVU850
 2926 00d2 0020     		movs	r0, #0
 2927 00d4 3CE2     		b	.L187
 2928              	.LVL266:
 2929              	.L210:
 496:Drivers/STM32G0xx_HAL_Driver/Src/stm32g0xx_ll_usb.c ****         {
 2930              		.loc 1 496 9 is_stmt 1 view .LVU851
 496:Drivers/STM32G0xx_HAL_Driver/Src/stm32g0xx_ll_usb.c ****         {
 2931              		.loc 1 496 15 is_stmt 0 view .LVU852
 2932 00d6 236A     		ldr	r3, [r4, #32]
 496:Drivers/STM32G0xx_HAL_Driver/Src/stm32g0xx_ll_usb.c ****         {
 2933              		.loc 1 496 12 view .LVU853
 2934 00d8 9A42     		cmp	r2, r3
 2935 00da 00D3     		bcc	.LCB2836
 2936 00dc 79E1     		b	.L144	@long jump
 2937              	.LCB2836:
 499:Drivers/STM32G0xx_HAL_Driver/Src/stm32g0xx_ll_usb.c **** 
 2938              		.loc 1 499 11 is_stmt 1 view .LVU854
 2939              	.LBB67:
 499:Drivers/STM32G0xx_HAL_Driver/Src/stm32g0xx_ll_usb.c **** 
 2940              		.loc 1 499 11 view .LVU855
 499:Drivers/STM32G0xx_HAL_Driver/Src/stm32g0xx_ll_usb.c **** 
 2941              		.loc 1 499 11 view .LVU856
 2942 00de 2378     		ldrb	r3, [r4]
 2943 00e0 9B00     		lsls	r3, r3, #2
 2944 00e2 EB18     		adds	r3, r5, r3
 2945 00e4 1968     		ldr	r1, [r3]
 2946 00e6 A04A     		ldr	r2, .L216
 2947 00e8 1140     		ands	r1, r2
 2948              	.LVL267:
 499:Drivers/STM32G0xx_HAL_Driver/Src/stm32g0xx_ll_usb.c **** 
 2949              		.loc 1 499 11 view .LVU857
 2950 00ea A04A     		ldr	r2, .L216+4
 2951 00ec 0A43     		orrs	r2, r1
 2952 00ee 1A60     		str	r2, [r3]
 2953              	.LBE67:
 499:Drivers/STM32G0xx_HAL_Driver/Src/stm32g0xx_ll_usb.c **** 
 2954              		.loc 1 499 11 view .LVU858
 502:Drivers/STM32G0xx_HAL_Driver/Src/stm32g0xx_ll_usb.c **** 
 2955              		.loc 1 502 11 view .LVU859
 502:Drivers/STM32G0xx_HAL_Driver/Src/stm32g0xx_ll_usb.c **** 
 2956              		.loc 1 502 13 is_stmt 0 view .LVU860
 2957 00f0 236A     		ldr	r3, [r4, #32]
 502:Drivers/STM32G0xx_HAL_Driver/Src/stm32g0xx_ll_usb.c **** 
 2958              		.loc 1 502 27 view .LVU861
 2959 00f2 9B1B     		subs	r3, r3, r6
 2960 00f4 2362     		str	r3, [r4, #32]
 505:Drivers/STM32G0xx_HAL_Driver/Src/stm32g0xx_ll_usb.c ****           {
 2961              		.loc 1 505 11 is_stmt 1 view .LVU862
ARM GAS  /tmp/cc3M98Wq.s 			page 74


 505:Drivers/STM32G0xx_HAL_Driver/Src/stm32g0xx_ll_usb.c ****           {
 2962              		.loc 1 505 16 is_stmt 0 view .LVU863
 2963 00f6 2378     		ldrb	r3, [r4]
 2964 00f8 9A00     		lsls	r2, r3, #2
 2965 00fa AA18     		adds	r2, r5, r2
 2966 00fc 1268     		ldr	r2, [r2]
 505:Drivers/STM32G0xx_HAL_Driver/Src/stm32g0xx_ll_usb.c ****           {
 2967              		.loc 1 505 14 view .LVU864
 2968 00fe 5206     		lsls	r2, r2, #25
 2969 0100 00D4     		bmi	.LCB2866
 2970 0102 ADE0     		b	.L145	@long jump
 2971              	.LCB2866:
 508:Drivers/STM32G0xx_HAL_Driver/Src/stm32g0xx_ll_usb.c ****             pmabuffer = ep->pmaaddr1;
 2972              		.loc 1 508 13 is_stmt 1 view .LVU865
 508:Drivers/STM32G0xx_HAL_Driver/Src/stm32g0xx_ll_usb.c ****             pmabuffer = ep->pmaaddr1;
 2973              		.loc 1 508 13 view .LVU866
 2974 0104 6278     		ldrb	r2, [r4, #1]
 2975 0106 002A     		cmp	r2, #0
 2976 0108 33D1     		bne	.L146
 508:Drivers/STM32G0xx_HAL_Driver/Src/stm32g0xx_ll_usb.c ****             pmabuffer = ep->pmaaddr1;
 2977              		.loc 1 508 13 discriminator 1 view .LVU867
 2978              	.LBB68:
 508:Drivers/STM32G0xx_HAL_Driver/Src/stm32g0xx_ll_usb.c ****             pmabuffer = ep->pmaaddr1;
 2979              		.loc 1 508 13 discriminator 1 view .LVU868
 508:Drivers/STM32G0xx_HAL_Driver/Src/stm32g0xx_ll_usb.c ****             pmabuffer = ep->pmaaddr1;
 2980              		.loc 1 508 13 discriminator 1 view .LVU869
 2981 010a DB00     		lsls	r3, r3, #3
 2982 010c 984A     		ldr	r2, .L216+8
 2983 010e 9446     		mov	ip, r2
 2984 0110 6344     		add	r3, r3, ip
 2985 0112 5A68     		ldr	r2, [r3, #4]
 2986 0114 9201     		lsls	r2, r2, #6
 2987 0116 9209     		lsrs	r2, r2, #6
 2988 0118 5A60     		str	r2, [r3, #4]
 508:Drivers/STM32G0xx_HAL_Driver/Src/stm32g0xx_ll_usb.c ****             pmabuffer = ep->pmaaddr1;
 2989              		.loc 1 508 13 discriminator 1 view .LVU870
 2990 011a 002E     		cmp	r6, #0
 2991 011c 08D1     		bne	.L147
 508:Drivers/STM32G0xx_HAL_Driver/Src/stm32g0xx_ll_usb.c ****             pmabuffer = ep->pmaaddr1;
 2992              		.loc 1 508 13 discriminator 3 view .LVU871
 2993 011e 2378     		ldrb	r3, [r4]
 2994 0120 DB00     		lsls	r3, r3, #3
 2995 0122 6344     		add	r3, r3, ip
 2996 0124 5968     		ldr	r1, [r3, #4]
 2997              	.LVL268:
 508:Drivers/STM32G0xx_HAL_Driver/Src/stm32g0xx_ll_usb.c ****             pmabuffer = ep->pmaaddr1;
 2998              		.loc 1 508 13 is_stmt 0 discriminator 3 view .LVU872
 2999 0126 8022     		movs	r2, #128
 3000 0128 1206     		lsls	r2, r2, #24
 3001 012a 0A43     		orrs	r2, r1
 3002 012c 5A60     		str	r2, [r3, #4]
 3003 012e 22E0     		b	.L148
 3004              	.LVL269:
 3005              	.L147:
 508:Drivers/STM32G0xx_HAL_Driver/Src/stm32g0xx_ll_usb.c ****             pmabuffer = ep->pmaaddr1;
 3006              		.loc 1 508 13 is_stmt 1 discriminator 4 view .LVU873
 3007 0130 3E2E     		cmp	r6, #62
ARM GAS  /tmp/cc3M98Wq.s 			page 75


 3008 0132 0DD8     		bhi	.L149
 508:Drivers/STM32G0xx_HAL_Driver/Src/stm32g0xx_ll_usb.c ****             pmabuffer = ep->pmaaddr1;
 3009              		.loc 1 508 13 discriminator 6 view .LVU874
 508:Drivers/STM32G0xx_HAL_Driver/Src/stm32g0xx_ll_usb.c ****             pmabuffer = ep->pmaaddr1;
 3010              		.loc 1 508 13 discriminator 6 view .LVU875
 3011 0134 7208     		lsrs	r2, r6, #1
 3012              	.LVL270:
 508:Drivers/STM32G0xx_HAL_Driver/Src/stm32g0xx_ll_usb.c ****             pmabuffer = ep->pmaaddr1;
 3013              		.loc 1 508 13 discriminator 6 view .LVU876
 3014 0136 F307     		lsls	r3, r6, #31
 3015 0138 00D5     		bpl	.L150
 508:Drivers/STM32G0xx_HAL_Driver/Src/stm32g0xx_ll_usb.c ****             pmabuffer = ep->pmaaddr1;
 3016              		.loc 1 508 13 discriminator 8 view .LVU877
 3017 013a 0132     		adds	r2, r2, #1
 3018              	.LVL271:
 3019              	.L150:
 508:Drivers/STM32G0xx_HAL_Driver/Src/stm32g0xx_ll_usb.c ****             pmabuffer = ep->pmaaddr1;
 3020              		.loc 1 508 13 discriminator 10 view .LVU878
 3021 013c 2378     		ldrb	r3, [r4]
 3022 013e DB00     		lsls	r3, r3, #3
 3023 0140 8B49     		ldr	r1, .L216+8
 3024              	.LVL272:
 508:Drivers/STM32G0xx_HAL_Driver/Src/stm32g0xx_ll_usb.c ****             pmabuffer = ep->pmaaddr1;
 3025              		.loc 1 508 13 is_stmt 0 discriminator 10 view .LVU879
 3026 0142 8C46     		mov	ip, r1
 3027 0144 6344     		add	r3, r3, ip
 3028 0146 5968     		ldr	r1, [r3, #4]
 3029 0148 9206     		lsls	r2, r2, #26
 3030              	.LVL273:
 508:Drivers/STM32G0xx_HAL_Driver/Src/stm32g0xx_ll_usb.c ****             pmabuffer = ep->pmaaddr1;
 3031              		.loc 1 508 13 discriminator 10 view .LVU880
 3032 014a 0A43     		orrs	r2, r1
 3033 014c 5A60     		str	r2, [r3, #4]
 508:Drivers/STM32G0xx_HAL_Driver/Src/stm32g0xx_ll_usb.c ****             pmabuffer = ep->pmaaddr1;
 3034              		.loc 1 508 13 is_stmt 1 discriminator 10 view .LVU881
 3035 014e 12E0     		b	.L148
 3036              	.LVL274:
 3037              	.L149:
 508:Drivers/STM32G0xx_HAL_Driver/Src/stm32g0xx_ll_usb.c ****             pmabuffer = ep->pmaaddr1;
 3038              		.loc 1 508 13 discriminator 7 view .LVU882
 508:Drivers/STM32G0xx_HAL_Driver/Src/stm32g0xx_ll_usb.c ****             pmabuffer = ep->pmaaddr1;
 3039              		.loc 1 508 13 discriminator 7 view .LVU883
 3040 0150 7209     		lsrs	r2, r6, #5
 3041              	.LVL275:
 508:Drivers/STM32G0xx_HAL_Driver/Src/stm32g0xx_ll_usb.c ****             pmabuffer = ep->pmaaddr1;
 3042              		.loc 1 508 13 discriminator 7 view .LVU884
 3043 0152 F306     		lsls	r3, r6, #27
 3044 0154 00D1     		bne	.L151
 508:Drivers/STM32G0xx_HAL_Driver/Src/stm32g0xx_ll_usb.c ****             pmabuffer = ep->pmaaddr1;
 3045              		.loc 1 508 13 discriminator 12 view .LVU885
 3046 0156 013A     		subs	r2, r2, #1
 3047              	.LVL276:
 3048              	.L151:
 508:Drivers/STM32G0xx_HAL_Driver/Src/stm32g0xx_ll_usb.c ****             pmabuffer = ep->pmaaddr1;
 3049              		.loc 1 508 13 discriminator 14 view .LVU886
 3050 0158 2378     		ldrb	r3, [r4]
 3051 015a DB00     		lsls	r3, r3, #3
ARM GAS  /tmp/cc3M98Wq.s 			page 76


 3052 015c 8449     		ldr	r1, .L216+8
 3053              	.LVL277:
 508:Drivers/STM32G0xx_HAL_Driver/Src/stm32g0xx_ll_usb.c ****             pmabuffer = ep->pmaaddr1;
 3054              		.loc 1 508 13 is_stmt 0 discriminator 14 view .LVU887
 3055 015e 8C46     		mov	ip, r1
 3056 0160 6344     		add	r3, r3, ip
 3057 0162 5968     		ldr	r1, [r3, #4]
 3058 0164 9206     		lsls	r2, r2, #26
 3059              	.LVL278:
 508:Drivers/STM32G0xx_HAL_Driver/Src/stm32g0xx_ll_usb.c ****             pmabuffer = ep->pmaaddr1;
 3060              		.loc 1 508 13 discriminator 14 view .LVU888
 3061 0166 1143     		orrs	r1, r2
 3062 0168 8022     		movs	r2, #128
 3063 016a 1206     		lsls	r2, r2, #24
 3064 016c 0A43     		orrs	r2, r1
 3065 016e 5A60     		str	r2, [r3, #4]
 3066 0170 01E0     		b	.L148
 3067              	.LVL279:
 3068              	.L146:
 508:Drivers/STM32G0xx_HAL_Driver/Src/stm32g0xx_ll_usb.c ****             pmabuffer = ep->pmaaddr1;
 3069              		.loc 1 508 13 discriminator 14 view .LVU889
 3070              	.LBE68:
 508:Drivers/STM32G0xx_HAL_Driver/Src/stm32g0xx_ll_usb.c ****             pmabuffer = ep->pmaaddr1;
 3071              		.loc 1 508 13 is_stmt 1 discriminator 2 view .LVU890
 3072 0172 012A     		cmp	r2, #1
 3073 0174 25D0     		beq	.L211
 3074              	.LVL280:
 3075              	.L148:
 508:Drivers/STM32G0xx_HAL_Driver/Src/stm32g0xx_ll_usb.c ****             pmabuffer = ep->pmaaddr1;
 3076              		.loc 1 508 13 discriminator 18 view .LVU891
 509:Drivers/STM32G0xx_HAL_Driver/Src/stm32g0xx_ll_usb.c **** 
 3077              		.loc 1 509 13 view .LVU892
 509:Drivers/STM32G0xx_HAL_Driver/Src/stm32g0xx_ll_usb.c **** 
 3078              		.loc 1 509 23 is_stmt 0 view .LVU893
 3079 0176 6289     		ldrh	r2, [r4, #10]
 3080              	.LVL281:
 512:Drivers/STM32G0xx_HAL_Driver/Src/stm32g0xx_ll_usb.c ****             ep->xfer_buff += len;
 3081              		.loc 1 512 13 is_stmt 1 view .LVU894
 3082 0178 B3B2     		uxth	r3, r6
 3083 017a 6169     		ldr	r1, [r4, #20]
 3084 017c 2800     		movs	r0, r5
 3085              	.LVL282:
 512:Drivers/STM32G0xx_HAL_Driver/Src/stm32g0xx_ll_usb.c ****             ep->xfer_buff += len;
 3086              		.loc 1 512 13 is_stmt 0 view .LVU895
 3087 017e FFF7FEFF 		bl	USB_WritePMA
 3088              	.LVL283:
 513:Drivers/STM32G0xx_HAL_Driver/Src/stm32g0xx_ll_usb.c **** 
 3089              		.loc 1 513 13 is_stmt 1 view .LVU896
 513:Drivers/STM32G0xx_HAL_Driver/Src/stm32g0xx_ll_usb.c **** 
 3090              		.loc 1 513 15 is_stmt 0 view .LVU897
 3091 0182 6369     		ldr	r3, [r4, #20]
 513:Drivers/STM32G0xx_HAL_Driver/Src/stm32g0xx_ll_usb.c **** 
 3092              		.loc 1 513 27 view .LVU898
 3093 0184 9B19     		adds	r3, r3, r6
 3094 0186 6361     		str	r3, [r4, #20]
 515:Drivers/STM32G0xx_HAL_Driver/Src/stm32g0xx_ll_usb.c ****             {
 3095              		.loc 1 515 13 is_stmt 1 view .LVU899
ARM GAS  /tmp/cc3M98Wq.s 			page 77


 515:Drivers/STM32G0xx_HAL_Driver/Src/stm32g0xx_ll_usb.c ****             {
 3096              		.loc 1 515 19 is_stmt 0 view .LVU900
 3097 0188 236A     		ldr	r3, [r4, #32]
 515:Drivers/STM32G0xx_HAL_Driver/Src/stm32g0xx_ll_usb.c ****             {
 3098              		.loc 1 515 37 view .LVU901
 3099 018a 2269     		ldr	r2, [r4, #16]
 515:Drivers/STM32G0xx_HAL_Driver/Src/stm32g0xx_ll_usb.c ****             {
 3100              		.loc 1 515 16 view .LVU902
 3101 018c 9342     		cmp	r3, r2
 3102 018e 28D9     		bls	.L152
 517:Drivers/STM32G0xx_HAL_Driver/Src/stm32g0xx_ll_usb.c ****             }
 3103              		.loc 1 517 15 is_stmt 1 view .LVU903
 517:Drivers/STM32G0xx_HAL_Driver/Src/stm32g0xx_ll_usb.c ****             }
 3104              		.loc 1 517 31 is_stmt 0 view .LVU904
 3105 0190 9B1B     		subs	r3, r3, r6
 3106 0192 2362     		str	r3, [r4, #32]
 3107              	.L153:
 526:Drivers/STM32G0xx_HAL_Driver/Src/stm32g0xx_ll_usb.c ****             pmabuffer = ep->pmaaddr0;
 3108              		.loc 1 526 13 is_stmt 1 view .LVU905
 526:Drivers/STM32G0xx_HAL_Driver/Src/stm32g0xx_ll_usb.c ****             pmabuffer = ep->pmaaddr0;
 3109              		.loc 1 526 13 view .LVU906
 3110 0194 6378     		ldrb	r3, [r4, #1]
 3111 0196 002B     		cmp	r3, #0
 3112 0198 48D1     		bne	.L154
 526:Drivers/STM32G0xx_HAL_Driver/Src/stm32g0xx_ll_usb.c ****             pmabuffer = ep->pmaaddr0;
 3113              		.loc 1 526 13 discriminator 1 view .LVU907
 3114              	.LBB69:
 526:Drivers/STM32G0xx_HAL_Driver/Src/stm32g0xx_ll_usb.c ****             pmabuffer = ep->pmaaddr0;
 3115              		.loc 1 526 13 discriminator 1 view .LVU908
 526:Drivers/STM32G0xx_HAL_Driver/Src/stm32g0xx_ll_usb.c ****             pmabuffer = ep->pmaaddr0;
 3116              		.loc 1 526 13 discriminator 1 view .LVU909
 3117 019a 2378     		ldrb	r3, [r4]
 3118 019c DB00     		lsls	r3, r3, #3
 3119 019e 744A     		ldr	r2, .L216+8
 3120 01a0 9446     		mov	ip, r2
 3121 01a2 6344     		add	r3, r3, ip
 3122 01a4 1A68     		ldr	r2, [r3]
 3123 01a6 9201     		lsls	r2, r2, #6
 3124 01a8 9209     		lsrs	r2, r2, #6
 3125 01aa 1A60     		str	r2, [r3]
 526:Drivers/STM32G0xx_HAL_Driver/Src/stm32g0xx_ll_usb.c ****             pmabuffer = ep->pmaaddr0;
 3126              		.loc 1 526 13 discriminator 1 view .LVU910
 3127 01ac 002E     		cmp	r6, #0
 3128 01ae 1CD1     		bne	.L155
 526:Drivers/STM32G0xx_HAL_Driver/Src/stm32g0xx_ll_usb.c ****             pmabuffer = ep->pmaaddr0;
 3129              		.loc 1 526 13 discriminator 3 view .LVU911
 3130 01b0 2378     		ldrb	r3, [r4]
 3131 01b2 DB00     		lsls	r3, r3, #3
 3132 01b4 6344     		add	r3, r3, ip
 3133 01b6 1968     		ldr	r1, [r3]
 3134 01b8 8022     		movs	r2, #128
 3135 01ba 1206     		lsls	r2, r2, #24
 3136 01bc 0A43     		orrs	r2, r1
 3137 01be 1A60     		str	r2, [r3]
 3138 01c0 36E0     		b	.L156
 3139              	.LVL284:
 3140              	.L211:
ARM GAS  /tmp/cc3M98Wq.s 			page 78


 526:Drivers/STM32G0xx_HAL_Driver/Src/stm32g0xx_ll_usb.c ****             pmabuffer = ep->pmaaddr0;
 3141              		.loc 1 526 13 is_stmt 0 discriminator 3 view .LVU912
 3142              	.LBE69:
 508:Drivers/STM32G0xx_HAL_Driver/Src/stm32g0xx_ll_usb.c ****             pmabuffer = ep->pmaaddr1;
 3143              		.loc 1 508 13 is_stmt 1 discriminator 16 view .LVU913
 3144 01c2 DB00     		lsls	r3, r3, #3
 3145 01c4 6A4A     		ldr	r2, .L216+8
 3146 01c6 9446     		mov	ip, r2
 3147 01c8 6344     		add	r3, r3, ip
 3148 01ca 5A68     		ldr	r2, [r3, #4]
 3149 01cc 1204     		lsls	r2, r2, #16
 3150 01ce 120C     		lsrs	r2, r2, #16
 3151 01d0 5A60     		str	r2, [r3, #4]
 508:Drivers/STM32G0xx_HAL_Driver/Src/stm32g0xx_ll_usb.c ****             pmabuffer = ep->pmaaddr1;
 3152              		.loc 1 508 13 discriminator 16 view .LVU914
 3153 01d2 2378     		ldrb	r3, [r4]
 3154 01d4 DB00     		lsls	r3, r3, #3
 3155 01d6 6344     		add	r3, r3, ip
 3156 01d8 5A68     		ldr	r2, [r3, #4]
 3157 01da 3104     		lsls	r1, r6, #16
 3158              	.LVL285:
 508:Drivers/STM32G0xx_HAL_Driver/Src/stm32g0xx_ll_usb.c ****             pmabuffer = ep->pmaaddr1;
 3159              		.loc 1 508 13 is_stmt 0 discriminator 16 view .LVU915
 3160 01dc 0A43     		orrs	r2, r1
 3161 01de 5A60     		str	r2, [r3, #4]
 3162 01e0 C9E7     		b	.L148
 3163              	.LVL286:
 3164              	.L152:
 521:Drivers/STM32G0xx_HAL_Driver/Src/stm32g0xx_ll_usb.c ****               ep->xfer_len_db = 0U;
 3165              		.loc 1 521 15 is_stmt 1 view .LVU916
 522:Drivers/STM32G0xx_HAL_Driver/Src/stm32g0xx_ll_usb.c ****             }
 3166              		.loc 1 522 15 view .LVU917
 522:Drivers/STM32G0xx_HAL_Driver/Src/stm32g0xx_ll_usb.c ****             }
 3167              		.loc 1 522 31 is_stmt 0 view .LVU918
 3168 01e2 0022     		movs	r2, #0
 3169 01e4 2262     		str	r2, [r4, #32]
 521:Drivers/STM32G0xx_HAL_Driver/Src/stm32g0xx_ll_usb.c ****               ep->xfer_len_db = 0U;
 3170              		.loc 1 521 19 view .LVU919
 3171 01e6 1E00     		movs	r6, r3
 3172 01e8 D4E7     		b	.L153
 3173              	.LVL287:
 3174              	.L155:
 3175              	.LBB70:
 526:Drivers/STM32G0xx_HAL_Driver/Src/stm32g0xx_ll_usb.c ****             pmabuffer = ep->pmaaddr0;
 3176              		.loc 1 526 13 is_stmt 1 discriminator 4 view .LVU920
 3177 01ea 3E2E     		cmp	r6, #62
 3178 01ec 0DD8     		bhi	.L157
 526:Drivers/STM32G0xx_HAL_Driver/Src/stm32g0xx_ll_usb.c ****             pmabuffer = ep->pmaaddr0;
 3179              		.loc 1 526 13 discriminator 6 view .LVU921
 526:Drivers/STM32G0xx_HAL_Driver/Src/stm32g0xx_ll_usb.c ****             pmabuffer = ep->pmaaddr0;
 3180              		.loc 1 526 13 discriminator 6 view .LVU922
 3181 01ee 7208     		lsrs	r2, r6, #1
 3182              	.LVL288:
 526:Drivers/STM32G0xx_HAL_Driver/Src/stm32g0xx_ll_usb.c ****             pmabuffer = ep->pmaaddr0;
 3183              		.loc 1 526 13 discriminator 6 view .LVU923
 3184 01f0 F307     		lsls	r3, r6, #31
 3185 01f2 00D5     		bpl	.L158
ARM GAS  /tmp/cc3M98Wq.s 			page 79


 526:Drivers/STM32G0xx_HAL_Driver/Src/stm32g0xx_ll_usb.c ****             pmabuffer = ep->pmaaddr0;
 3186              		.loc 1 526 13 discriminator 8 view .LVU924
 3187 01f4 0132     		adds	r2, r2, #1
 3188              	.LVL289:
 3189              	.L158:
 526:Drivers/STM32G0xx_HAL_Driver/Src/stm32g0xx_ll_usb.c ****             pmabuffer = ep->pmaaddr0;
 3190              		.loc 1 526 13 discriminator 10 view .LVU925
 3191 01f6 2378     		ldrb	r3, [r4]
 3192 01f8 DB00     		lsls	r3, r3, #3
 3193 01fa 5D49     		ldr	r1, .L216+8
 3194 01fc 8C46     		mov	ip, r1
 3195 01fe 6344     		add	r3, r3, ip
 3196 0200 1968     		ldr	r1, [r3]
 3197 0202 9206     		lsls	r2, r2, #26
 3198              	.LVL290:
 526:Drivers/STM32G0xx_HAL_Driver/Src/stm32g0xx_ll_usb.c ****             pmabuffer = ep->pmaaddr0;
 3199              		.loc 1 526 13 is_stmt 0 discriminator 10 view .LVU926
 3200 0204 0A43     		orrs	r2, r1
 3201 0206 1A60     		str	r2, [r3]
 526:Drivers/STM32G0xx_HAL_Driver/Src/stm32g0xx_ll_usb.c ****             pmabuffer = ep->pmaaddr0;
 3202              		.loc 1 526 13 is_stmt 1 discriminator 10 view .LVU927
 3203 0208 12E0     		b	.L156
 3204              	.LVL291:
 3205              	.L157:
 526:Drivers/STM32G0xx_HAL_Driver/Src/stm32g0xx_ll_usb.c ****             pmabuffer = ep->pmaaddr0;
 3206              		.loc 1 526 13 discriminator 7 view .LVU928
 526:Drivers/STM32G0xx_HAL_Driver/Src/stm32g0xx_ll_usb.c ****             pmabuffer = ep->pmaaddr0;
 3207              		.loc 1 526 13 discriminator 7 view .LVU929
 3208 020a 7209     		lsrs	r2, r6, #5
 3209              	.LVL292:
 526:Drivers/STM32G0xx_HAL_Driver/Src/stm32g0xx_ll_usb.c ****             pmabuffer = ep->pmaaddr0;
 3210              		.loc 1 526 13 discriminator 7 view .LVU930
 3211 020c F306     		lsls	r3, r6, #27
 3212 020e 00D1     		bne	.L159
 526:Drivers/STM32G0xx_HAL_Driver/Src/stm32g0xx_ll_usb.c ****             pmabuffer = ep->pmaaddr0;
 3213              		.loc 1 526 13 discriminator 12 view .LVU931
 3214 0210 013A     		subs	r2, r2, #1
 3215              	.LVL293:
 3216              	.L159:
 526:Drivers/STM32G0xx_HAL_Driver/Src/stm32g0xx_ll_usb.c ****             pmabuffer = ep->pmaaddr0;
 3217              		.loc 1 526 13 discriminator 14 view .LVU932
 3218 0212 2378     		ldrb	r3, [r4]
 3219 0214 DB00     		lsls	r3, r3, #3
 3220 0216 5649     		ldr	r1, .L216+8
 3221 0218 8C46     		mov	ip, r1
 3222 021a 6344     		add	r3, r3, ip
 3223 021c 1968     		ldr	r1, [r3]
 3224 021e 9206     		lsls	r2, r2, #26
 3225              	.LVL294:
 526:Drivers/STM32G0xx_HAL_Driver/Src/stm32g0xx_ll_usb.c ****             pmabuffer = ep->pmaaddr0;
 3226              		.loc 1 526 13 is_stmt 0 discriminator 14 view .LVU933
 3227 0220 1143     		orrs	r1, r2
 3228 0222 8022     		movs	r2, #128
 3229 0224 1206     		lsls	r2, r2, #24
 3230 0226 0A43     		orrs	r2, r1
 3231 0228 1A60     		str	r2, [r3]
 3232 022a 01E0     		b	.L156
ARM GAS  /tmp/cc3M98Wq.s 			page 80


 3233              	.LVL295:
 3234              	.L154:
 526:Drivers/STM32G0xx_HAL_Driver/Src/stm32g0xx_ll_usb.c ****             pmabuffer = ep->pmaaddr0;
 3235              		.loc 1 526 13 discriminator 14 view .LVU934
 3236              	.LBE70:
 526:Drivers/STM32G0xx_HAL_Driver/Src/stm32g0xx_ll_usb.c ****             pmabuffer = ep->pmaaddr0;
 3237              		.loc 1 526 13 is_stmt 1 discriminator 2 view .LVU935
 3238 022c 012B     		cmp	r3, #1
 3239 022e 06D0     		beq	.L212
 3240              	.L156:
 526:Drivers/STM32G0xx_HAL_Driver/Src/stm32g0xx_ll_usb.c ****             pmabuffer = ep->pmaaddr0;
 3241              		.loc 1 526 13 discriminator 18 view .LVU936
 526:Drivers/STM32G0xx_HAL_Driver/Src/stm32g0xx_ll_usb.c ****             pmabuffer = ep->pmaaddr0;
 3242              		.loc 1 526 13 discriminator 18 view .LVU937
 527:Drivers/STM32G0xx_HAL_Driver/Src/stm32g0xx_ll_usb.c **** 
 3243              		.loc 1 527 13 view .LVU938
 527:Drivers/STM32G0xx_HAL_Driver/Src/stm32g0xx_ll_usb.c **** 
 3244              		.loc 1 527 23 is_stmt 0 view .LVU939
 3245 0230 2289     		ldrh	r2, [r4, #8]
 3246              	.LVL296:
 530:Drivers/STM32G0xx_HAL_Driver/Src/stm32g0xx_ll_usb.c ****           }
 3247              		.loc 1 530 13 is_stmt 1 view .LVU940
 3248 0232 B3B2     		uxth	r3, r6
 3249 0234 6169     		ldr	r1, [r4, #20]
 3250 0236 2800     		movs	r0, r5
 3251 0238 FFF7FEFF 		bl	USB_WritePMA
 3252              	.LVL297:
 530:Drivers/STM32G0xx_HAL_Driver/Src/stm32g0xx_ll_usb.c ****           }
 3253              		.loc 1 530 13 is_stmt 0 view .LVU941
 3254 023c 3EE7     		b	.L142
 3255              	.L212:
 526:Drivers/STM32G0xx_HAL_Driver/Src/stm32g0xx_ll_usb.c ****             pmabuffer = ep->pmaaddr0;
 3256              		.loc 1 526 13 is_stmt 1 discriminator 16 view .LVU942
 526:Drivers/STM32G0xx_HAL_Driver/Src/stm32g0xx_ll_usb.c ****             pmabuffer = ep->pmaaddr0;
 3257              		.loc 1 526 13 discriminator 16 view .LVU943
 3258 023e 2378     		ldrb	r3, [r4]
 3259 0240 DB00     		lsls	r3, r3, #3
 3260 0242 4B4A     		ldr	r2, .L216+8
 3261 0244 9446     		mov	ip, r2
 3262 0246 6344     		add	r3, r3, ip
 3263 0248 1A68     		ldr	r2, [r3]
 3264 024a 1204     		lsls	r2, r2, #16
 3265 024c 120C     		lsrs	r2, r2, #16
 3266 024e 1A60     		str	r2, [r3]
 526:Drivers/STM32G0xx_HAL_Driver/Src/stm32g0xx_ll_usb.c ****             pmabuffer = ep->pmaaddr0;
 3267              		.loc 1 526 13 discriminator 16 view .LVU944
 3268 0250 2378     		ldrb	r3, [r4]
 3269 0252 DB00     		lsls	r3, r3, #3
 3270 0254 6344     		add	r3, r3, ip
 3271 0256 1A68     		ldr	r2, [r3]
 3272 0258 3104     		lsls	r1, r6, #16
 3273 025a 0A43     		orrs	r2, r1
