ARM GAS  /tmp/cc3SrZzl.s 			page 1


   1              		.cpu cortex-m0plus
   2              		.arch armv6s-m
   3              		.fpu softvfp
   4              		.eabi_attribute 20, 1
   5              		.eabi_attribute 21, 1
   6              		.eabi_attribute 23, 3
   7              		.eabi_attribute 24, 1
   8              		.eabi_attribute 25, 1
   9              		.eabi_attribute 26, 1
  10              		.eabi_attribute 30, 1
  11              		.eabi_attribute 34, 0
  12              		.eabi_attribute 18, 4
  13              		.file	"usbd_conf.c"
  14              		.text
  15              	.Ltext0:
  16              		.cfi_sections	.debug_frame
  17              		.file 1 "USB_Device/Target/usbd_conf.c"
  18              		.section	.text.USBD_Get_USB_Status,"ax",%progbits
  19              		.align	1
  20              		.syntax unified
  21              		.code	16
  22              		.thumb_func
  24              	USBD_Get_USB_Status:
  25              	.LVL0:
  26              	.LFB402:
   1:USB_Device/Target/usbd_conf.c **** /* USER CODE BEGIN Header */
   2:USB_Device/Target/usbd_conf.c **** /**
   3:USB_Device/Target/usbd_conf.c ****  ******************************************************************************
   4:USB_Device/Target/usbd_conf.c ****  * @file           : Target/usbd_conf.c
   5:USB_Device/Target/usbd_conf.c ****  * @version        : v3.0_Cube
   6:USB_Device/Target/usbd_conf.c ****  * @brief          : This file implements the board support package for the USB
   7:USB_Device/Target/usbd_conf.c ****  *device library
   8:USB_Device/Target/usbd_conf.c ****  ******************************************************************************
   9:USB_Device/Target/usbd_conf.c ****  * @attention
  10:USB_Device/Target/usbd_conf.c ****  *
  11:USB_Device/Target/usbd_conf.c ****  * Copyright (c) 2026 STMicroelectronics.
  12:USB_Device/Target/usbd_conf.c ****  * All rights reserved.
  13:USB_Device/Target/usbd_conf.c ****  *
  14:USB_Device/Target/usbd_conf.c ****  * This software is licensed under terms that can be found in the LICENSE file
  15:USB_Device/Target/usbd_conf.c ****  * in the root directory of this software component.
  16:USB_Device/Target/usbd_conf.c ****  * If no LICENSE file comes with this software, it is provided AS-IS.
  17:USB_Device/Target/usbd_conf.c ****  *
  18:USB_Device/Target/usbd_conf.c ****  ******************************************************************************
  19:USB_Device/Target/usbd_conf.c ****  */
  20:USB_Device/Target/usbd_conf.c **** /* USER CODE END Header */
  21:USB_Device/Target/usbd_conf.c **** 
  22:USB_Device/Target/usbd_conf.c **** /* Includes ------------------------------------------------------------------*/
  23:USB_Device/Target/usbd_conf.c **** #include "stm32g0xx.h"
  24:USB_Device/Target/usbd_conf.c **** #include "stm32g0xx_hal.h"
  25:USB_Device/Target/usbd_conf.c **** #include "usbd_def.h"
  26:USB_Device/Target/usbd_conf.c **** #include "usbd_core.h"
  27:USB_Device/Target/usbd_conf.c **** 
  28:USB_Device/Target/usbd_conf.c **** #include "usbd_cdc.h"
  29:USB_Device/Target/usbd_conf.c **** 
  30:USB_Device/Target/usbd_conf.c **** /* USER CODE BEGIN Includes */
  31:USB_Device/Target/usbd_conf.c **** 
  32:USB_Device/Target/usbd_conf.c **** /* USER CODE END Includes */
ARM GAS  /tmp/cc3SrZzl.s 			page 2


  33:USB_Device/Target/usbd_conf.c **** 
  34:USB_Device/Target/usbd_conf.c **** /* Private typedef -----------------------------------------------------------*/
  35:USB_Device/Target/usbd_conf.c **** /* Private define ------------------------------------------------------------*/
  36:USB_Device/Target/usbd_conf.c **** /* Private macro -------------------------------------------------------------*/
  37:USB_Device/Target/usbd_conf.c **** 
  38:USB_Device/Target/usbd_conf.c **** /* Private variables ---------------------------------------------------------*/
  39:USB_Device/Target/usbd_conf.c **** /* USER CODE BEGIN PV */
  40:USB_Device/Target/usbd_conf.c **** 
  41:USB_Device/Target/usbd_conf.c **** /* USER CODE END PV */
  42:USB_Device/Target/usbd_conf.c **** 
  43:USB_Device/Target/usbd_conf.c **** PCD_HandleTypeDef hpcd_USB_DRD_FS;
  44:USB_Device/Target/usbd_conf.c **** void Error_Handler(void);
  45:USB_Device/Target/usbd_conf.c **** 
  46:USB_Device/Target/usbd_conf.c **** /* USER CODE BEGIN 0 */
  47:USB_Device/Target/usbd_conf.c **** 
  48:USB_Device/Target/usbd_conf.c **** /* USER CODE END 0 */
  49:USB_Device/Target/usbd_conf.c **** 
  50:USB_Device/Target/usbd_conf.c **** /* Exported function prototypes ----------------------------------------------*/
  51:USB_Device/Target/usbd_conf.c **** 
  52:USB_Device/Target/usbd_conf.c **** /* USER CODE BEGIN PFP */
  53:USB_Device/Target/usbd_conf.c **** /* Private function prototypes -----------------------------------------------*/
  54:USB_Device/Target/usbd_conf.c **** 
  55:USB_Device/Target/usbd_conf.c **** /* USER CODE END PFP */
  56:USB_Device/Target/usbd_conf.c **** 
  57:USB_Device/Target/usbd_conf.c **** /* Private functions ---------------------------------------------------------*/
  58:USB_Device/Target/usbd_conf.c **** static USBD_StatusTypeDef USBD_Get_USB_Status(HAL_StatusTypeDef hal_status);
  59:USB_Device/Target/usbd_conf.c **** /* USER CODE BEGIN 1 */
  60:USB_Device/Target/usbd_conf.c **** static void SystemClockConfig_Resume(void);
  61:USB_Device/Target/usbd_conf.c **** 
  62:USB_Device/Target/usbd_conf.c **** /* USER CODE END 1 */
  63:USB_Device/Target/usbd_conf.c **** extern void SystemClock_Config(void);
  64:USB_Device/Target/usbd_conf.c **** 
  65:USB_Device/Target/usbd_conf.c **** /*******************************************************************************
  66:USB_Device/Target/usbd_conf.c ****                        LL Driver Callbacks (PCD -> USB Device Library)
  67:USB_Device/Target/usbd_conf.c **** *******************************************************************************/
  68:USB_Device/Target/usbd_conf.c **** /* MSP Init */
  69:USB_Device/Target/usbd_conf.c **** 
  70:USB_Device/Target/usbd_conf.c **** void HAL_PCD_MspInit(PCD_HandleTypeDef* pcdHandle)
  71:USB_Device/Target/usbd_conf.c **** {
  72:USB_Device/Target/usbd_conf.c ****   RCC_PeriphCLKInitTypeDef PeriphClkInit = {0};
  73:USB_Device/Target/usbd_conf.c ****   if(pcdHandle->Instance==USB_DRD_FS)
  74:USB_Device/Target/usbd_conf.c ****   {
  75:USB_Device/Target/usbd_conf.c ****   /* USER CODE BEGIN USB_DRD_FS_MspInit 0 */
  76:USB_Device/Target/usbd_conf.c **** 
  77:USB_Device/Target/usbd_conf.c ****   /* USER CODE END USB_DRD_FS_MspInit 0 */
  78:USB_Device/Target/usbd_conf.c **** 
  79:USB_Device/Target/usbd_conf.c ****   /** Initializes the peripherals clocks
  80:USB_Device/Target/usbd_conf.c ****   */
  81:USB_Device/Target/usbd_conf.c ****     PeriphClkInit.PeriphClockSelection = RCC_PERIPHCLK_USB;
  82:USB_Device/Target/usbd_conf.c ****     PeriphClkInit.UsbClockSelection = RCC_USBCLKSOURCE_HSI48;
  83:USB_Device/Target/usbd_conf.c ****     if (HAL_RCCEx_PeriphCLKConfig(&PeriphClkInit) != HAL_OK)
  84:USB_Device/Target/usbd_conf.c ****     {
  85:USB_Device/Target/usbd_conf.c ****       Error_Handler();
  86:USB_Device/Target/usbd_conf.c ****     }
  87:USB_Device/Target/usbd_conf.c **** 
  88:USB_Device/Target/usbd_conf.c ****     /* Peripheral clock enable */
  89:USB_Device/Target/usbd_conf.c ****     __HAL_RCC_USB_CLK_ENABLE();
ARM GAS  /tmp/cc3SrZzl.s 			page 3


  90:USB_Device/Target/usbd_conf.c **** 
  91:USB_Device/Target/usbd_conf.c ****     /* Enable VDDUSB */
  92:USB_Device/Target/usbd_conf.c ****     if(__HAL_RCC_PWR_IS_CLK_DISABLED())
  93:USB_Device/Target/usbd_conf.c ****     {
  94:USB_Device/Target/usbd_conf.c ****       __HAL_RCC_PWR_CLK_ENABLE();
  95:USB_Device/Target/usbd_conf.c ****       HAL_PWREx_EnableVddUSB();
  96:USB_Device/Target/usbd_conf.c ****       __HAL_RCC_PWR_CLK_DISABLE();
  97:USB_Device/Target/usbd_conf.c ****     }
  98:USB_Device/Target/usbd_conf.c ****     else
  99:USB_Device/Target/usbd_conf.c ****     {
 100:USB_Device/Target/usbd_conf.c ****       HAL_PWREx_EnableVddUSB();
 101:USB_Device/Target/usbd_conf.c ****     }
 102:USB_Device/Target/usbd_conf.c **** 
 103:USB_Device/Target/usbd_conf.c ****     /* Peripheral interrupt init */
 104:USB_Device/Target/usbd_conf.c ****     HAL_NVIC_SetPriority(USB_UCPD1_2_IRQn, 0, 0);
 105:USB_Device/Target/usbd_conf.c ****     HAL_NVIC_EnableIRQ(USB_UCPD1_2_IRQn);
 106:USB_Device/Target/usbd_conf.c ****   /* USER CODE BEGIN USB_DRD_FS_MspInit 1 */
 107:USB_Device/Target/usbd_conf.c **** 
 108:USB_Device/Target/usbd_conf.c ****   /* USER CODE END USB_DRD_FS_MspInit 1 */
 109:USB_Device/Target/usbd_conf.c ****   }
 110:USB_Device/Target/usbd_conf.c **** }
 111:USB_Device/Target/usbd_conf.c **** 
 112:USB_Device/Target/usbd_conf.c **** void HAL_PCD_MspDeInit(PCD_HandleTypeDef* pcdHandle)
 113:USB_Device/Target/usbd_conf.c **** {
 114:USB_Device/Target/usbd_conf.c ****   if(pcdHandle->Instance==USB_DRD_FS)
 115:USB_Device/Target/usbd_conf.c ****   {
 116:USB_Device/Target/usbd_conf.c ****   /* USER CODE BEGIN USB_DRD_FS_MspDeInit 0 */
 117:USB_Device/Target/usbd_conf.c **** 
 118:USB_Device/Target/usbd_conf.c ****   /* USER CODE END USB_DRD_FS_MspDeInit 0 */
 119:USB_Device/Target/usbd_conf.c ****     /* Disable Peripheral clock */
 120:USB_Device/Target/usbd_conf.c ****     __HAL_RCC_USB_CLK_DISABLE();
 121:USB_Device/Target/usbd_conf.c **** 
 122:USB_Device/Target/usbd_conf.c ****     /* Peripheral interrupt Deinit*/
 123:USB_Device/Target/usbd_conf.c ****     HAL_NVIC_DisableIRQ(USB_UCPD1_2_IRQn);
 124:USB_Device/Target/usbd_conf.c **** 
 125:USB_Device/Target/usbd_conf.c ****   /* USER CODE BEGIN USB_DRD_FS_MspDeInit 1 */
 126:USB_Device/Target/usbd_conf.c **** 
 127:USB_Device/Target/usbd_conf.c ****   /* USER CODE END USB_DRD_FS_MspDeInit 1 */
 128:USB_Device/Target/usbd_conf.c ****   }
 129:USB_Device/Target/usbd_conf.c **** }
 130:USB_Device/Target/usbd_conf.c **** 
 131:USB_Device/Target/usbd_conf.c **** /**
 132:USB_Device/Target/usbd_conf.c ****   * @brief  Setup stage callback
 133:USB_Device/Target/usbd_conf.c ****   * @param  hpcd: PCD handle
 134:USB_Device/Target/usbd_conf.c ****   * @retval None
 135:USB_Device/Target/usbd_conf.c ****   */
 136:USB_Device/Target/usbd_conf.c **** #if (USE_HAL_PCD_REGISTER_CALLBACKS == 1U)
 137:USB_Device/Target/usbd_conf.c **** static void PCD_SetupStageCallback(PCD_HandleTypeDef *hpcd)
 138:USB_Device/Target/usbd_conf.c **** #else
 139:USB_Device/Target/usbd_conf.c **** void HAL_PCD_SetupStageCallback(PCD_HandleTypeDef *hpcd)
 140:USB_Device/Target/usbd_conf.c **** #endif /* USE_HAL_PCD_REGISTER_CALLBACKS */
 141:USB_Device/Target/usbd_conf.c **** {
 142:USB_Device/Target/usbd_conf.c ****   /* USER CODE BEGIN HAL_PCD_SetupStageCallback_PreTreatment */
 143:USB_Device/Target/usbd_conf.c **** 
 144:USB_Device/Target/usbd_conf.c ****   /* USER CODE END  HAL_PCD_SetupStageCallback_PreTreatment */
 145:USB_Device/Target/usbd_conf.c ****   USBD_LL_SetupStage((USBD_HandleTypeDef*)hpcd->pData, (uint8_t *)hpcd->Setup);
 146:USB_Device/Target/usbd_conf.c ****   /* USER CODE BEGIN HAL_PCD_SetupStageCallback_PostTreatment */
ARM GAS  /tmp/cc3SrZzl.s 			page 4


 147:USB_Device/Target/usbd_conf.c **** 
 148:USB_Device/Target/usbd_conf.c ****   /* USER CODE END  HAL_PCD_SetupStageCallback_PostTreatment */
 149:USB_Device/Target/usbd_conf.c **** }
 150:USB_Device/Target/usbd_conf.c **** 
 151:USB_Device/Target/usbd_conf.c **** /**
 152:USB_Device/Target/usbd_conf.c ****   * @brief  Data Out stage callback.
 153:USB_Device/Target/usbd_conf.c ****   * @param  hpcd: PCD handle
 154:USB_Device/Target/usbd_conf.c ****   * @param  epnum: Endpoint number
 155:USB_Device/Target/usbd_conf.c ****   * @retval None
 156:USB_Device/Target/usbd_conf.c ****   */
 157:USB_Device/Target/usbd_conf.c **** #if (USE_HAL_PCD_REGISTER_CALLBACKS == 1U)
 158:USB_Device/Target/usbd_conf.c **** static void PCD_DataOutStageCallback(PCD_HandleTypeDef *hpcd, uint8_t epnum)
 159:USB_Device/Target/usbd_conf.c **** #else
 160:USB_Device/Target/usbd_conf.c **** void HAL_PCD_DataOutStageCallback(PCD_HandleTypeDef *hpcd, uint8_t epnum)
 161:USB_Device/Target/usbd_conf.c **** #endif /* USE_HAL_PCD_REGISTER_CALLBACKS */
 162:USB_Device/Target/usbd_conf.c **** {
 163:USB_Device/Target/usbd_conf.c ****   /* USER CODE BEGIN HAL_PCD_DataOutStageCallback_PreTreatment */
 164:USB_Device/Target/usbd_conf.c **** 
 165:USB_Device/Target/usbd_conf.c ****   /* USER CODE END HAL_PCD_DataOutStageCallback_PreTreatment */
 166:USB_Device/Target/usbd_conf.c ****   USBD_LL_DataOutStage((USBD_HandleTypeDef*)hpcd->pData, epnum, hpcd->OUT_ep[epnum].xfer_buff);
 167:USB_Device/Target/usbd_conf.c ****   /* USER CODE BEGIN HAL_PCD_DataOutStageCallback_PostTreatment */
 168:USB_Device/Target/usbd_conf.c **** 
 169:USB_Device/Target/usbd_conf.c ****   /* USER CODE END HAL_PCD_DataOutStageCallback_PostTreatment */
 170:USB_Device/Target/usbd_conf.c **** }
 171:USB_Device/Target/usbd_conf.c **** 
 172:USB_Device/Target/usbd_conf.c **** /**
 173:USB_Device/Target/usbd_conf.c ****   * @brief  Data In stage callback.
 174:USB_Device/Target/usbd_conf.c ****   * @param  hpcd: PCD handle
 175:USB_Device/Target/usbd_conf.c ****   * @param  epnum: Endpoint number
 176:USB_Device/Target/usbd_conf.c ****   * @retval None
 177:USB_Device/Target/usbd_conf.c ****   */
 178:USB_Device/Target/usbd_conf.c **** #if (USE_HAL_PCD_REGISTER_CALLBACKS == 1U)
 179:USB_Device/Target/usbd_conf.c **** static void PCD_DataInStageCallback(PCD_HandleTypeDef *hpcd, uint8_t epnum)
 180:USB_Device/Target/usbd_conf.c **** #else
 181:USB_Device/Target/usbd_conf.c **** void HAL_PCD_DataInStageCallback(PCD_HandleTypeDef *hpcd, uint8_t epnum)
 182:USB_Device/Target/usbd_conf.c **** #endif /* USE_HAL_PCD_REGISTER_CALLBACKS */
 183:USB_Device/Target/usbd_conf.c **** {
 184:USB_Device/Target/usbd_conf.c ****   /* USER CODE BEGIN HAL_PCD_DataInStageCallback_PreTreatment */
 185:USB_Device/Target/usbd_conf.c **** 
 186:USB_Device/Target/usbd_conf.c ****   /* USER CODE END HAL_PCD_DataInStageCallback_PreTreatment */
 187:USB_Device/Target/usbd_conf.c ****   USBD_LL_DataInStage((USBD_HandleTypeDef*)hpcd->pData, epnum, hpcd->IN_ep[epnum].xfer_buff);
 188:USB_Device/Target/usbd_conf.c ****   /* USER CODE BEGIN HAL_PCD_DataInStageCallback_PostTreatment  */
 189:USB_Device/Target/usbd_conf.c **** 
 190:USB_Device/Target/usbd_conf.c ****   /* USER CODE END HAL_PCD_DataInStageCallback_PostTreatment */
 191:USB_Device/Target/usbd_conf.c **** }
 192:USB_Device/Target/usbd_conf.c **** 
 193:USB_Device/Target/usbd_conf.c **** /**
 194:USB_Device/Target/usbd_conf.c ****   * @brief  SOF callback.
 195:USB_Device/Target/usbd_conf.c ****   * @param  hpcd: PCD handle
 196:USB_Device/Target/usbd_conf.c ****   * @retval None
 197:USB_Device/Target/usbd_conf.c ****   */
 198:USB_Device/Target/usbd_conf.c **** #if (USE_HAL_PCD_REGISTER_CALLBACKS == 1U)
 199:USB_Device/Target/usbd_conf.c **** static void PCD_SOFCallback(PCD_HandleTypeDef *hpcd)
 200:USB_Device/Target/usbd_conf.c **** #else
 201:USB_Device/Target/usbd_conf.c **** void HAL_PCD_SOFCallback(PCD_HandleTypeDef *hpcd)
 202:USB_Device/Target/usbd_conf.c **** #endif /* USE_HAL_PCD_REGISTER_CALLBACKS */
 203:USB_Device/Target/usbd_conf.c **** {
ARM GAS  /tmp/cc3SrZzl.s 			page 5


 204:USB_Device/Target/usbd_conf.c ****   /* USER CODE BEGIN HAL_PCD_SOFCallback_PreTreatment */
 205:USB_Device/Target/usbd_conf.c **** 
 206:USB_Device/Target/usbd_conf.c ****   /* USER CODE END HAL_PCD_SOFCallback_PreTreatment */
 207:USB_Device/Target/usbd_conf.c ****   USBD_LL_SOF((USBD_HandleTypeDef*)hpcd->pData);
 208:USB_Device/Target/usbd_conf.c ****   /* USER CODE BEGIN HAL_PCD_SOFCallback_PostTreatment */
 209:USB_Device/Target/usbd_conf.c **** 
 210:USB_Device/Target/usbd_conf.c ****   /* USER CODE END HAL_PCD_SOFCallback_PostTreatment */
 211:USB_Device/Target/usbd_conf.c **** }
 212:USB_Device/Target/usbd_conf.c **** 
 213:USB_Device/Target/usbd_conf.c **** /**
 214:USB_Device/Target/usbd_conf.c ****   * @brief  Reset callback.
 215:USB_Device/Target/usbd_conf.c ****   * @param  hpcd: PCD handle
 216:USB_Device/Target/usbd_conf.c ****   * @retval None
 217:USB_Device/Target/usbd_conf.c ****   */
 218:USB_Device/Target/usbd_conf.c **** #if (USE_HAL_PCD_REGISTER_CALLBACKS == 1U)
 219:USB_Device/Target/usbd_conf.c **** static void PCD_ResetCallback(PCD_HandleTypeDef *hpcd)
 220:USB_Device/Target/usbd_conf.c **** #else
 221:USB_Device/Target/usbd_conf.c **** void HAL_PCD_ResetCallback(PCD_HandleTypeDef *hpcd)
 222:USB_Device/Target/usbd_conf.c **** #endif /* USE_HAL_PCD_REGISTER_CALLBACKS */
 223:USB_Device/Target/usbd_conf.c **** {
 224:USB_Device/Target/usbd_conf.c ****   /* USER CODE BEGIN HAL_PCD_ResetCallback_PreTreatment */
 225:USB_Device/Target/usbd_conf.c **** 
 226:USB_Device/Target/usbd_conf.c ****   /* USER CODE END HAL_PCD_ResetCallback_PreTreatment */
 227:USB_Device/Target/usbd_conf.c ****   USBD_SpeedTypeDef speed = USBD_SPEED_FULL;
 228:USB_Device/Target/usbd_conf.c ****   if (hpcd->Init.speed != USBD_FS_SPEED)
 229:USB_Device/Target/usbd_conf.c ****   {
 230:USB_Device/Target/usbd_conf.c ****     Error_Handler();
 231:USB_Device/Target/usbd_conf.c ****   }
 232:USB_Device/Target/usbd_conf.c ****     /* Set Speed. */
 233:USB_Device/Target/usbd_conf.c ****   USBD_LL_SetSpeed((USBD_HandleTypeDef*)hpcd->pData, speed);
 234:USB_Device/Target/usbd_conf.c **** 
 235:USB_Device/Target/usbd_conf.c ****   /* Reset Device. */
 236:USB_Device/Target/usbd_conf.c ****   USBD_LL_Reset((USBD_HandleTypeDef*)hpcd->pData);
 237:USB_Device/Target/usbd_conf.c ****   /* USER CODE BEGIN HAL_PCD_ResetCallback_PostTreatment */
 238:USB_Device/Target/usbd_conf.c **** 
 239:USB_Device/Target/usbd_conf.c ****   /* USER CODE END HAL_PCD_ResetCallback_PostTreatment */
 240:USB_Device/Target/usbd_conf.c **** }
 241:USB_Device/Target/usbd_conf.c **** 
 242:USB_Device/Target/usbd_conf.c **** /**
 243:USB_Device/Target/usbd_conf.c ****   * @brief  Suspend callback.
 244:USB_Device/Target/usbd_conf.c ****   * When Low power mode is enabled the debug cannot be used (IAR, Keil doesn't support it)
 245:USB_Device/Target/usbd_conf.c ****   * @param  hpcd: PCD handle
 246:USB_Device/Target/usbd_conf.c ****   * @retval None
 247:USB_Device/Target/usbd_conf.c ****   */
 248:USB_Device/Target/usbd_conf.c **** #if (USE_HAL_PCD_REGISTER_CALLBACKS == 1U)
 249:USB_Device/Target/usbd_conf.c **** static void PCD_SuspendCallback(PCD_HandleTypeDef *hpcd)
 250:USB_Device/Target/usbd_conf.c **** #else
 251:USB_Device/Target/usbd_conf.c **** void HAL_PCD_SuspendCallback(PCD_HandleTypeDef *hpcd)
 252:USB_Device/Target/usbd_conf.c **** #endif /* USE_HAL_PCD_REGISTER_CALLBACKS */
 253:USB_Device/Target/usbd_conf.c **** {
 254:USB_Device/Target/usbd_conf.c ****   /* USER CODE BEGIN HAL_PCD_SuspendCallback_PreTreatment */
 255:USB_Device/Target/usbd_conf.c **** 
 256:USB_Device/Target/usbd_conf.c ****   /* USER CODE END HAL_PCD_SuspendCallback_PreTreatment */
 257:USB_Device/Target/usbd_conf.c ****  /* __HAL_PCD_GATE_PHYCLOCK(hpcd);*/
 258:USB_Device/Target/usbd_conf.c ****   /* Inform USB library that core enters in suspend Mode. */
 259:USB_Device/Target/usbd_conf.c ****   USBD_LL_Suspend((USBD_HandleTypeDef*)hpcd->pData);
 260:USB_Device/Target/usbd_conf.c ****   /* Enter in STOP mode. */
ARM GAS  /tmp/cc3SrZzl.s 			page 6


 261:USB_Device/Target/usbd_conf.c ****   /* USER CODE BEGIN 2 */
 262:USB_Device/Target/usbd_conf.c ****   if (hpcd->Init.low_power_enable) {
 263:USB_Device/Target/usbd_conf.c ****     /* Set SLEEPDEEP bit and SleepOnExit of Cortex System Control Register. */
 264:USB_Device/Target/usbd_conf.c ****     SCB->SCR |=
 265:USB_Device/Target/usbd_conf.c ****         (uint32_t)((uint32_t)(SCB_SCR_SLEEPDEEP_Msk | SCB_SCR_SLEEPONEXIT_Msk));
 266:USB_Device/Target/usbd_conf.c ****   }
 267:USB_Device/Target/usbd_conf.c ****   /* USER CODE END 2 */
 268:USB_Device/Target/usbd_conf.c ****   /* USER CODE BEGIN HAL_PCD_SuspendCallback_PostTreatment */
 269:USB_Device/Target/usbd_conf.c **** 
 270:USB_Device/Target/usbd_conf.c ****   /* USER CODE END HAL_PCD_SuspendCallback_PostTreatment */
 271:USB_Device/Target/usbd_conf.c **** }
 272:USB_Device/Target/usbd_conf.c **** 
 273:USB_Device/Target/usbd_conf.c **** /**
 274:USB_Device/Target/usbd_conf.c ****   * @brief  Resume callback.
 275:USB_Device/Target/usbd_conf.c ****   * When Low power mode is enabled the debug cannot be used (IAR, Keil doesn't support it)
 276:USB_Device/Target/usbd_conf.c ****   * @param  hpcd: PCD handle
 277:USB_Device/Target/usbd_conf.c ****   * @retval None
 278:USB_Device/Target/usbd_conf.c ****   */
 279:USB_Device/Target/usbd_conf.c **** #if (USE_HAL_PCD_REGISTER_CALLBACKS == 1U)
 280:USB_Device/Target/usbd_conf.c **** static void PCD_ResumeCallback(PCD_HandleTypeDef *hpcd)
 281:USB_Device/Target/usbd_conf.c **** #else
 282:USB_Device/Target/usbd_conf.c **** void HAL_PCD_ResumeCallback(PCD_HandleTypeDef *hpcd)
 283:USB_Device/Target/usbd_conf.c **** #endif /* USE_HAL_PCD_REGISTER_CALLBACKS */
 284:USB_Device/Target/usbd_conf.c **** {
 285:USB_Device/Target/usbd_conf.c ****   /* USER CODE BEGIN HAL_PCD_ResumeCallback_PreTreatment */
 286:USB_Device/Target/usbd_conf.c **** 
 287:USB_Device/Target/usbd_conf.c ****   /* USER CODE END HAL_PCD_ResumeCallback_PreTreatment */
 288:USB_Device/Target/usbd_conf.c ****  /* __HAL_PCD_UNGATE_PHYCLOCK(hpcd);*/
 289:USB_Device/Target/usbd_conf.c **** 
 290:USB_Device/Target/usbd_conf.c ****   /* USER CODE BEGIN 3 */
 291:USB_Device/Target/usbd_conf.c ****   if (hpcd->Init.low_power_enable) {
 292:USB_Device/Target/usbd_conf.c ****     /* Reset SLEEPDEEP bit of Cortex System Control Register. */
 293:USB_Device/Target/usbd_conf.c ****     SCB->SCR &= (uint32_t) ~(
 294:USB_Device/Target/usbd_conf.c ****         (uint32_t)(SCB_SCR_SLEEPDEEP_Msk | SCB_SCR_SLEEPONEXIT_Msk));
 295:USB_Device/Target/usbd_conf.c ****     SystemClockConfig_Resume();
 296:USB_Device/Target/usbd_conf.c ****   }
 297:USB_Device/Target/usbd_conf.c ****   /* USER CODE END 3 */
 298:USB_Device/Target/usbd_conf.c **** 
 299:USB_Device/Target/usbd_conf.c ****   USBD_LL_Resume((USBD_HandleTypeDef*)hpcd->pData);
 300:USB_Device/Target/usbd_conf.c ****   /* USER CODE BEGIN HAL_PCD_ResumeCallback_PostTreatment */
 301:USB_Device/Target/usbd_conf.c **** 
 302:USB_Device/Target/usbd_conf.c ****   /* USER CODE END HAL_PCD_ResumeCallback_PostTreatment */
 303:USB_Device/Target/usbd_conf.c **** }
 304:USB_Device/Target/usbd_conf.c **** 
 305:USB_Device/Target/usbd_conf.c **** /**
 306:USB_Device/Target/usbd_conf.c ****   * @brief  ISOOUTIncomplete callback.
 307:USB_Device/Target/usbd_conf.c ****   * @param  hpcd: PCD handle
 308:USB_Device/Target/usbd_conf.c ****   * @param  epnum: Endpoint number
 309:USB_Device/Target/usbd_conf.c ****   * @retval None
 310:USB_Device/Target/usbd_conf.c ****   */
 311:USB_Device/Target/usbd_conf.c **** #if (USE_HAL_PCD_REGISTER_CALLBACKS == 1U)
 312:USB_Device/Target/usbd_conf.c **** static void PCD_ISOOUTIncompleteCallback(PCD_HandleTypeDef *hpcd, uint8_t epnum)
 313:USB_Device/Target/usbd_conf.c **** #else
 314:USB_Device/Target/usbd_conf.c **** void HAL_PCD_ISOOUTIncompleteCallback(PCD_HandleTypeDef *hpcd, uint8_t epnum)
 315:USB_Device/Target/usbd_conf.c **** #endif /* USE_HAL_PCD_REGISTER_CALLBACKS */
 316:USB_Device/Target/usbd_conf.c **** {
 317:USB_Device/Target/usbd_conf.c ****   /* USER CODE BEGIN HAL_PCD_ISOOUTIncompleteCallback_PreTreatment */
ARM GAS  /tmp/cc3SrZzl.s 			page 7


 318:USB_Device/Target/usbd_conf.c **** 
 319:USB_Device/Target/usbd_conf.c ****   /* USER CODE END HAL_PCD_ISOOUTIncompleteCallback_PreTreatment */
 320:USB_Device/Target/usbd_conf.c ****   USBD_LL_IsoOUTIncomplete((USBD_HandleTypeDef*)hpcd->pData, epnum);
 321:USB_Device/Target/usbd_conf.c ****   /* USER CODE BEGIN HAL_PCD_ISOOUTIncompleteCallback_PostTreatment */
 322:USB_Device/Target/usbd_conf.c **** 
 323:USB_Device/Target/usbd_conf.c ****   /* USER CODE END HAL_PCD_ISOOUTIncompleteCallback_PostTreatment */
 324:USB_Device/Target/usbd_conf.c **** }
 325:USB_Device/Target/usbd_conf.c **** 
 326:USB_Device/Target/usbd_conf.c **** /**
 327:USB_Device/Target/usbd_conf.c ****   * @brief  ISOINIncomplete callback.
 328:USB_Device/Target/usbd_conf.c ****   * @param  hpcd: PCD handle
 329:USB_Device/Target/usbd_conf.c ****   * @param  epnum: Endpoint number
 330:USB_Device/Target/usbd_conf.c ****   * @retval None
 331:USB_Device/Target/usbd_conf.c ****   */
 332:USB_Device/Target/usbd_conf.c **** #if (USE_HAL_PCD_REGISTER_CALLBACKS == 1U)
 333:USB_Device/Target/usbd_conf.c **** static void PCD_ISOINIncompleteCallback(PCD_HandleTypeDef *hpcd, uint8_t epnum)
 334:USB_Device/Target/usbd_conf.c **** #else
 335:USB_Device/Target/usbd_conf.c **** void HAL_PCD_ISOINIncompleteCallback(PCD_HandleTypeDef *hpcd, uint8_t epnum)
 336:USB_Device/Target/usbd_conf.c **** #endif /* USE_HAL_PCD_REGISTER_CALLBACKS */
 337:USB_Device/Target/usbd_conf.c **** {
 338:USB_Device/Target/usbd_conf.c ****   /* USER CODE BEGIN HAL_PCD_ISOINIncompleteCallback_PreTreatment */
 339:USB_Device/Target/usbd_conf.c **** 
 340:USB_Device/Target/usbd_conf.c ****   /* USER CODE END HAL_PCD_ISOINIncompleteCallback_PreTreatment */
 341:USB_Device/Target/usbd_conf.c ****   USBD_LL_IsoINIncomplete((USBD_HandleTypeDef*)hpcd->pData, epnum);
 342:USB_Device/Target/usbd_conf.c ****   /* USER CODE BEGIN HAL_PCD_ISOINIncompleteCallback_PostTreatment */
 343:USB_Device/Target/usbd_conf.c **** 
 344:USB_Device/Target/usbd_conf.c ****   /* USER CODE END HAL_PCD_ISOINIncompleteCallback_PostTreatment */
 345:USB_Device/Target/usbd_conf.c **** }
 346:USB_Device/Target/usbd_conf.c **** 
 347:USB_Device/Target/usbd_conf.c **** /**
 348:USB_Device/Target/usbd_conf.c ****   * @brief  Connect callback.
 349:USB_Device/Target/usbd_conf.c ****   * @param  hpcd: PCD handle
 350:USB_Device/Target/usbd_conf.c ****   * @retval None
 351:USB_Device/Target/usbd_conf.c ****   */
 352:USB_Device/Target/usbd_conf.c **** #if (USE_HAL_PCD_REGISTER_CALLBACKS == 1U)
 353:USB_Device/Target/usbd_conf.c **** static void PCD_ConnectCallback(PCD_HandleTypeDef *hpcd)
 354:USB_Device/Target/usbd_conf.c **** #else
 355:USB_Device/Target/usbd_conf.c **** void HAL_PCD_ConnectCallback(PCD_HandleTypeDef *hpcd)
 356:USB_Device/Target/usbd_conf.c **** #endif /* USE_HAL_PCD_REGISTER_CALLBACKS */
 357:USB_Device/Target/usbd_conf.c **** {
 358:USB_Device/Target/usbd_conf.c ****   /* USER CODE BEGIN HAL_PCD_ConnectCallback_PreTreatment */
 359:USB_Device/Target/usbd_conf.c **** 
 360:USB_Device/Target/usbd_conf.c ****   /* USER CODE END HAL_PCD_ConnectCallback_PreTreatment */
 361:USB_Device/Target/usbd_conf.c ****   USBD_LL_DevConnected((USBD_HandleTypeDef*)hpcd->pData);
 362:USB_Device/Target/usbd_conf.c ****   /* USER CODE BEGIN HAL_PCD_ConnectCallback_PostTreatment */
 363:USB_Device/Target/usbd_conf.c **** 
 364:USB_Device/Target/usbd_conf.c ****   /* USER CODE END HAL_PCD_ConnectCallback_PostTreatment */
 365:USB_Device/Target/usbd_conf.c **** }
 366:USB_Device/Target/usbd_conf.c **** 
 367:USB_Device/Target/usbd_conf.c **** /**
 368:USB_Device/Target/usbd_conf.c ****   * @brief  Disconnect callback.
 369:USB_Device/Target/usbd_conf.c ****   * @param  hpcd: PCD handle
 370:USB_Device/Target/usbd_conf.c ****   * @retval None
 371:USB_Device/Target/usbd_conf.c ****   */
 372:USB_Device/Target/usbd_conf.c **** #if (USE_HAL_PCD_REGISTER_CALLBACKS == 1U)
 373:USB_Device/Target/usbd_conf.c **** static void PCD_DisconnectCallback(PCD_HandleTypeDef *hpcd)
 374:USB_Device/Target/usbd_conf.c **** #else
ARM GAS  /tmp/cc3SrZzl.s 			page 8


 375:USB_Device/Target/usbd_conf.c **** void HAL_PCD_DisconnectCallback(PCD_HandleTypeDef *hpcd)
 376:USB_Device/Target/usbd_conf.c **** #endif /* USE_HAL_PCD_REGISTER_CALLBACKS */
 377:USB_Device/Target/usbd_conf.c **** {
 378:USB_Device/Target/usbd_conf.c ****   /* USER CODE BEGIN HAL_PCD_DisconnectCallback_PreTreatment */
 379:USB_Device/Target/usbd_conf.c **** 
 380:USB_Device/Target/usbd_conf.c ****   /* USER CODE END HAL_PCD_DisconnectCallback_PreTreatment */
 381:USB_Device/Target/usbd_conf.c ****   USBD_LL_DevDisconnected((USBD_HandleTypeDef*)hpcd->pData);
 382:USB_Device/Target/usbd_conf.c ****   /* USER CODE BEGIN HAL_PCD_DisconnectCallback_PostTreatment */
 383:USB_Device/Target/usbd_conf.c **** 
 384:USB_Device/Target/usbd_conf.c ****   /* USER CODE END HAL_PCD_DisconnectCallback_PostTreatment */
 385:USB_Device/Target/usbd_conf.c **** }
 386:USB_Device/Target/usbd_conf.c **** 
 387:USB_Device/Target/usbd_conf.c ****   /* USER CODE BEGIN LowLevelInterface */
 388:USB_Device/Target/usbd_conf.c **** 
 389:USB_Device/Target/usbd_conf.c ****   /* USER CODE END LowLevelInterface */
 390:USB_Device/Target/usbd_conf.c **** 
 391:USB_Device/Target/usbd_conf.c **** /*******************************************************************************
 392:USB_Device/Target/usbd_conf.c ****                        LL Driver Interface (USB Device Library --> PCD)
 393:USB_Device/Target/usbd_conf.c **** *******************************************************************************/
 394:USB_Device/Target/usbd_conf.c **** 
 395:USB_Device/Target/usbd_conf.c **** /**
 396:USB_Device/Target/usbd_conf.c ****   * @brief  Initializes the low level portion of the device driver.
 397:USB_Device/Target/usbd_conf.c ****   * @param  pdev: Device handle
 398:USB_Device/Target/usbd_conf.c ****   * @retval USBD status
 399:USB_Device/Target/usbd_conf.c ****   */
 400:USB_Device/Target/usbd_conf.c **** USBD_StatusTypeDef USBD_LL_Init(USBD_HandleTypeDef *pdev)
 401:USB_Device/Target/usbd_conf.c **** {
 402:USB_Device/Target/usbd_conf.c ****   /* Init USB Ip. */
 403:USB_Device/Target/usbd_conf.c ****   hpcd_USB_DRD_FS.pData = pdev;
 404:USB_Device/Target/usbd_conf.c ****   /* Link the driver to the stack. */
 405:USB_Device/Target/usbd_conf.c ****   pdev->pData = &hpcd_USB_DRD_FS;
 406:USB_Device/Target/usbd_conf.c **** 
 407:USB_Device/Target/usbd_conf.c ****   hpcd_USB_DRD_FS.Instance = USB_DRD_FS;
 408:USB_Device/Target/usbd_conf.c ****   hpcd_USB_DRD_FS.Init.dev_endpoints = 8;
 409:USB_Device/Target/usbd_conf.c ****   hpcd_USB_DRD_FS.Init.Host_channels = 8;
 410:USB_Device/Target/usbd_conf.c ****   hpcd_USB_DRD_FS.Init.speed = PCD_SPEED_FULL;
 411:USB_Device/Target/usbd_conf.c ****   hpcd_USB_DRD_FS.Init.phy_itface = PCD_PHY_EMBEDDED;
 412:USB_Device/Target/usbd_conf.c ****   hpcd_USB_DRD_FS.Init.Sof_enable = DISABLE;
 413:USB_Device/Target/usbd_conf.c ****   hpcd_USB_DRD_FS.Init.low_power_enable = DISABLE;
 414:USB_Device/Target/usbd_conf.c ****   hpcd_USB_DRD_FS.Init.lpm_enable = DISABLE;
 415:USB_Device/Target/usbd_conf.c ****   hpcd_USB_DRD_FS.Init.battery_charging_enable = DISABLE;
 416:USB_Device/Target/usbd_conf.c ****   hpcd_USB_DRD_FS.Init.vbus_sensing_enable = DISABLE;
 417:USB_Device/Target/usbd_conf.c ****   hpcd_USB_DRD_FS.Init.bulk_doublebuffer_enable = DISABLE;
 418:USB_Device/Target/usbd_conf.c ****   hpcd_USB_DRD_FS.Init.iso_singlebuffer_enable = DISABLE;
 419:USB_Device/Target/usbd_conf.c ****   if (HAL_PCD_Init(&hpcd_USB_DRD_FS) != HAL_OK)
 420:USB_Device/Target/usbd_conf.c ****   {
 421:USB_Device/Target/usbd_conf.c ****     Error_Handler( );
 422:USB_Device/Target/usbd_conf.c ****   }
 423:USB_Device/Target/usbd_conf.c **** 
 424:USB_Device/Target/usbd_conf.c **** #if (USE_HAL_PCD_REGISTER_CALLBACKS == 1U)
 425:USB_Device/Target/usbd_conf.c ****   /* Register USB PCD CallBacks */
 426:USB_Device/Target/usbd_conf.c ****   HAL_PCD_RegisterCallback(&hpcd_USB_DRD_FS, HAL_PCD_SOF_CB_ID, PCD_SOFCallback);
 427:USB_Device/Target/usbd_conf.c ****   HAL_PCD_RegisterCallback(&hpcd_USB_DRD_FS, HAL_PCD_SETUPSTAGE_CB_ID, PCD_SetupStageCallback);
 428:USB_Device/Target/usbd_conf.c ****   HAL_PCD_RegisterCallback(&hpcd_USB_DRD_FS, HAL_PCD_RESET_CB_ID, PCD_ResetCallback);
 429:USB_Device/Target/usbd_conf.c ****   HAL_PCD_RegisterCallback(&hpcd_USB_DRD_FS, HAL_PCD_SUSPEND_CB_ID, PCD_SuspendCallback);
 430:USB_Device/Target/usbd_conf.c ****   HAL_PCD_RegisterCallback(&hpcd_USB_DRD_FS, HAL_PCD_RESUME_CB_ID, PCD_ResumeCallback);
 431:USB_Device/Target/usbd_conf.c ****   HAL_PCD_RegisterCallback(&hpcd_USB_DRD_FS, HAL_PCD_CONNECT_CB_ID, PCD_ConnectCallback);
ARM GAS  /tmp/cc3SrZzl.s 			page 9


 432:USB_Device/Target/usbd_conf.c ****   HAL_PCD_RegisterCallback(&hpcd_USB_DRD_FS, HAL_PCD_DISCONNECT_CB_ID, PCD_DisconnectCallback);
 433:USB_Device/Target/usbd_conf.c ****   /* USER CODE BEGIN RegisterCallBackFirstPart */
 434:USB_Device/Target/usbd_conf.c **** 
 435:USB_Device/Target/usbd_conf.c ****   /* USER CODE END RegisterCallBackFirstPart */
 436:USB_Device/Target/usbd_conf.c ****   HAL_PCD_RegisterLpmCallback(&hpcd_USB_DRD_FS, PCDEx_LPM_Callback);
 437:USB_Device/Target/usbd_conf.c ****   HAL_PCD_RegisterDataOutStageCallback(&hpcd_USB_DRD_FS, PCD_DataOutStageCallback);
 438:USB_Device/Target/usbd_conf.c ****   HAL_PCD_RegisterDataInStageCallback(&hpcd_USB_DRD_FS, PCD_DataInStageCallback);
 439:USB_Device/Target/usbd_conf.c ****   HAL_PCD_RegisterIsoOutIncpltCallback(&hpcd_USB_DRD_FS, PCD_ISOOUTIncompleteCallback);
 440:USB_Device/Target/usbd_conf.c ****   HAL_PCD_RegisterIsoInIncpltCallback(&hpcd_USB_DRD_FS, PCD_ISOINIncompleteCallback);
 441:USB_Device/Target/usbd_conf.c ****   /* USER CODE BEGIN RegisterCallBackSecondPart */
 442:USB_Device/Target/usbd_conf.c **** 
 443:USB_Device/Target/usbd_conf.c ****   /* USER CODE END RegisterCallBackSecondPart */
 444:USB_Device/Target/usbd_conf.c **** #endif /* USE_HAL_PCD_REGISTER_CALLBACKS */
 445:USB_Device/Target/usbd_conf.c ****   /* USER CODE BEGIN EndPoint_Configuration */
 446:USB_Device/Target/usbd_conf.c ****   HAL_PCDEx_PMAConfig((PCD_HandleTypeDef *)pdev->pData, 0x00, PCD_SNG_BUF,
 447:USB_Device/Target/usbd_conf.c ****                       0x18);
 448:USB_Device/Target/usbd_conf.c ****   HAL_PCDEx_PMAConfig((PCD_HandleTypeDef *)pdev->pData, 0x80, PCD_SNG_BUF,
 449:USB_Device/Target/usbd_conf.c ****                       0x58);
 450:USB_Device/Target/usbd_conf.c ****   /* USER CODE END EndPoint_Configuration */
 451:USB_Device/Target/usbd_conf.c ****   /* USER CODE BEGIN EndPoint_Configuration_CDC */
 452:USB_Device/Target/usbd_conf.c ****   HAL_PCDEx_PMAConfig((PCD_HandleTypeDef *)pdev->pData, 0x81, PCD_SNG_BUF,
 453:USB_Device/Target/usbd_conf.c ****                       0xC0);
 454:USB_Device/Target/usbd_conf.c ****   HAL_PCDEx_PMAConfig((PCD_HandleTypeDef *)pdev->pData, 0x01, PCD_SNG_BUF,
 455:USB_Device/Target/usbd_conf.c ****                       0x110);
 456:USB_Device/Target/usbd_conf.c ****   HAL_PCDEx_PMAConfig((PCD_HandleTypeDef *)pdev->pData, 0x82, PCD_SNG_BUF,
 457:USB_Device/Target/usbd_conf.c ****                       0x100);
 458:USB_Device/Target/usbd_conf.c ****   /* USER CODE END EndPoint_Configuration_CDC */
 459:USB_Device/Target/usbd_conf.c **** 
 460:USB_Device/Target/usbd_conf.c ****   return USBD_OK;
 461:USB_Device/Target/usbd_conf.c **** }
 462:USB_Device/Target/usbd_conf.c **** 
 463:USB_Device/Target/usbd_conf.c **** /**
 464:USB_Device/Target/usbd_conf.c ****   * @brief  De-Initializes the low level portion of the device driver.
 465:USB_Device/Target/usbd_conf.c ****   * @param  pdev: Device handle
 466:USB_Device/Target/usbd_conf.c ****   * @retval USBD status
 467:USB_Device/Target/usbd_conf.c ****   */
 468:USB_Device/Target/usbd_conf.c **** USBD_StatusTypeDef USBD_LL_DeInit(USBD_HandleTypeDef *pdev)
 469:USB_Device/Target/usbd_conf.c **** {
 470:USB_Device/Target/usbd_conf.c ****   HAL_StatusTypeDef hal_status = HAL_OK;
 471:USB_Device/Target/usbd_conf.c ****   USBD_StatusTypeDef usb_status = USBD_OK;
 472:USB_Device/Target/usbd_conf.c **** 
 473:USB_Device/Target/usbd_conf.c ****   hal_status = HAL_PCD_DeInit(pdev->pData);
 474:USB_Device/Target/usbd_conf.c **** 
 475:USB_Device/Target/usbd_conf.c ****   usb_status =  USBD_Get_USB_Status(hal_status);
 476:USB_Device/Target/usbd_conf.c **** 
 477:USB_Device/Target/usbd_conf.c ****   return usb_status;
 478:USB_Device/Target/usbd_conf.c **** }
 479:USB_Device/Target/usbd_conf.c **** 
 480:USB_Device/Target/usbd_conf.c **** /**
 481:USB_Device/Target/usbd_conf.c ****   * @brief  Starts the low level portion of the device driver.
 482:USB_Device/Target/usbd_conf.c ****   * @param  pdev: Device handle
 483:USB_Device/Target/usbd_conf.c ****   * @retval USBD status
 484:USB_Device/Target/usbd_conf.c ****   */
 485:USB_Device/Target/usbd_conf.c **** USBD_StatusTypeDef USBD_LL_Start(USBD_HandleTypeDef *pdev)
 486:USB_Device/Target/usbd_conf.c **** {
 487:USB_Device/Target/usbd_conf.c ****   HAL_StatusTypeDef hal_status = HAL_OK;
 488:USB_Device/Target/usbd_conf.c ****   USBD_StatusTypeDef usb_status = USBD_OK;
ARM GAS  /tmp/cc3SrZzl.s 			page 10


 489:USB_Device/Target/usbd_conf.c **** 
 490:USB_Device/Target/usbd_conf.c ****   hal_status = HAL_PCD_Start(pdev->pData);
 491:USB_Device/Target/usbd_conf.c **** 
 492:USB_Device/Target/usbd_conf.c ****   usb_status =  USBD_Get_USB_Status(hal_status);
 493:USB_Device/Target/usbd_conf.c **** 
 494:USB_Device/Target/usbd_conf.c ****   return usb_status;
 495:USB_Device/Target/usbd_conf.c **** }
 496:USB_Device/Target/usbd_conf.c **** 
 497:USB_Device/Target/usbd_conf.c **** /**
 498:USB_Device/Target/usbd_conf.c ****   * @brief  Stops the low level portion of the device driver.
 499:USB_Device/Target/usbd_conf.c ****   * @param  pdev: Device handle
 500:USB_Device/Target/usbd_conf.c ****   * @retval USBD status
 501:USB_Device/Target/usbd_conf.c ****   */
 502:USB_Device/Target/usbd_conf.c **** USBD_StatusTypeDef USBD_LL_Stop(USBD_HandleTypeDef *pdev)
 503:USB_Device/Target/usbd_conf.c **** {
 504:USB_Device/Target/usbd_conf.c ****   HAL_StatusTypeDef hal_status = HAL_OK;
 505:USB_Device/Target/usbd_conf.c ****   USBD_StatusTypeDef usb_status = USBD_OK;
 506:USB_Device/Target/usbd_conf.c **** 
 507:USB_Device/Target/usbd_conf.c ****   hal_status = HAL_PCD_Stop(pdev->pData);
 508:USB_Device/Target/usbd_conf.c **** 
 509:USB_Device/Target/usbd_conf.c ****   usb_status =  USBD_Get_USB_Status(hal_status);
 510:USB_Device/Target/usbd_conf.c **** 
 511:USB_Device/Target/usbd_conf.c ****   return usb_status;
 512:USB_Device/Target/usbd_conf.c **** }
 513:USB_Device/Target/usbd_conf.c **** 
 514:USB_Device/Target/usbd_conf.c **** /**
 515:USB_Device/Target/usbd_conf.c ****   * @brief  Opens an endpoint of the low level driver.
 516:USB_Device/Target/usbd_conf.c ****   * @param  pdev: Device handle
 517:USB_Device/Target/usbd_conf.c ****   * @param  ep_addr: Endpoint number
 518:USB_Device/Target/usbd_conf.c ****   * @param  ep_type: Endpoint type
 519:USB_Device/Target/usbd_conf.c ****   * @param  ep_mps: Endpoint max packet size
 520:USB_Device/Target/usbd_conf.c ****   * @retval USBD status
 521:USB_Device/Target/usbd_conf.c ****   */
 522:USB_Device/Target/usbd_conf.c **** USBD_StatusTypeDef USBD_LL_OpenEP(USBD_HandleTypeDef *pdev, uint8_t ep_addr, uint8_t ep_type, uint1
 523:USB_Device/Target/usbd_conf.c **** {
 524:USB_Device/Target/usbd_conf.c ****   HAL_StatusTypeDef hal_status = HAL_OK;
 525:USB_Device/Target/usbd_conf.c ****   USBD_StatusTypeDef usb_status = USBD_OK;
 526:USB_Device/Target/usbd_conf.c **** 
 527:USB_Device/Target/usbd_conf.c ****   hal_status = HAL_PCD_EP_Open(pdev->pData, ep_addr, ep_mps, ep_type);
 528:USB_Device/Target/usbd_conf.c **** 
 529:USB_Device/Target/usbd_conf.c ****   usb_status =  USBD_Get_USB_Status(hal_status);
 530:USB_Device/Target/usbd_conf.c **** 
 531:USB_Device/Target/usbd_conf.c ****   return usb_status;
 532:USB_Device/Target/usbd_conf.c **** }
 533:USB_Device/Target/usbd_conf.c **** 
 534:USB_Device/Target/usbd_conf.c **** /**
 535:USB_Device/Target/usbd_conf.c ****   * @brief  Closes an endpoint of the low level driver.
 536:USB_Device/Target/usbd_conf.c ****   * @param  pdev: Device handle
 537:USB_Device/Target/usbd_conf.c ****   * @param  ep_addr: Endpoint number
 538:USB_Device/Target/usbd_conf.c ****   * @retval USBD status
 539:USB_Device/Target/usbd_conf.c ****   */
 540:USB_Device/Target/usbd_conf.c **** USBD_StatusTypeDef USBD_LL_CloseEP(USBD_HandleTypeDef *pdev, uint8_t ep_addr)
 541:USB_Device/Target/usbd_conf.c **** {
 542:USB_Device/Target/usbd_conf.c ****   HAL_StatusTypeDef hal_status = HAL_OK;
 543:USB_Device/Target/usbd_conf.c ****   USBD_StatusTypeDef usb_status = USBD_OK;
 544:USB_Device/Target/usbd_conf.c **** 
 545:USB_Device/Target/usbd_conf.c ****   hal_status = HAL_PCD_EP_Close(pdev->pData, ep_addr);
ARM GAS  /tmp/cc3SrZzl.s 			page 11


 546:USB_Device/Target/usbd_conf.c **** 
 547:USB_Device/Target/usbd_conf.c ****   usb_status =  USBD_Get_USB_Status(hal_status);
 548:USB_Device/Target/usbd_conf.c **** 
 549:USB_Device/Target/usbd_conf.c ****   return usb_status;
 550:USB_Device/Target/usbd_conf.c **** }
 551:USB_Device/Target/usbd_conf.c **** 
 552:USB_Device/Target/usbd_conf.c **** /**
 553:USB_Device/Target/usbd_conf.c ****   * @brief  Flushes an endpoint of the Low Level Driver.
 554:USB_Device/Target/usbd_conf.c ****   * @param  pdev: Device handle
 555:USB_Device/Target/usbd_conf.c ****   * @param  ep_addr: Endpoint number
 556:USB_Device/Target/usbd_conf.c ****   * @retval USBD status
 557:USB_Device/Target/usbd_conf.c ****   */
 558:USB_Device/Target/usbd_conf.c **** USBD_StatusTypeDef USBD_LL_FlushEP(USBD_HandleTypeDef *pdev, uint8_t ep_addr)
 559:USB_Device/Target/usbd_conf.c **** {
 560:USB_Device/Target/usbd_conf.c ****   HAL_StatusTypeDef hal_status = HAL_OK;
 561:USB_Device/Target/usbd_conf.c ****   USBD_StatusTypeDef usb_status = USBD_OK;
 562:USB_Device/Target/usbd_conf.c **** 
 563:USB_Device/Target/usbd_conf.c ****   hal_status = HAL_PCD_EP_Flush(pdev->pData, ep_addr);
 564:USB_Device/Target/usbd_conf.c **** 
 565:USB_Device/Target/usbd_conf.c ****   usb_status =  USBD_Get_USB_Status(hal_status);
 566:USB_Device/Target/usbd_conf.c **** 
 567:USB_Device/Target/usbd_conf.c ****   return usb_status;
 568:USB_Device/Target/usbd_conf.c **** }
 569:USB_Device/Target/usbd_conf.c **** 
 570:USB_Device/Target/usbd_conf.c **** /**
 571:USB_Device/Target/usbd_conf.c ****   * @brief  Sets a Stall condition on an endpoint of the Low Level Driver.
 572:USB_Device/Target/usbd_conf.c ****   * @param  pdev: Device handle
 573:USB_Device/Target/usbd_conf.c ****   * @param  ep_addr: Endpoint number
 574:USB_Device/Target/usbd_conf.c ****   * @retval USBD status
 575:USB_Device/Target/usbd_conf.c ****   */
 576:USB_Device/Target/usbd_conf.c **** USBD_StatusTypeDef USBD_LL_StallEP(USBD_HandleTypeDef *pdev, uint8_t ep_addr)
 577:USB_Device/Target/usbd_conf.c **** {
 578:USB_Device/Target/usbd_conf.c ****   HAL_StatusTypeDef hal_status = HAL_OK;
 579:USB_Device/Target/usbd_conf.c ****   USBD_StatusTypeDef usb_status = USBD_OK;
 580:USB_Device/Target/usbd_conf.c **** 
 581:USB_Device/Target/usbd_conf.c ****   hal_status = HAL_PCD_EP_SetStall(pdev->pData, ep_addr);
 582:USB_Device/Target/usbd_conf.c **** 
 583:USB_Device/Target/usbd_conf.c ****   usb_status =  USBD_Get_USB_Status(hal_status);
 584:USB_Device/Target/usbd_conf.c **** 
 585:USB_Device/Target/usbd_conf.c ****   return usb_status;
 586:USB_Device/Target/usbd_conf.c **** }
 587:USB_Device/Target/usbd_conf.c **** 
 588:USB_Device/Target/usbd_conf.c **** /**
 589:USB_Device/Target/usbd_conf.c ****   * @brief  Clears a Stall condition on an endpoint of the Low Level Driver.
 590:USB_Device/Target/usbd_conf.c ****   * @param  pdev: Device handle
 591:USB_Device/Target/usbd_conf.c ****   * @param  ep_addr: Endpoint number
 592:USB_Device/Target/usbd_conf.c ****   * @retval USBD status
 593:USB_Device/Target/usbd_conf.c ****   */
 594:USB_Device/Target/usbd_conf.c **** USBD_StatusTypeDef USBD_LL_ClearStallEP(USBD_HandleTypeDef *pdev, uint8_t ep_addr)
 595:USB_Device/Target/usbd_conf.c **** {
 596:USB_Device/Target/usbd_conf.c ****   HAL_StatusTypeDef hal_status = HAL_OK;
 597:USB_Device/Target/usbd_conf.c ****   USBD_StatusTypeDef usb_status = USBD_OK;
 598:USB_Device/Target/usbd_conf.c **** 
 599:USB_Device/Target/usbd_conf.c ****   hal_status = HAL_PCD_EP_ClrStall(pdev->pData, ep_addr);
 600:USB_Device/Target/usbd_conf.c **** 
 601:USB_Device/Target/usbd_conf.c ****   usb_status =  USBD_Get_USB_Status(hal_status);
 602:USB_Device/Target/usbd_conf.c **** 
ARM GAS  /tmp/cc3SrZzl.s 			page 12


 603:USB_Device/Target/usbd_conf.c ****   return usb_status;
 604:USB_Device/Target/usbd_conf.c **** }
 605:USB_Device/Target/usbd_conf.c **** 
 606:USB_Device/Target/usbd_conf.c **** /**
 607:USB_Device/Target/usbd_conf.c ****   * @brief  Returns Stall condition.
 608:USB_Device/Target/usbd_conf.c ****   * @param  pdev: Device handle
 609:USB_Device/Target/usbd_conf.c ****   * @param  ep_addr: Endpoint number
 610:USB_Device/Target/usbd_conf.c ****   * @retval Stall (1: Yes, 0: No)
 611:USB_Device/Target/usbd_conf.c ****   */
 612:USB_Device/Target/usbd_conf.c **** uint8_t USBD_LL_IsStallEP(USBD_HandleTypeDef *pdev, uint8_t ep_addr)
 613:USB_Device/Target/usbd_conf.c **** {
 614:USB_Device/Target/usbd_conf.c ****   PCD_HandleTypeDef *hpcd = (PCD_HandleTypeDef*) pdev->pData;
 615:USB_Device/Target/usbd_conf.c **** 
 616:USB_Device/Target/usbd_conf.c ****   if((ep_addr & 0x80) == 0x80)
 617:USB_Device/Target/usbd_conf.c ****   {
 618:USB_Device/Target/usbd_conf.c ****     return hpcd->IN_ep[ep_addr & 0x7F].is_stall;
 619:USB_Device/Target/usbd_conf.c ****   }
 620:USB_Device/Target/usbd_conf.c ****   else
 621:USB_Device/Target/usbd_conf.c ****   {
 622:USB_Device/Target/usbd_conf.c ****     return hpcd->OUT_ep[ep_addr & 0x7F].is_stall;
 623:USB_Device/Target/usbd_conf.c ****   }
 624:USB_Device/Target/usbd_conf.c **** }
 625:USB_Device/Target/usbd_conf.c **** 
 626:USB_Device/Target/usbd_conf.c **** /**
 627:USB_Device/Target/usbd_conf.c ****   * @brief  Assigns a USB address to the device.
 628:USB_Device/Target/usbd_conf.c ****   * @param  pdev: Device handle
 629:USB_Device/Target/usbd_conf.c ****   * @param  dev_addr: Device address
 630:USB_Device/Target/usbd_conf.c ****   * @retval USBD status
 631:USB_Device/Target/usbd_conf.c ****   */
 632:USB_Device/Target/usbd_conf.c **** USBD_StatusTypeDef USBD_LL_SetUSBAddress(USBD_HandleTypeDef *pdev, uint8_t dev_addr)
 633:USB_Device/Target/usbd_conf.c **** {
 634:USB_Device/Target/usbd_conf.c ****   HAL_StatusTypeDef hal_status = HAL_OK;
 635:USB_Device/Target/usbd_conf.c ****   USBD_StatusTypeDef usb_status = USBD_OK;
 636:USB_Device/Target/usbd_conf.c **** 
 637:USB_Device/Target/usbd_conf.c ****   hal_status = HAL_PCD_SetAddress(pdev->pData, dev_addr);
 638:USB_Device/Target/usbd_conf.c **** 
 639:USB_Device/Target/usbd_conf.c ****   usb_status =  USBD_Get_USB_Status(hal_status);
 640:USB_Device/Target/usbd_conf.c **** 
 641:USB_Device/Target/usbd_conf.c ****   return usb_status;
 642:USB_Device/Target/usbd_conf.c **** }
 643:USB_Device/Target/usbd_conf.c **** 
 644:USB_Device/Target/usbd_conf.c **** /**
 645:USB_Device/Target/usbd_conf.c ****   * @brief  Transmits data over an endpoint.
 646:USB_Device/Target/usbd_conf.c ****   * @param  pdev: Device handle
 647:USB_Device/Target/usbd_conf.c ****   * @param  ep_addr: Endpoint number
 648:USB_Device/Target/usbd_conf.c ****   * @param  pbuf: Pointer to data to be sent
 649:USB_Device/Target/usbd_conf.c ****   * @param  size: Data size
 650:USB_Device/Target/usbd_conf.c ****   * @retval USBD status
 651:USB_Device/Target/usbd_conf.c ****   */
 652:USB_Device/Target/usbd_conf.c **** USBD_StatusTypeDef USBD_LL_Transmit(USBD_HandleTypeDef *pdev, uint8_t ep_addr, uint8_t *pbuf, uint3
 653:USB_Device/Target/usbd_conf.c **** {
 654:USB_Device/Target/usbd_conf.c ****   HAL_StatusTypeDef hal_status = HAL_OK;
 655:USB_Device/Target/usbd_conf.c ****   USBD_StatusTypeDef usb_status = USBD_OK;
 656:USB_Device/Target/usbd_conf.c **** 
 657:USB_Device/Target/usbd_conf.c ****   hal_status = HAL_PCD_EP_Transmit(pdev->pData, ep_addr, pbuf, size);
 658:USB_Device/Target/usbd_conf.c **** 
 659:USB_Device/Target/usbd_conf.c ****   usb_status =  USBD_Get_USB_Status(hal_status);
ARM GAS  /tmp/cc3SrZzl.s 			page 13


 660:USB_Device/Target/usbd_conf.c **** 
 661:USB_Device/Target/usbd_conf.c ****   return usb_status;
 662:USB_Device/Target/usbd_conf.c **** }
 663:USB_Device/Target/usbd_conf.c **** 
 664:USB_Device/Target/usbd_conf.c **** /**
 665:USB_Device/Target/usbd_conf.c ****   * @brief  Prepares an endpoint for reception.
 666:USB_Device/Target/usbd_conf.c ****   * @param  pdev: Device handle
 667:USB_Device/Target/usbd_conf.c ****   * @param  ep_addr: Endpoint number
 668:USB_Device/Target/usbd_conf.c ****   * @param  pbuf: Pointer to data to be received
 669:USB_Device/Target/usbd_conf.c ****   * @param  size: Data size
 670:USB_Device/Target/usbd_conf.c ****   * @retval USBD status
 671:USB_Device/Target/usbd_conf.c ****   */
 672:USB_Device/Target/usbd_conf.c **** USBD_StatusTypeDef USBD_LL_PrepareReceive(USBD_HandleTypeDef *pdev, uint8_t ep_addr, uint8_t *pbuf,
 673:USB_Device/Target/usbd_conf.c **** {
 674:USB_Device/Target/usbd_conf.c ****   HAL_StatusTypeDef hal_status = HAL_OK;
 675:USB_Device/Target/usbd_conf.c ****   USBD_StatusTypeDef usb_status = USBD_OK;
 676:USB_Device/Target/usbd_conf.c **** 
 677:USB_Device/Target/usbd_conf.c ****   hal_status = HAL_PCD_EP_Receive(pdev->pData, ep_addr, pbuf, size);
 678:USB_Device/Target/usbd_conf.c **** 
 679:USB_Device/Target/usbd_conf.c ****   usb_status =  USBD_Get_USB_Status(hal_status);
 680:USB_Device/Target/usbd_conf.c **** 
 681:USB_Device/Target/usbd_conf.c ****   return usb_status;
 682:USB_Device/Target/usbd_conf.c **** }
 683:USB_Device/Target/usbd_conf.c **** 
 684:USB_Device/Target/usbd_conf.c **** /**
 685:USB_Device/Target/usbd_conf.c ****   * @brief  Returns the last transferred packet size.
 686:USB_Device/Target/usbd_conf.c ****   * @param  pdev: Device handle
 687:USB_Device/Target/usbd_conf.c ****   * @param  ep_addr: Endpoint number
 688:USB_Device/Target/usbd_conf.c ****   * @retval Received Data Size
 689:USB_Device/Target/usbd_conf.c ****   */
 690:USB_Device/Target/usbd_conf.c **** uint32_t USBD_LL_GetRxDataSize(USBD_HandleTypeDef *pdev, uint8_t ep_addr)
 691:USB_Device/Target/usbd_conf.c **** {
 692:USB_Device/Target/usbd_conf.c ****   return HAL_PCD_EP_GetRxCount((PCD_HandleTypeDef*) pdev->pData, ep_addr);
 693:USB_Device/Target/usbd_conf.c **** }
 694:USB_Device/Target/usbd_conf.c **** 
 695:USB_Device/Target/usbd_conf.c **** /**
 696:USB_Device/Target/usbd_conf.c ****   * @brief  Send LPM message to user layer
 697:USB_Device/Target/usbd_conf.c ****   * @param  hpcd: PCD handle
 698:USB_Device/Target/usbd_conf.c ****   * @param  msg: LPM message
 699:USB_Device/Target/usbd_conf.c ****   * @retval None
 700:USB_Device/Target/usbd_conf.c ****   */
 701:USB_Device/Target/usbd_conf.c **** #if (USE_HAL_PCD_REGISTER_CALLBACKS == 1U)
 702:USB_Device/Target/usbd_conf.c **** static void PCDEx_LPM_Callback(PCD_HandleTypeDef *hpcd, PCD_LPM_MsgTypeDef msg)
 703:USB_Device/Target/usbd_conf.c **** #else
 704:USB_Device/Target/usbd_conf.c **** void HAL_PCDEx_LPM_Callback(PCD_HandleTypeDef *hpcd, PCD_LPM_MsgTypeDef msg)
 705:USB_Device/Target/usbd_conf.c **** #endif /* USE_HAL_PCD_REGISTER_CALLBACKS */
 706:USB_Device/Target/usbd_conf.c **** {
 707:USB_Device/Target/usbd_conf.c ****   /* USER CODE BEGIN LPM_Callback */
 708:USB_Device/Target/usbd_conf.c ****   switch (msg) {
 709:USB_Device/Target/usbd_conf.c ****   case PCD_LPM_L0_ACTIVE:
 710:USB_Device/Target/usbd_conf.c ****     if (hpcd->Init.low_power_enable) {
 711:USB_Device/Target/usbd_conf.c ****       SystemClockConfig_Resume();
 712:USB_Device/Target/usbd_conf.c **** 
 713:USB_Device/Target/usbd_conf.c ****       /* Reset SLEEPDEEP bit of Cortex System Control Register. */
 714:USB_Device/Target/usbd_conf.c ****       SCB->SCR &= (uint32_t) ~(
 715:USB_Device/Target/usbd_conf.c ****           (uint32_t)(SCB_SCR_SLEEPDEEP_Msk | SCB_SCR_SLEEPONEXIT_Msk));
 716:USB_Device/Target/usbd_conf.c ****     }
ARM GAS  /tmp/cc3SrZzl.s 			page 14


 717:USB_Device/Target/usbd_conf.c ****     /*__HAL_PCD_UNGATE_PHYCLOCK(hpcd);*/
 718:USB_Device/Target/usbd_conf.c ****     USBD_LL_Resume(hpcd->pData);
 719:USB_Device/Target/usbd_conf.c ****     break;
 720:USB_Device/Target/usbd_conf.c **** 
 721:USB_Device/Target/usbd_conf.c ****   case PCD_LPM_L1_ACTIVE:
 722:USB_Device/Target/usbd_conf.c ****     /*__HAL_PCD_GATE_PHYCLOCK(hpcd);*/
 723:USB_Device/Target/usbd_conf.c ****     USBD_LL_Suspend(hpcd->pData);
 724:USB_Device/Target/usbd_conf.c **** 
 725:USB_Device/Target/usbd_conf.c ****     /* Enter in STOP mode. */
 726:USB_Device/Target/usbd_conf.c ****     if (hpcd->Init.low_power_enable) {
 727:USB_Device/Target/usbd_conf.c ****       /* Set SLEEPDEEP bit and SleepOnExit of Cortex System Control Register. */
 728:USB_Device/Target/usbd_conf.c ****       SCB->SCR |= (uint32_t)((uint32_t)(SCB_SCR_SLEEPDEEP_Msk |
 729:USB_Device/Target/usbd_conf.c ****                                         SCB_SCR_SLEEPONEXIT_Msk));
 730:USB_Device/Target/usbd_conf.c ****     }
 731:USB_Device/Target/usbd_conf.c ****     break;
 732:USB_Device/Target/usbd_conf.c ****   }
 733:USB_Device/Target/usbd_conf.c ****   /* USER CODE END LPM_Callback */
 734:USB_Device/Target/usbd_conf.c **** }
 735:USB_Device/Target/usbd_conf.c **** 
 736:USB_Device/Target/usbd_conf.c **** /**
 737:USB_Device/Target/usbd_conf.c ****   * @brief  Static single allocation.
 738:USB_Device/Target/usbd_conf.c ****   * @param  size: Size of allocated memory
 739:USB_Device/Target/usbd_conf.c ****   * @retval None
 740:USB_Device/Target/usbd_conf.c ****   */
 741:USB_Device/Target/usbd_conf.c **** void *USBD_static_malloc(uint32_t size)
 742:USB_Device/Target/usbd_conf.c **** {
 743:USB_Device/Target/usbd_conf.c ****   static uint32_t mem[(sizeof(USBD_CDC_HandleTypeDef)/4)+1];/* On 32-bit boundary */
 744:USB_Device/Target/usbd_conf.c ****   return mem;
 745:USB_Device/Target/usbd_conf.c **** }
 746:USB_Device/Target/usbd_conf.c **** 
 747:USB_Device/Target/usbd_conf.c **** /**
 748:USB_Device/Target/usbd_conf.c ****   * @brief  Dummy memory free
 749:USB_Device/Target/usbd_conf.c ****   * @param  p: Pointer to allocated  memory address
 750:USB_Device/Target/usbd_conf.c ****   * @retval None
 751:USB_Device/Target/usbd_conf.c ****   */
 752:USB_Device/Target/usbd_conf.c **** void USBD_static_free(void *p)
 753:USB_Device/Target/usbd_conf.c **** {
 754:USB_Device/Target/usbd_conf.c **** 
 755:USB_Device/Target/usbd_conf.c **** }
 756:USB_Device/Target/usbd_conf.c **** 
 757:USB_Device/Target/usbd_conf.c **** /**
 758:USB_Device/Target/usbd_conf.c ****   * @brief  Delays routine for the USB Device Library.
 759:USB_Device/Target/usbd_conf.c ****   * @param  Delay: Delay in ms
 760:USB_Device/Target/usbd_conf.c ****   * @retval None
 761:USB_Device/Target/usbd_conf.c ****   */
 762:USB_Device/Target/usbd_conf.c **** void USBD_LL_Delay(uint32_t Delay)
 763:USB_Device/Target/usbd_conf.c **** {
 764:USB_Device/Target/usbd_conf.c ****   HAL_Delay(Delay);
 765:USB_Device/Target/usbd_conf.c **** }
 766:USB_Device/Target/usbd_conf.c **** 
 767:USB_Device/Target/usbd_conf.c **** /* USER CODE BEGIN 5 */
 768:USB_Device/Target/usbd_conf.c **** /**
 769:USB_Device/Target/usbd_conf.c ****  * @brief  Configures system clock after wake-up from USB resume callBack:
 770:USB_Device/Target/usbd_conf.c ****  *         enable HSI, PLL and select PLL as system clock source.
 771:USB_Device/Target/usbd_conf.c ****  * @retval None
 772:USB_Device/Target/usbd_conf.c ****  */
 773:USB_Device/Target/usbd_conf.c **** static void SystemClockConfig_Resume(void) { SystemClock_Config(); }
ARM GAS  /tmp/cc3SrZzl.s 			page 15


 774:USB_Device/Target/usbd_conf.c **** /* USER CODE END 5 */
 775:USB_Device/Target/usbd_conf.c **** 
 776:USB_Device/Target/usbd_conf.c **** /**
 777:USB_Device/Target/usbd_conf.c ****   * @brief  Returns the USB status depending on the HAL status:
 778:USB_Device/Target/usbd_conf.c ****   * @param  hal_status: HAL status
 779:USB_Device/Target/usbd_conf.c ****   * @retval USB status
 780:USB_Device/Target/usbd_conf.c ****   */
 781:USB_Device/Target/usbd_conf.c **** USBD_StatusTypeDef USBD_Get_USB_Status(HAL_StatusTypeDef hal_status)
 782:USB_Device/Target/usbd_conf.c **** {
  27              		.loc 1 782 1 view -0
  28              		.cfi_startproc
  29              		@ args = 0, pretend = 0, frame = 0
  30              		@ frame_needed = 0, uses_anonymous_args = 0
  31              		@ link register save eliminated.
 783:USB_Device/Target/usbd_conf.c ****   USBD_StatusTypeDef usb_status = USBD_OK;
  32              		.loc 1 783 3 view .LVU1
 784:USB_Device/Target/usbd_conf.c **** 
 785:USB_Device/Target/usbd_conf.c ****   switch (hal_status)
  33              		.loc 1 785 3 view .LVU2
  34 0000 0228     		cmp	r0, #2
  35 0002 04D0     		beq	.L3
  36 0004 05D8     		bhi	.L4
  37 0006 0028     		cmp	r0, #0
  38 0008 00D0     		beq	.L2
 786:USB_Device/Target/usbd_conf.c ****   {
 787:USB_Device/Target/usbd_conf.c ****     case HAL_OK :
 788:USB_Device/Target/usbd_conf.c ****       usb_status = USBD_OK;
 789:USB_Device/Target/usbd_conf.c ****     break;
 790:USB_Device/Target/usbd_conf.c ****     case HAL_ERROR :
 791:USB_Device/Target/usbd_conf.c ****       usb_status = USBD_FAIL;
  39              		.loc 1 791 18 is_stmt 0 view .LVU3
  40 000a 0320     		movs	r0, #3
  41              	.LVL1:
  42              	.L2:
 792:USB_Device/Target/usbd_conf.c ****     break;
 793:USB_Device/Target/usbd_conf.c ****     case HAL_BUSY :
 794:USB_Device/Target/usbd_conf.c ****       usb_status = USBD_BUSY;
 795:USB_Device/Target/usbd_conf.c ****     break;
 796:USB_Device/Target/usbd_conf.c ****     case HAL_TIMEOUT :
 797:USB_Device/Target/usbd_conf.c ****       usb_status = USBD_FAIL;
 798:USB_Device/Target/usbd_conf.c ****     break;
 799:USB_Device/Target/usbd_conf.c ****     default :
 800:USB_Device/Target/usbd_conf.c ****       usb_status = USBD_FAIL;
 801:USB_Device/Target/usbd_conf.c ****     break;
 802:USB_Device/Target/usbd_conf.c ****   }
 803:USB_Device/Target/usbd_conf.c ****   return usb_status;
  43              		.loc 1 803 3 is_stmt 1 view .LVU4
 804:USB_Device/Target/usbd_conf.c **** }
  44              		.loc 1 804 1 is_stmt 0 view .LVU5
  45              		@ sp needed
  46 000c 7047     		bx	lr
  47              	.LVL2:
  48              	.L3:
 794:USB_Device/Target/usbd_conf.c ****     break;
  49              		.loc 1 794 18 view .LVU6
  50 000e 0120     		movs	r0, #1
  51              	.LVL3:
ARM GAS  /tmp/cc3SrZzl.s 			page 16


 794:USB_Device/Target/usbd_conf.c ****     break;
  52              		.loc 1 794 18 view .LVU7
  53 0010 FCE7     		b	.L2
  54              	.LVL4:
  55              	.L4:
 797:USB_Device/Target/usbd_conf.c ****     break;
  56              		.loc 1 797 18 view .LVU8
  57 0012 0320     		movs	r0, #3
  58              	.LVL5:
 797:USB_Device/Target/usbd_conf.c ****     break;
  59              		.loc 1 797 18 view .LVU9
  60 0014 FAE7     		b	.L2
  61              		.cfi_endproc
  62              	.LFE402:
  64              		.section	.text.SystemClockConfig_Resume,"ax",%progbits
  65              		.align	1
  66              		.syntax unified
  67              		.code	16
  68              		.thumb_func
  70              	SystemClockConfig_Resume:
  71              	.LFB401:
 773:USB_Device/Target/usbd_conf.c **** /* USER CODE END 5 */
  72              		.loc 1 773 44 is_stmt 1 view -0
  73              		.cfi_startproc
  74              		@ args = 0, pretend = 0, frame = 0
  75              		@ frame_needed = 0, uses_anonymous_args = 0
  76 0000 10B5     		push	{r4, lr}
  77              	.LCFI0:
  78              		.cfi_def_cfa_offset 8
  79              		.cfi_offset 4, -8
  80              		.cfi_offset 14, -4
 773:USB_Device/Target/usbd_conf.c **** /* USER CODE END 5 */
  81              		.loc 1 773 46 view .LVU11
  82 0002 FFF7FEFF 		bl	SystemClock_Config
  83              	.LVL6:
 773:USB_Device/Target/usbd_conf.c **** /* USER CODE END 5 */
  84              		.loc 1 773 68 is_stmt 0 view .LVU12
  85              		@ sp needed
  86 0006 10BD     		pop	{r4, pc}
  87              		.cfi_endproc
  88              	.LFE401:
  90              		.section	.text.HAL_PCD_MspInit,"ax",%progbits
  91              		.align	1
  92              		.global	HAL_PCD_MspInit
  93              		.syntax unified
  94              		.code	16
  95              		.thumb_func
  97              	HAL_PCD_MspInit:
  98              	.LVL7:
  99              	.LFB370:
  71:USB_Device/Target/usbd_conf.c ****   RCC_PeriphCLKInitTypeDef PeriphClkInit = {0};
 100              		.loc 1 71 1 is_stmt 1 view -0
 101              		.cfi_startproc
 102              		@ args = 0, pretend = 0, frame = 88
 103              		@ frame_needed = 0, uses_anonymous_args = 0
  71:USB_Device/Target/usbd_conf.c ****   RCC_PeriphCLKInitTypeDef PeriphClkInit = {0};
 104              		.loc 1 71 1 is_stmt 0 view .LVU14
ARM GAS  /tmp/cc3SrZzl.s 			page 17


 105 0000 10B5     		push	{r4, lr}
 106              	.LCFI1:
 107              		.cfi_def_cfa_offset 8
 108              		.cfi_offset 4, -8
 109              		.cfi_offset 14, -4
 110 0002 96B0     		sub	sp, sp, #88
 111              	.LCFI2:
 112              		.cfi_def_cfa_offset 96
 113 0004 0400     		movs	r4, r0
  72:USB_Device/Target/usbd_conf.c ****   if(pcdHandle->Instance==USB_DRD_FS)
 114              		.loc 1 72 3 is_stmt 1 view .LVU15
  72:USB_Device/Target/usbd_conf.c ****   if(pcdHandle->Instance==USB_DRD_FS)
 115              		.loc 1 72 28 is_stmt 0 view .LVU16
 116 0006 4C22     		movs	r2, #76
 117 0008 0021     		movs	r1, #0
 118 000a 03A8     		add	r0, sp, #12
 119              	.LVL8:
  72:USB_Device/Target/usbd_conf.c ****   if(pcdHandle->Instance==USB_DRD_FS)
 120              		.loc 1 72 28 view .LVU17
 121 000c FFF7FEFF 		bl	memset
 122              	.LVL9:
  73:USB_Device/Target/usbd_conf.c ****   {
 123              		.loc 1 73 3 is_stmt 1 view .LVU18
  73:USB_Device/Target/usbd_conf.c ****   {
 124              		.loc 1 73 15 is_stmt 0 view .LVU19
 125 0010 2268     		ldr	r2, [r4]
  73:USB_Device/Target/usbd_conf.c ****   {
 126              		.loc 1 73 5 view .LVU20
 127 0012 1C4B     		ldr	r3, .L14
 128 0014 9A42     		cmp	r2, r3
 129 0016 01D0     		beq	.L12
 130              	.LVL10:
 131              	.L7:
 110:USB_Device/Target/usbd_conf.c **** 
 132              		.loc 1 110 1 view .LVU21
 133 0018 16B0     		add	sp, sp, #88
 134              		@ sp needed
 135 001a 10BD     		pop	{r4, pc}
 136              	.LVL11:
 137              	.L12:
  81:USB_Device/Target/usbd_conf.c ****     PeriphClkInit.UsbClockSelection = RCC_USBCLKSOURCE_HSI48;
 138              		.loc 1 81 5 is_stmt 1 view .LVU22
  81:USB_Device/Target/usbd_conf.c ****     PeriphClkInit.UsbClockSelection = RCC_USBCLKSOURCE_HSI48;
 139              		.loc 1 81 40 is_stmt 0 view .LVU23
 140 001c 8023     		movs	r3, #128
 141 001e 5B04     		lsls	r3, r3, #17
 142 0020 0393     		str	r3, [sp, #12]
  82:USB_Device/Target/usbd_conf.c ****     if (HAL_RCCEx_PeriphCLKConfig(&PeriphClkInit) != HAL_OK)
 143              		.loc 1 82 5 is_stmt 1 view .LVU24
  83:USB_Device/Target/usbd_conf.c ****     {
 144              		.loc 1 83 5 view .LVU25
  83:USB_Device/Target/usbd_conf.c ****     {
 145              		.loc 1 83 9 is_stmt 0 view .LVU26
 146 0022 03A8     		add	r0, sp, #12
 147 0024 FFF7FEFF 		bl	HAL_RCCEx_PeriphCLKConfig
 148              	.LVL12:
  83:USB_Device/Target/usbd_conf.c ****     {
ARM GAS  /tmp/cc3SrZzl.s 			page 18


 149              		.loc 1 83 8 discriminator 1 view .LVU27
 150 0028 0028     		cmp	r0, #0
 151 002a 25D1     		bne	.L13
 152              	.L9:
  89:USB_Device/Target/usbd_conf.c **** 
 153              		.loc 1 89 5 is_stmt 1 view .LVU28
 154              	.LBB2:
  89:USB_Device/Target/usbd_conf.c **** 
 155              		.loc 1 89 5 view .LVU29
  89:USB_Device/Target/usbd_conf.c **** 
 156              		.loc 1 89 5 view .LVU30
 157 002c 164B     		ldr	r3, .L14+4
 158 002e DA6B     		ldr	r2, [r3, #60]
 159 0030 8021     		movs	r1, #128
 160 0032 8901     		lsls	r1, r1, #6
 161 0034 0A43     		orrs	r2, r1
 162 0036 DA63     		str	r2, [r3, #60]
  89:USB_Device/Target/usbd_conf.c **** 
 163              		.loc 1 89 5 view .LVU31
 164 0038 DA6B     		ldr	r2, [r3, #60]
 165 003a 0A40     		ands	r2, r1
 166 003c 0192     		str	r2, [sp, #4]
  89:USB_Device/Target/usbd_conf.c **** 
 167              		.loc 1 89 5 view .LVU32
 168 003e 019A     		ldr	r2, [sp, #4]
 169              	.LBE2:
  89:USB_Device/Target/usbd_conf.c **** 
 170              		.loc 1 89 5 view .LVU33
  92:USB_Device/Target/usbd_conf.c ****     {
 171              		.loc 1 92 5 view .LVU34
  92:USB_Device/Target/usbd_conf.c ****     {
 172              		.loc 1 92 8 is_stmt 0 view .LVU35
 173 0040 DB6B     		ldr	r3, [r3, #60]
  92:USB_Device/Target/usbd_conf.c ****     {
 174              		.loc 1 92 7 view .LVU36
 175 0042 DB00     		lsls	r3, r3, #3
 176 0044 1BD4     		bmi	.L10
  94:USB_Device/Target/usbd_conf.c ****       HAL_PWREx_EnableVddUSB();
 177              		.loc 1 94 7 is_stmt 1 view .LVU37
 178              	.LBB3:
  94:USB_Device/Target/usbd_conf.c ****       HAL_PWREx_EnableVddUSB();
 179              		.loc 1 94 7 view .LVU38
  94:USB_Device/Target/usbd_conf.c ****       HAL_PWREx_EnableVddUSB();
 180              		.loc 1 94 7 view .LVU39
 181 0046 104C     		ldr	r4, .L14+4
 182              	.LVL13:
  94:USB_Device/Target/usbd_conf.c ****       HAL_PWREx_EnableVddUSB();
 183              		.loc 1 94 7 is_stmt 0 view .LVU40
 184 0048 E36B     		ldr	r3, [r4, #60]
 185 004a 8022     		movs	r2, #128
 186 004c 5205     		lsls	r2, r2, #21
 187 004e 1343     		orrs	r3, r2
 188 0050 E363     		str	r3, [r4, #60]
  94:USB_Device/Target/usbd_conf.c ****       HAL_PWREx_EnableVddUSB();
 189              		.loc 1 94 7 is_stmt 1 view .LVU41
 190 0052 E36B     		ldr	r3, [r4, #60]
 191 0054 1340     		ands	r3, r2
ARM GAS  /tmp/cc3SrZzl.s 			page 19


 192 0056 0293     		str	r3, [sp, #8]
  94:USB_Device/Target/usbd_conf.c ****       HAL_PWREx_EnableVddUSB();
 193              		.loc 1 94 7 view .LVU42
 194 0058 029B     		ldr	r3, [sp, #8]
 195              	.LBE3:
  94:USB_Device/Target/usbd_conf.c ****       HAL_PWREx_EnableVddUSB();
 196              		.loc 1 94 7 view .LVU43
  95:USB_Device/Target/usbd_conf.c ****       __HAL_RCC_PWR_CLK_DISABLE();
 197              		.loc 1 95 7 view .LVU44
 198 005a FFF7FEFF 		bl	HAL_PWREx_EnableVddUSB
 199              	.LVL14:
  96:USB_Device/Target/usbd_conf.c ****     }
 200              		.loc 1 96 7 view .LVU45
 201 005e E36B     		ldr	r3, [r4, #60]
 202 0060 0A4A     		ldr	r2, .L14+8
 203 0062 1340     		ands	r3, r2
 204 0064 E363     		str	r3, [r4, #60]
 205              	.L11:
 104:USB_Device/Target/usbd_conf.c ****     HAL_NVIC_EnableIRQ(USB_UCPD1_2_IRQn);
 206              		.loc 1 104 5 view .LVU46
 207 0066 0022     		movs	r2, #0
 208 0068 0021     		movs	r1, #0
 209 006a 0820     		movs	r0, #8
 210 006c FFF7FEFF 		bl	HAL_NVIC_SetPriority
 211              	.LVL15:
 105:USB_Device/Target/usbd_conf.c ****   /* USER CODE BEGIN USB_DRD_FS_MspInit 1 */
 212              		.loc 1 105 5 view .LVU47
 213 0070 0820     		movs	r0, #8
 214 0072 FFF7FEFF 		bl	HAL_NVIC_EnableIRQ
 215              	.LVL16:
 110:USB_Device/Target/usbd_conf.c **** 
 216              		.loc 1 110 1 is_stmt 0 view .LVU48
 217 0076 CFE7     		b	.L7
 218              	.LVL17:
 219              	.L13:
  85:USB_Device/Target/usbd_conf.c ****     }
 220              		.loc 1 85 7 is_stmt 1 view .LVU49
 221 0078 FFF7FEFF 		bl	Error_Handler
 222              	.LVL18:
 223 007c D6E7     		b	.L9
 224              	.L10:
 100:USB_Device/Target/usbd_conf.c ****     }
 225              		.loc 1 100 7 view .LVU50
 226 007e FFF7FEFF 		bl	HAL_PWREx_EnableVddUSB
 227              	.LVL19:
 228 0082 F0E7     		b	.L11
 229              	.L15:
 230              		.align	2
 231              	.L14:
 232 0084 005C0040 		.word	1073765376
 233 0088 00100240 		.word	1073876992
 234 008c FFFFFFEF 		.word	-268435457
 235              		.cfi_endproc
 236              	.LFE370:
 238              		.section	.text.HAL_PCD_MspDeInit,"ax",%progbits
 239              		.align	1
 240              		.global	HAL_PCD_MspDeInit
ARM GAS  /tmp/cc3SrZzl.s 			page 20


 241              		.syntax unified
 242              		.code	16
 243              		.thumb_func
 245              	HAL_PCD_MspDeInit:
 246              	.LVL20:
 247              	.LFB371:
 113:USB_Device/Target/usbd_conf.c ****   if(pcdHandle->Instance==USB_DRD_FS)
 248              		.loc 1 113 1 view -0
 249              		.cfi_startproc
 250              		@ args = 0, pretend = 0, frame = 0
 251              		@ frame_needed = 0, uses_anonymous_args = 0
 113:USB_Device/Target/usbd_conf.c ****   if(pcdHandle->Instance==USB_DRD_FS)
 252              		.loc 1 113 1 is_stmt 0 view .LVU52
 253 0000 10B5     		push	{r4, lr}
 254              	.LCFI3:
 255              		.cfi_def_cfa_offset 8
 256              		.cfi_offset 4, -8
 257              		.cfi_offset 14, -4
 114:USB_Device/Target/usbd_conf.c ****   {
 258              		.loc 1 114 3 is_stmt 1 view .LVU53
 114:USB_Device/Target/usbd_conf.c ****   {
 259              		.loc 1 114 15 is_stmt 0 view .LVU54
 260 0002 0268     		ldr	r2, [r0]
 114:USB_Device/Target/usbd_conf.c ****   {
 261              		.loc 1 114 5 view .LVU55
 262 0004 064B     		ldr	r3, .L19
 263 0006 9A42     		cmp	r2, r3
 264 0008 00D0     		beq	.L18
 265              	.LVL21:
 266              	.L16:
 129:USB_Device/Target/usbd_conf.c **** 
 267              		.loc 1 129 1 view .LVU56
 268              		@ sp needed
 269 000a 10BD     		pop	{r4, pc}
 270              	.LVL22:
 271              	.L18:
 120:USB_Device/Target/usbd_conf.c **** 
 272              		.loc 1 120 5 is_stmt 1 view .LVU57
 273 000c 054A     		ldr	r2, .L19+4
 274 000e D36B     		ldr	r3, [r2, #60]
 275 0010 0549     		ldr	r1, .L19+8
 276 0012 0B40     		ands	r3, r1
 277 0014 D363     		str	r3, [r2, #60]
 123:USB_Device/Target/usbd_conf.c **** 
 278              		.loc 1 123 5 view .LVU58
 279 0016 0820     		movs	r0, #8
 280              	.LVL23:
 123:USB_Device/Target/usbd_conf.c **** 
 281              		.loc 1 123 5 is_stmt 0 view .LVU59
 282 0018 FFF7FEFF 		bl	HAL_NVIC_DisableIRQ
 283              	.LVL24:
 129:USB_Device/Target/usbd_conf.c **** 
 284              		.loc 1 129 1 view .LVU60
 285 001c F5E7     		b	.L16
 286              	.L20:
 287 001e C046     		.align	2
 288              	.L19:
ARM GAS  /tmp/cc3SrZzl.s 			page 21


 289 0020 005C0040 		.word	1073765376
 290 0024 00100240 		.word	1073876992
 291 0028 FFDFFFFF 		.word	-8193
 292              		.cfi_endproc
 293              	.LFE371:
 295              		.section	.text.HAL_PCD_SetupStageCallback,"ax",%progbits
 296              		.align	1
 297              		.global	HAL_PCD_SetupStageCallback
 298              		.syntax unified
 299              		.code	16
 300              		.thumb_func
 302              	HAL_PCD_SetupStageCallback:
 303              	.LVL25:
 304              	.LFB372:
 141:USB_Device/Target/usbd_conf.c ****   /* USER CODE BEGIN HAL_PCD_SetupStageCallback_PreTreatment */
 305              		.loc 1 141 1 is_stmt 1 view -0
 306              		.cfi_startproc
 307              		@ args = 0, pretend = 0, frame = 0
 308              		@ frame_needed = 0, uses_anonymous_args = 0
 141:USB_Device/Target/usbd_conf.c ****   /* USER CODE BEGIN HAL_PCD_SetupStageCallback_PreTreatment */
 309              		.loc 1 141 1 is_stmt 0 view .LVU62
 310 0000 10B5     		push	{r4, lr}
 311              	.LCFI4:
 312              		.cfi_def_cfa_offset 8
 313              		.cfi_offset 4, -8
 314              		.cfi_offset 14, -4
 315 0002 0100     		movs	r1, r0
 145:USB_Device/Target/usbd_conf.c ****   /* USER CODE BEGIN HAL_PCD_SetupStageCallback_PostTreatment */
 316              		.loc 1 145 3 is_stmt 1 view .LVU63
 145:USB_Device/Target/usbd_conf.c ****   /* USER CODE BEGIN HAL_PCD_SetupStageCallback_PostTreatment */
 317              		.loc 1 145 47 is_stmt 0 view .LVU64
 318 0004 B723     		movs	r3, #183
 319 0006 9B00     		lsls	r3, r3, #2
 320 0008 C058     		ldr	r0, [r0, r3]
 321              	.LVL26:
 145:USB_Device/Target/usbd_conf.c ****   /* USER CODE BEGIN HAL_PCD_SetupStageCallback_PostTreatment */
 322              		.loc 1 145 67 view .LVU65
 323 000a 403B     		subs	r3, r3, #64
 324 000c 9C46     		mov	ip, r3
 325 000e 6144     		add	r1, r1, ip
 326              	.LVL27:
 145:USB_Device/Target/usbd_conf.c ****   /* USER CODE BEGIN HAL_PCD_SetupStageCallback_PostTreatment */
 327              		.loc 1 145 3 view .LVU66
 328 0010 FFF7FEFF 		bl	USBD_LL_SetupStage
 329              	.LVL28:
 149:USB_Device/Target/usbd_conf.c **** 
 330              		.loc 1 149 1 view .LVU67
 331              		@ sp needed
 332 0014 10BD     		pop	{r4, pc}
 333              		.cfi_endproc
 334              	.LFE372:
 336              		.section	.text.HAL_PCD_DataOutStageCallback,"ax",%progbits
 337              		.align	1
 338              		.global	HAL_PCD_DataOutStageCallback
 339              		.syntax unified
 340              		.code	16
 341              		.thumb_func
ARM GAS  /tmp/cc3SrZzl.s 			page 22


 343              	HAL_PCD_DataOutStageCallback:
 344              	.LVL29:
 345              	.LFB373:
 162:USB_Device/Target/usbd_conf.c ****   /* USER CODE BEGIN HAL_PCD_DataOutStageCallback_PreTreatment */
 346              		.loc 1 162 1 is_stmt 1 view -0
 347              		.cfi_startproc
 348              		@ args = 0, pretend = 0, frame = 0
 349              		@ frame_needed = 0, uses_anonymous_args = 0
 162:USB_Device/Target/usbd_conf.c ****   /* USER CODE BEGIN HAL_PCD_DataOutStageCallback_PreTreatment */
 350              		.loc 1 162 1 is_stmt 0 view .LVU69
 351 0000 10B5     		push	{r4, lr}
 352              	.LCFI5:
 353              		.cfi_def_cfa_offset 8
 354              		.cfi_offset 4, -8
 355              		.cfi_offset 14, -4
 356 0002 0300     		movs	r3, r0
 166:USB_Device/Target/usbd_conf.c ****   /* USER CODE BEGIN HAL_PCD_DataOutStageCallback_PostTreatment */
 357              		.loc 1 166 3 is_stmt 1 view .LVU70
 166:USB_Device/Target/usbd_conf.c ****   /* USER CODE BEGIN HAL_PCD_DataOutStageCallback_PostTreatment */
 358              		.loc 1 166 49 is_stmt 0 view .LVU71
 359 0004 B722     		movs	r2, #183
 360 0006 9200     		lsls	r2, r2, #2
 361 0008 8058     		ldr	r0, [r0, r2]
 362              	.LVL30:
 166:USB_Device/Target/usbd_conf.c ****   /* USER CODE BEGIN HAL_PCD_DataOutStageCallback_PostTreatment */
 363              		.loc 1 166 3 view .LVU72
 364 000a 8A00     		lsls	r2, r1, #2
 365 000c 5218     		adds	r2, r2, r1
 366 000e D200     		lsls	r2, r2, #3
 367 0010 9B18     		adds	r3, r3, r2
 368              	.LVL31:
 166:USB_Device/Target/usbd_conf.c ****   /* USER CODE BEGIN HAL_PCD_DataOutStageCallback_PostTreatment */
 369              		.loc 1 166 3 view .LVU73
 370 0012 6933     		adds	r3, r3, #105
 371 0014 FF33     		adds	r3, r3, #255
 372 0016 1A68     		ldr	r2, [r3]
 373 0018 FFF7FEFF 		bl	USBD_LL_DataOutStage
 374              	.LVL32:
 170:USB_Device/Target/usbd_conf.c **** 
 375              		.loc 1 170 1 view .LVU74
 376              		@ sp needed
 377 001c 10BD     		pop	{r4, pc}
 378              		.cfi_endproc
 379              	.LFE373:
 381              		.section	.text.HAL_PCD_DataInStageCallback,"ax",%progbits
 382              		.align	1
 383              		.global	HAL_PCD_DataInStageCallback
 384              		.syntax unified
 385              		.code	16
 386              		.thumb_func
 388              	HAL_PCD_DataInStageCallback:
 389              	.LVL33:
 390              	.LFB374:
 183:USB_Device/Target/usbd_conf.c ****   /* USER CODE BEGIN HAL_PCD_DataInStageCallback_PreTreatment */
 391              		.loc 1 183 1 is_stmt 1 view -0
 392              		.cfi_startproc
 393              		@ args = 0, pretend = 0, frame = 0
ARM GAS  /tmp/cc3SrZzl.s 			page 23


 394              		@ frame_needed = 0, uses_anonymous_args = 0
 183:USB_Device/Target/usbd_conf.c ****   /* USER CODE BEGIN HAL_PCD_DataInStageCallback_PreTreatment */
 395              		.loc 1 183 1 is_stmt 0 view .LVU76
 396 0000 10B5     		push	{r4, lr}
 397              	.LCFI6:
 398              		.cfi_def_cfa_offset 8
 399              		.cfi_offset 4, -8
 400              		.cfi_offset 14, -4
 401 0002 0300     		movs	r3, r0
 187:USB_Device/Target/usbd_conf.c ****   /* USER CODE BEGIN HAL_PCD_DataInStageCallback_PostTreatment  */
 402              		.loc 1 187 3 is_stmt 1 view .LVU77
 187:USB_Device/Target/usbd_conf.c ****   /* USER CODE BEGIN HAL_PCD_DataInStageCallback_PostTreatment  */
 403              		.loc 1 187 48 is_stmt 0 view .LVU78
 404 0004 B722     		movs	r2, #183
 405 0006 9200     		lsls	r2, r2, #2
 406 0008 8058     		ldr	r0, [r0, r2]
 407              	.LVL34:
 187:USB_Device/Target/usbd_conf.c ****   /* USER CODE BEGIN HAL_PCD_DataInStageCallback_PostTreatment  */
 408              		.loc 1 187 3 view .LVU79
 409 000a 8A00     		lsls	r2, r1, #2
 410 000c 5218     		adds	r2, r2, r1
 411 000e D200     		lsls	r2, r2, #3
 412 0010 9B18     		adds	r3, r3, r2
 413              	.LVL35:
 187:USB_Device/Target/usbd_conf.c ****   /* USER CODE BEGIN HAL_PCD_DataInStageCallback_PostTreatment  */
 414              		.loc 1 187 3 view .LVU80
 415 0012 9A6A     		ldr	r2, [r3, #40]
 416 0014 FFF7FEFF 		bl	USBD_LL_DataInStage
 417              	.LVL36:
 191:USB_Device/Target/usbd_conf.c **** 
 418              		.loc 1 191 1 view .LVU81
 419              		@ sp needed
 420 0018 10BD     		pop	{r4, pc}
 421              		.cfi_endproc
 422              	.LFE374:
 424              		.section	.text.HAL_PCD_SOFCallback,"ax",%progbits
 425              		.align	1
 426              		.global	HAL_PCD_SOFCallback
 427              		.syntax unified
 428              		.code	16
 429              		.thumb_func
 431              	HAL_PCD_SOFCallback:
 432              	.LVL37:
 433              	.LFB375:
 203:USB_Device/Target/usbd_conf.c ****   /* USER CODE BEGIN HAL_PCD_SOFCallback_PreTreatment */
 434              		.loc 1 203 1 is_stmt 1 view -0
 435              		.cfi_startproc
 436              		@ args = 0, pretend = 0, frame = 0
 437              		@ frame_needed = 0, uses_anonymous_args = 0
 203:USB_Device/Target/usbd_conf.c ****   /* USER CODE BEGIN HAL_PCD_SOFCallback_PreTreatment */
 438              		.loc 1 203 1 is_stmt 0 view .LVU83
 439 0000 10B5     		push	{r4, lr}
 440              	.LCFI7:
 441              		.cfi_def_cfa_offset 8
 442              		.cfi_offset 4, -8
 443              		.cfi_offset 14, -4
 207:USB_Device/Target/usbd_conf.c ****   /* USER CODE BEGIN HAL_PCD_SOFCallback_PostTreatment */
ARM GAS  /tmp/cc3SrZzl.s 			page 24


 444              		.loc 1 207 3 is_stmt 1 view .LVU84
 207:USB_Device/Target/usbd_conf.c ****   /* USER CODE BEGIN HAL_PCD_SOFCallback_PostTreatment */
 445              		.loc 1 207 40 is_stmt 0 view .LVU85
 446 0002 B723     		movs	r3, #183
 447 0004 9B00     		lsls	r3, r3, #2
 448 0006 C058     		ldr	r0, [r0, r3]
 449              	.LVL38:
 207:USB_Device/Target/usbd_conf.c ****   /* USER CODE BEGIN HAL_PCD_SOFCallback_PostTreatment */
 450              		.loc 1 207 3 view .LVU86
 451 0008 FFF7FEFF 		bl	USBD_LL_SOF
 452              	.LVL39:
 211:USB_Device/Target/usbd_conf.c **** 
 453              		.loc 1 211 1 view .LVU87
 454              		@ sp needed
 455 000c 10BD     		pop	{r4, pc}
 456              		.cfi_endproc
 457              	.LFE375:
 459              		.section	.text.HAL_PCD_ResetCallback,"ax",%progbits
 460              		.align	1
 461              		.global	HAL_PCD_ResetCallback
 462              		.syntax unified
 463              		.code	16
 464              		.thumb_func
 466              	HAL_PCD_ResetCallback:
 467              	.LVL40:
 468              	.LFB376:
 223:USB_Device/Target/usbd_conf.c ****   /* USER CODE BEGIN HAL_PCD_ResetCallback_PreTreatment */
 469              		.loc 1 223 1 is_stmt 1 view -0
 470              		.cfi_startproc
 471              		@ args = 0, pretend = 0, frame = 0
 472              		@ frame_needed = 0, uses_anonymous_args = 0
 223:USB_Device/Target/usbd_conf.c ****   /* USER CODE BEGIN HAL_PCD_ResetCallback_PreTreatment */
 473              		.loc 1 223 1 is_stmt 0 view .LVU89
 474 0000 70B5     		push	{r4, r5, r6, lr}
 475              	.LCFI8:
 476              		.cfi_def_cfa_offset 16
 477              		.cfi_offset 4, -16
 478              		.cfi_offset 5, -12
 479              		.cfi_offset 6, -8
 480              		.cfi_offset 14, -4
 481 0002 0400     		movs	r4, r0
 227:USB_Device/Target/usbd_conf.c ****   if (hpcd->Init.speed != USBD_FS_SPEED)
 482              		.loc 1 227 3 is_stmt 1 view .LVU90
 483              	.LVL41:
 228:USB_Device/Target/usbd_conf.c ****   {
 484              		.loc 1 228 3 view .LVU91
 228:USB_Device/Target/usbd_conf.c ****   {
 485              		.loc 1 228 17 is_stmt 0 view .LVU92
 486 0004 C379     		ldrb	r3, [r0, #7]
 228:USB_Device/Target/usbd_conf.c ****   {
 487              		.loc 1 228 6 view .LVU93
 488 0006 022B     		cmp	r3, #2
 489 0008 09D1     		bne	.L27
 490              	.LVL42:
 491              	.L26:
 233:USB_Device/Target/usbd_conf.c **** 
 492              		.loc 1 233 3 is_stmt 1 view .LVU94
ARM GAS  /tmp/cc3SrZzl.s 			page 25


 233:USB_Device/Target/usbd_conf.c **** 
 493              		.loc 1 233 45 is_stmt 0 view .LVU95
 494 000a B725     		movs	r5, #183
 495 000c AD00     		lsls	r5, r5, #2
 496 000e 6059     		ldr	r0, [r4, r5]
 233:USB_Device/Target/usbd_conf.c **** 
 497              		.loc 1 233 3 view .LVU96
 498 0010 0121     		movs	r1, #1
 499 0012 FFF7FEFF 		bl	USBD_LL_SetSpeed
 500              	.LVL43:
 236:USB_Device/Target/usbd_conf.c ****   /* USER CODE BEGIN HAL_PCD_ResetCallback_PostTreatment */
 501              		.loc 1 236 3 is_stmt 1 view .LVU97
 236:USB_Device/Target/usbd_conf.c ****   /* USER CODE BEGIN HAL_PCD_ResetCallback_PostTreatment */
 502              		.loc 1 236 42 is_stmt 0 view .LVU98
 503 0016 6059     		ldr	r0, [r4, r5]
 236:USB_Device/Target/usbd_conf.c ****   /* USER CODE BEGIN HAL_PCD_ResetCallback_PostTreatment */
 504              		.loc 1 236 3 view .LVU99
 505 0018 FFF7FEFF 		bl	USBD_LL_Reset
 506              	.LVL44:
 240:USB_Device/Target/usbd_conf.c **** 
 507              		.loc 1 240 1 view .LVU100
 508              		@ sp needed
 509              	.LVL45:
 240:USB_Device/Target/usbd_conf.c **** 
 510              		.loc 1 240 1 view .LVU101
 511 001c 70BD     		pop	{r4, r5, r6, pc}
 512              	.LVL46:
 513              	.L27:
 230:USB_Device/Target/usbd_conf.c ****   }
 514              		.loc 1 230 5 is_stmt 1 view .LVU102
 515 001e FFF7FEFF 		bl	Error_Handler
 516              	.LVL47:
 230:USB_Device/Target/usbd_conf.c ****   }
 517              		.loc 1 230 5 is_stmt 0 view .LVU103
 518 0022 F2E7     		b	.L26
 519              		.cfi_endproc
 520              	.LFE376:
 522              		.section	.text.HAL_PCD_SuspendCallback,"ax",%progbits
 523              		.align	1
 524              		.global	HAL_PCD_SuspendCallback
 525              		.syntax unified
 526              		.code	16
 527              		.thumb_func
 529              	HAL_PCD_SuspendCallback:
 530              	.LVL48:
 531              	.LFB377:
 253:USB_Device/Target/usbd_conf.c ****   /* USER CODE BEGIN HAL_PCD_SuspendCallback_PreTreatment */
 532              		.loc 1 253 1 is_stmt 1 view -0
 533              		.cfi_startproc
 534              		@ args = 0, pretend = 0, frame = 0
 535              		@ frame_needed = 0, uses_anonymous_args = 0
 253:USB_Device/Target/usbd_conf.c ****   /* USER CODE BEGIN HAL_PCD_SuspendCallback_PreTreatment */
 536              		.loc 1 253 1 is_stmt 0 view .LVU105
 537 0000 10B5     		push	{r4, lr}
 538              	.LCFI9:
 539              		.cfi_def_cfa_offset 8
 540              		.cfi_offset 4, -8
ARM GAS  /tmp/cc3SrZzl.s 			page 26


 541              		.cfi_offset 14, -4
 542 0002 0400     		movs	r4, r0
 259:USB_Device/Target/usbd_conf.c ****   /* Enter in STOP mode. */
 543              		.loc 1 259 3 is_stmt 1 view .LVU106
 259:USB_Device/Target/usbd_conf.c ****   /* Enter in STOP mode. */
 544              		.loc 1 259 44 is_stmt 0 view .LVU107
 545 0004 B723     		movs	r3, #183
 546 0006 9B00     		lsls	r3, r3, #2
 547 0008 C058     		ldr	r0, [r0, r3]
 548              	.LVL49:
 259:USB_Device/Target/usbd_conf.c ****   /* Enter in STOP mode. */
 549              		.loc 1 259 3 view .LVU108
 550 000a FFF7FEFF 		bl	USBD_LL_Suspend
 551              	.LVL50:
 262:USB_Device/Target/usbd_conf.c ****     /* Set SLEEPDEEP bit and SleepOnExit of Cortex System Control Register. */
 552              		.loc 1 262 3 is_stmt 1 view .LVU109
 262:USB_Device/Target/usbd_conf.c ****     /* Set SLEEPDEEP bit and SleepOnExit of Cortex System Control Register. */
 553              		.loc 1 262 17 is_stmt 0 view .LVU110
 554 000e E37A     		ldrb	r3, [r4, #11]
 262:USB_Device/Target/usbd_conf.c ****     /* Set SLEEPDEEP bit and SleepOnExit of Cortex System Control Register. */
 555              		.loc 1 262 6 view .LVU111
 556 0010 002B     		cmp	r3, #0
 557 0012 04D0     		beq	.L28
 264:USB_Device/Target/usbd_conf.c ****         (uint32_t)((uint32_t)(SCB_SCR_SLEEPDEEP_Msk | SCB_SCR_SLEEPONEXIT_Msk));
 558              		.loc 1 264 5 is_stmt 1 view .LVU112
 264:USB_Device/Target/usbd_conf.c ****         (uint32_t)((uint32_t)(SCB_SCR_SLEEPDEEP_Msk | SCB_SCR_SLEEPONEXIT_Msk));
 559              		.loc 1 264 8 is_stmt 0 view .LVU113
 560 0014 024A     		ldr	r2, .L30
 561 0016 1369     		ldr	r3, [r2, #16]
 264:USB_Device/Target/usbd_conf.c ****         (uint32_t)((uint32_t)(SCB_SCR_SLEEPDEEP_Msk | SCB_SCR_SLEEPONEXIT_Msk));
 562              		.loc 1 264 14 view .LVU114
 563 0018 0621     		movs	r1, #6
 564 001a 0B43     		orrs	r3, r1
 565 001c 1361     		str	r3, [r2, #16]
 566              	.L28:
 271:USB_Device/Target/usbd_conf.c **** 
 567              		.loc 1 271 1 view .LVU115
 568              		@ sp needed
 569              	.LVL51:
 271:USB_Device/Target/usbd_conf.c **** 
 570              		.loc 1 271 1 view .LVU116
 571 001e 10BD     		pop	{r4, pc}
 572              	.L31:
 573              		.align	2
 574              	.L30:
 575 0020 00ED00E0 		.word	-536810240
 576              		.cfi_endproc
 577              	.LFE377:
 579              		.section	.text.HAL_PCD_ResumeCallback,"ax",%progbits
 580              		.align	1
 581              		.global	HAL_PCD_ResumeCallback
 582              		.syntax unified
 583              		.code	16
 584              		.thumb_func
 586              	HAL_PCD_ResumeCallback:
 587              	.LVL52:
 588              	.LFB378:
ARM GAS  /tmp/cc3SrZzl.s 			page 27


 284:USB_Device/Target/usbd_conf.c ****   /* USER CODE BEGIN HAL_PCD_ResumeCallback_PreTreatment */
 589              		.loc 1 284 1 is_stmt 1 view -0
 590              		.cfi_startproc
 591              		@ args = 0, pretend = 0, frame = 0
 592              		@ frame_needed = 0, uses_anonymous_args = 0
 284:USB_Device/Target/usbd_conf.c ****   /* USER CODE BEGIN HAL_PCD_ResumeCallback_PreTreatment */
 593              		.loc 1 284 1 is_stmt 0 view .LVU118
 594 0000 10B5     		push	{r4, lr}
 595              	.LCFI10:
 596              		.cfi_def_cfa_offset 8
 597              		.cfi_offset 4, -8
 598              		.cfi_offset 14, -4
 599 0002 0400     		movs	r4, r0
 291:USB_Device/Target/usbd_conf.c ****     /* Reset SLEEPDEEP bit of Cortex System Control Register. */
 600              		.loc 1 291 3 is_stmt 1 view .LVU119
 291:USB_Device/Target/usbd_conf.c ****     /* Reset SLEEPDEEP bit of Cortex System Control Register. */
 601              		.loc 1 291 17 is_stmt 0 view .LVU120
 602 0004 C37A     		ldrb	r3, [r0, #11]
 291:USB_Device/Target/usbd_conf.c ****     /* Reset SLEEPDEEP bit of Cortex System Control Register. */
 603              		.loc 1 291 6 view .LVU121
 604 0006 002B     		cmp	r3, #0
 605 0008 05D1     		bne	.L34
 606              	.LVL53:
 607              	.L33:
 299:USB_Device/Target/usbd_conf.c ****   /* USER CODE BEGIN HAL_PCD_ResumeCallback_PostTreatment */
 608              		.loc 1 299 3 is_stmt 1 view .LVU122
 299:USB_Device/Target/usbd_conf.c ****   /* USER CODE BEGIN HAL_PCD_ResumeCallback_PostTreatment */
 609              		.loc 1 299 43 is_stmt 0 view .LVU123
 610 000a B723     		movs	r3, #183
 611 000c 9B00     		lsls	r3, r3, #2
 612 000e E058     		ldr	r0, [r4, r3]
 299:USB_Device/Target/usbd_conf.c ****   /* USER CODE BEGIN HAL_PCD_ResumeCallback_PostTreatment */
 613              		.loc 1 299 3 view .LVU124
 614 0010 FFF7FEFF 		bl	USBD_LL_Resume
 615              	.LVL54:
 303:USB_Device/Target/usbd_conf.c **** 
 616              		.loc 1 303 1 view .LVU125
 617              		@ sp needed
 618              	.LVL55:
 303:USB_Device/Target/usbd_conf.c **** 
 619              		.loc 1 303 1 view .LVU126
 620 0014 10BD     		pop	{r4, pc}
 621              	.LVL56:
 622              	.L34:
 293:USB_Device/Target/usbd_conf.c ****         (uint32_t)(SCB_SCR_SLEEPDEEP_Msk | SCB_SCR_SLEEPONEXIT_Msk));
 623              		.loc 1 293 5 is_stmt 1 view .LVU127
 293:USB_Device/Target/usbd_conf.c ****         (uint32_t)(SCB_SCR_SLEEPDEEP_Msk | SCB_SCR_SLEEPONEXIT_Msk));
 624              		.loc 1 293 8 is_stmt 0 view .LVU128
 625 0016 044A     		ldr	r2, .L35
 626 0018 1369     		ldr	r3, [r2, #16]
 293:USB_Device/Target/usbd_conf.c ****         (uint32_t)(SCB_SCR_SLEEPDEEP_Msk | SCB_SCR_SLEEPONEXIT_Msk));
 627              		.loc 1 293 14 view .LVU129
 628 001a 0621     		movs	r1, #6
 629 001c 8B43     		bics	r3, r1
 630 001e 1361     		str	r3, [r2, #16]
 295:USB_Device/Target/usbd_conf.c ****   }
 631              		.loc 1 295 5 is_stmt 1 view .LVU130
ARM GAS  /tmp/cc3SrZzl.s 			page 28


 632 0020 FFF7FEFF 		bl	SystemClockConfig_Resume
 633              	.LVL57:
 295:USB_Device/Target/usbd_conf.c ****   }
 634              		.loc 1 295 5 is_stmt 0 view .LVU131
 635 0024 F1E7     		b	.L33
 636              	.L36:
 637 0026 C046     		.align	2
 638              	.L35:
 639 0028 00ED00E0 		.word	-536810240
 640              		.cfi_endproc
 641              	.LFE378:
 643              		.section	.text.HAL_PCD_ISOOUTIncompleteCallback,"ax",%progbits
 644              		.align	1
 645              		.global	HAL_PCD_ISOOUTIncompleteCallback
 646              		.syntax unified
 647              		.code	16
 648              		.thumb_func
 650              	HAL_PCD_ISOOUTIncompleteCallback:
 651              	.LVL58:
 652              	.LFB379:
 316:USB_Device/Target/usbd_conf.c ****   /* USER CODE BEGIN HAL_PCD_ISOOUTIncompleteCallback_PreTreatment */
 653              		.loc 1 316 1 is_stmt 1 view -0
 654              		.cfi_startproc
 655              		@ args = 0, pretend = 0, frame = 0
 656              		@ frame_needed = 0, uses_anonymous_args = 0
 316:USB_Device/Target/usbd_conf.c ****   /* USER CODE BEGIN HAL_PCD_ISOOUTIncompleteCallback_PreTreatment */
 657              		.loc 1 316 1 is_stmt 0 view .LVU133
 658 0000 10B5     		push	{r4, lr}
 659              	.LCFI11:
 660              		.cfi_def_cfa_offset 8
 661              		.cfi_offset 4, -8
 662              		.cfi_offset 14, -4
 320:USB_Device/Target/usbd_conf.c ****   /* USER CODE BEGIN HAL_PCD_ISOOUTIncompleteCallback_PostTreatment */
 663              		.loc 1 320 3 is_stmt 1 view .LVU134
 320:USB_Device/Target/usbd_conf.c ****   /* USER CODE BEGIN HAL_PCD_ISOOUTIncompleteCallback_PostTreatment */
 664              		.loc 1 320 53 is_stmt 0 view .LVU135
 665 0002 B723     		movs	r3, #183
 666 0004 9B00     		lsls	r3, r3, #2
 667 0006 C058     		ldr	r0, [r0, r3]
 668              	.LVL59:
 320:USB_Device/Target/usbd_conf.c ****   /* USER CODE BEGIN HAL_PCD_ISOOUTIncompleteCallback_PostTreatment */
 669              		.loc 1 320 3 view .LVU136
 670 0008 FFF7FEFF 		bl	USBD_LL_IsoOUTIncomplete
 671              	.LVL60:
 324:USB_Device/Target/usbd_conf.c **** 
 672              		.loc 1 324 1 view .LVU137
 673              		@ sp needed
 674 000c 10BD     		pop	{r4, pc}
 675              		.cfi_endproc
 676              	.LFE379:
 678              		.section	.text.HAL_PCD_ISOINIncompleteCallback,"ax",%progbits
 679              		.align	1
 680              		.global	HAL_PCD_ISOINIncompleteCallback
 681              		.syntax unified
 682              		.code	16
 683              		.thumb_func
 685              	HAL_PCD_ISOINIncompleteCallback:
ARM GAS  /tmp/cc3SrZzl.s 			page 29


 686              	.LVL61:
 687              	.LFB380:
 337:USB_Device/Target/usbd_conf.c ****   /* USER CODE BEGIN HAL_PCD_ISOINIncompleteCallback_PreTreatment */
 688              		.loc 1 337 1 is_stmt 1 view -0
 689              		.cfi_startproc
 690              		@ args = 0, pretend = 0, frame = 0
 691              		@ frame_needed = 0, uses_anonymous_args = 0
 337:USB_Device/Target/usbd_conf.c ****   /* USER CODE BEGIN HAL_PCD_ISOINIncompleteCallback_PreTreatment */
 692              		.loc 1 337 1 is_stmt 0 view .LVU139
 693 0000 10B5     		push	{r4, lr}
 694              	.LCFI12:
 695              		.cfi_def_cfa_offset 8
 696              		.cfi_offset 4, -8
 697              		.cfi_offset 14, -4
 341:USB_Device/Target/usbd_conf.c ****   /* USER CODE BEGIN HAL_PCD_ISOINIncompleteCallback_PostTreatment */
 698              		.loc 1 341 3 is_stmt 1 view .LVU140
 341:USB_Device/Target/usbd_conf.c ****   /* USER CODE BEGIN HAL_PCD_ISOINIncompleteCallback_PostTreatment */
 699              		.loc 1 341 52 is_stmt 0 view .LVU141
 700 0002 B723     		movs	r3, #183
 701 0004 9B00     		lsls	r3, r3, #2
 702 0006 C058     		ldr	r0, [r0, r3]
 703              	.LVL62:
 341:USB_Device/Target/usbd_conf.c ****   /* USER CODE BEGIN HAL_PCD_ISOINIncompleteCallback_PostTreatment */
 704              		.loc 1 341 3 view .LVU142
 705 0008 FFF7FEFF 		bl	USBD_LL_IsoINIncomplete
 706              	.LVL63:
 345:USB_Device/Target/usbd_conf.c **** 
 707              		.loc 1 345 1 view .LVU143
 708              		@ sp needed
 709 000c 10BD     		pop	{r4, pc}
 710              		.cfi_endproc
 711              	.LFE380:
 713              		.section	.text.HAL_PCD_ConnectCallback,"ax",%progbits
 714              		.align	1
 715              		.global	HAL_PCD_ConnectCallback
 716              		.syntax unified
 717              		.code	16
 718              		.thumb_func
 720              	HAL_PCD_ConnectCallback:
 721              	.LVL64:
 722              	.LFB381:
 357:USB_Device/Target/usbd_conf.c ****   /* USER CODE BEGIN HAL_PCD_ConnectCallback_PreTreatment */
 723              		.loc 1 357 1 is_stmt 1 view -0
 724              		.cfi_startproc
 725              		@ args = 0, pretend = 0, frame = 0
 726              		@ frame_needed = 0, uses_anonymous_args = 0
 357:USB_Device/Target/usbd_conf.c ****   /* USER CODE BEGIN HAL_PCD_ConnectCallback_PreTreatment */
 727              		.loc 1 357 1 is_stmt 0 view .LVU145
 728 0000 10B5     		push	{r4, lr}
 729              	.LCFI13:
 730              		.cfi_def_cfa_offset 8
 731              		.cfi_offset 4, -8
 732              		.cfi_offset 14, -4
 361:USB_Device/Target/usbd_conf.c ****   /* USER CODE BEGIN HAL_PCD_ConnectCallback_PostTreatment */
 733              		.loc 1 361 3 is_stmt 1 view .LVU146
 361:USB_Device/Target/usbd_conf.c ****   /* USER CODE BEGIN HAL_PCD_ConnectCallback_PostTreatment */
 734              		.loc 1 361 49 is_stmt 0 view .LVU147
ARM GAS  /tmp/cc3SrZzl.s 			page 30


 735 0002 B723     		movs	r3, #183
 736 0004 9B00     		lsls	r3, r3, #2
 737 0006 C058     		ldr	r0, [r0, r3]
 738              	.LVL65:
 361:USB_Device/Target/usbd_conf.c ****   /* USER CODE BEGIN HAL_PCD_ConnectCallback_PostTreatment */
 739              		.loc 1 361 3 view .LVU148
 740 0008 FFF7FEFF 		bl	USBD_LL_DevConnected
 741              	.LVL66:
 365:USB_Device/Target/usbd_conf.c **** 
 742              		.loc 1 365 1 view .LVU149
 743              		@ sp needed
 744 000c 10BD     		pop	{r4, pc}
 745              		.cfi_endproc
 746              	.LFE381:
 748              		.section	.text.HAL_PCD_DisconnectCallback,"ax",%progbits
 749              		.align	1
 750              		.global	HAL_PCD_DisconnectCallback
 751              		.syntax unified
 752              		.code	16
 753              		.thumb_func
 755              	HAL_PCD_DisconnectCallback:
 756              	.LVL67:
 757              	.LFB382:
 377:USB_Device/Target/usbd_conf.c ****   /* USER CODE BEGIN HAL_PCD_DisconnectCallback_PreTreatment */
 758              		.loc 1 377 1 is_stmt 1 view -0
 759              		.cfi_startproc
 760              		@ args = 0, pretend = 0, frame = 0
 761              		@ frame_needed = 0, uses_anonymous_args = 0
 377:USB_Device/Target/usbd_conf.c ****   /* USER CODE BEGIN HAL_PCD_DisconnectCallback_PreTreatment */
 762              		.loc 1 377 1 is_stmt 0 view .LVU151
 763 0000 10B5     		push	{r4, lr}
 764              	.LCFI14:
 765              		.cfi_def_cfa_offset 8
 766              		.cfi_offset 4, -8
 767              		.cfi_offset 14, -4
 381:USB_Device/Target/usbd_conf.c ****   /* USER CODE BEGIN HAL_PCD_DisconnectCallback_PostTreatment */
 768              		.loc 1 381 3 is_stmt 1 view .LVU152
 381:USB_Device/Target/usbd_conf.c ****   /* USER CODE BEGIN HAL_PCD_DisconnectCallback_PostTreatment */
 769              		.loc 1 381 52 is_stmt 0 view .LVU153
 770 0002 B723     		movs	r3, #183
 771 0004 9B00     		lsls	r3, r3, #2
 772 0006 C058     		ldr	r0, [r0, r3]
 773              	.LVL68:
 381:USB_Device/Target/usbd_conf.c ****   /* USER CODE BEGIN HAL_PCD_DisconnectCallback_PostTreatment */
 774              		.loc 1 381 3 view .LVU154
 775 0008 FFF7FEFF 		bl	USBD_LL_DevDisconnected
 776              	.LVL69:
 385:USB_Device/Target/usbd_conf.c **** 
 777              		.loc 1 385 1 view .LVU155
 778              		@ sp needed
 779 000c 10BD     		pop	{r4, pc}
 780              		.cfi_endproc
 781              	.LFE382:
 783              		.section	.text.USBD_LL_Init,"ax",%progbits
 784              		.align	1
 785              		.global	USBD_LL_Init
 786              		.syntax unified
ARM GAS  /tmp/cc3SrZzl.s 			page 31


 787              		.code	16
 788              		.thumb_func
 790              	USBD_LL_Init:
 791              	.LVL70:
 792              	.LFB383:
 401:USB_Device/Target/usbd_conf.c ****   /* Init USB Ip. */
 793              		.loc 1 401 1 is_stmt 1 view -0
 794              		.cfi_startproc
 795              		@ args = 0, pretend = 0, frame = 0
 796              		@ frame_needed = 0, uses_anonymous_args = 0
 401:USB_Device/Target/usbd_conf.c ****   /* Init USB Ip. */
 797              		.loc 1 401 1 is_stmt 0 view .LVU157
 798 0000 70B5     		push	{r4, r5, r6, lr}
 799              	.LCFI15:
 800              		.cfi_def_cfa_offset 16
 801              		.cfi_offset 4, -16
 802              		.cfi_offset 5, -12
 803              		.cfi_offset 6, -8
 804              		.cfi_offset 14, -4
 805 0002 0400     		movs	r4, r0
 403:USB_Device/Target/usbd_conf.c ****   /* Link the driver to the stack. */
 806              		.loc 1 403 3 is_stmt 1 view .LVU158
 403:USB_Device/Target/usbd_conf.c ****   /* Link the driver to the stack. */
 807              		.loc 1 403 25 is_stmt 0 view .LVU159
 808 0004 2048     		ldr	r0, .L44
 809              	.LVL71:
 403:USB_Device/Target/usbd_conf.c ****   /* Link the driver to the stack. */
 810              		.loc 1 403 25 view .LVU160
 811 0006 B723     		movs	r3, #183
 812 0008 9B00     		lsls	r3, r3, #2
 813 000a C450     		str	r4, [r0, r3]
 405:USB_Device/Target/usbd_conf.c **** 
 814              		.loc 1 405 3 is_stmt 1 view .LVU161
 405:USB_Device/Target/usbd_conf.c **** 
 815              		.loc 1 405 15 is_stmt 0 view .LVU162
 816 000c 143B     		subs	r3, r3, #20
 817 000e E050     		str	r0, [r4, r3]
 407:USB_Device/Target/usbd_conf.c ****   hpcd_USB_DRD_FS.Init.dev_endpoints = 8;
 818              		.loc 1 407 3 is_stmt 1 view .LVU163
 407:USB_Device/Target/usbd_conf.c ****   hpcd_USB_DRD_FS.Init.dev_endpoints = 8;
 819              		.loc 1 407 28 is_stmt 0 view .LVU164
 820 0010 1E4B     		ldr	r3, .L44+4
 821 0012 0360     		str	r3, [r0]
 408:USB_Device/Target/usbd_conf.c ****   hpcd_USB_DRD_FS.Init.Host_channels = 8;
 822              		.loc 1 408 3 is_stmt 1 view .LVU165
 408:USB_Device/Target/usbd_conf.c ****   hpcd_USB_DRD_FS.Init.Host_channels = 8;
 823              		.loc 1 408 38 is_stmt 0 view .LVU166
 824 0014 0823     		movs	r3, #8
 825 0016 0371     		strb	r3, [r0, #4]
 409:USB_Device/Target/usbd_conf.c ****   hpcd_USB_DRD_FS.Init.speed = PCD_SPEED_FULL;
 826              		.loc 1 409 3 is_stmt 1 view .LVU167
 409:USB_Device/Target/usbd_conf.c ****   hpcd_USB_DRD_FS.Init.speed = PCD_SPEED_FULL;
 827              		.loc 1 409 38 is_stmt 0 view .LVU168
 828 0018 4371     		strb	r3, [r0, #5]
 410:USB_Device/Target/usbd_conf.c ****   hpcd_USB_DRD_FS.Init.phy_itface = PCD_PHY_EMBEDDED;
 829              		.loc 1 410 3 is_stmt 1 view .LVU169
 410:USB_Device/Target/usbd_conf.c ****   hpcd_USB_DRD_FS.Init.phy_itface = PCD_PHY_EMBEDDED;
ARM GAS  /tmp/cc3SrZzl.s 			page 32


 830              		.loc 1 410 30 is_stmt 0 view .LVU170
 831 001a 063B     		subs	r3, r3, #6
 832 001c C371     		strb	r3, [r0, #7]
 411:USB_Device/Target/usbd_conf.c ****   hpcd_USB_DRD_FS.Init.Sof_enable = DISABLE;
 833              		.loc 1 411 3 is_stmt 1 view .LVU171
 411:USB_Device/Target/usbd_conf.c ****   hpcd_USB_DRD_FS.Init.Sof_enable = DISABLE;
 834              		.loc 1 411 35 is_stmt 0 view .LVU172
 835 001e 4372     		strb	r3, [r0, #9]
 412:USB_Device/Target/usbd_conf.c ****   hpcd_USB_DRD_FS.Init.low_power_enable = DISABLE;
 836              		.loc 1 412 3 is_stmt 1 view .LVU173
 412:USB_Device/Target/usbd_conf.c ****   hpcd_USB_DRD_FS.Init.low_power_enable = DISABLE;
 837              		.loc 1 412 35 is_stmt 0 view .LVU174
 838 0020 0023     		movs	r3, #0
 839 0022 8372     		strb	r3, [r0, #10]
 413:USB_Device/Target/usbd_conf.c ****   hpcd_USB_DRD_FS.Init.lpm_enable = DISABLE;
 840              		.loc 1 413 3 is_stmt 1 view .LVU175
 413:USB_Device/Target/usbd_conf.c ****   hpcd_USB_DRD_FS.Init.lpm_enable = DISABLE;
 841              		.loc 1 413 41 is_stmt 0 view .LVU176
 842 0024 C372     		strb	r3, [r0, #11]
 414:USB_Device/Target/usbd_conf.c ****   hpcd_USB_DRD_FS.Init.battery_charging_enable = DISABLE;
 843              		.loc 1 414 3 is_stmt 1 view .LVU177
 414:USB_Device/Target/usbd_conf.c ****   hpcd_USB_DRD_FS.Init.battery_charging_enable = DISABLE;
 844              		.loc 1 414 35 is_stmt 0 view .LVU178
 845 0026 0373     		strb	r3, [r0, #12]
 415:USB_Device/Target/usbd_conf.c ****   hpcd_USB_DRD_FS.Init.vbus_sensing_enable = DISABLE;
 846              		.loc 1 415 3 is_stmt 1 view .LVU179
 415:USB_Device/Target/usbd_conf.c ****   hpcd_USB_DRD_FS.Init.vbus_sensing_enable = DISABLE;
 847              		.loc 1 415 48 is_stmt 0 view .LVU180
 848 0028 4373     		strb	r3, [r0, #13]
 416:USB_Device/Target/usbd_conf.c ****   hpcd_USB_DRD_FS.Init.bulk_doublebuffer_enable = DISABLE;
 849              		.loc 1 416 3 is_stmt 1 view .LVU181
 416:USB_Device/Target/usbd_conf.c ****   hpcd_USB_DRD_FS.Init.bulk_doublebuffer_enable = DISABLE;
 850              		.loc 1 416 44 is_stmt 0 view .LVU182
 851 002a 8373     		strb	r3, [r0, #14]
 417:USB_Device/Target/usbd_conf.c ****   hpcd_USB_DRD_FS.Init.iso_singlebuffer_enable = DISABLE;
 852              		.loc 1 417 3 is_stmt 1 view .LVU183
 417:USB_Device/Target/usbd_conf.c ****   hpcd_USB_DRD_FS.Init.iso_singlebuffer_enable = DISABLE;
 853              		.loc 1 417 49 is_stmt 0 view .LVU184
 854 002c C373     		strb	r3, [r0, #15]
 418:USB_Device/Target/usbd_conf.c ****   if (HAL_PCD_Init(&hpcd_USB_DRD_FS) != HAL_OK)
 855              		.loc 1 418 3 is_stmt 1 view .LVU185
 418:USB_Device/Target/usbd_conf.c ****   if (HAL_PCD_Init(&hpcd_USB_DRD_FS) != HAL_OK)
 856              		.loc 1 418 48 is_stmt 0 view .LVU186
 857 002e 0374     		strb	r3, [r0, #16]
 419:USB_Device/Target/usbd_conf.c ****   {
 858              		.loc 1 419 3 is_stmt 1 view .LVU187
 419:USB_Device/Target/usbd_conf.c ****   {
 859              		.loc 1 419 7 is_stmt 0 view .LVU188
 860 0030 FFF7FEFF 		bl	HAL_PCD_Init
 861              	.LVL72:
 419:USB_Device/Target/usbd_conf.c ****   {
 862              		.loc 1 419 6 discriminator 1 view .LVU189
 863 0034 0028     		cmp	r0, #0
 864 0036 23D1     		bne	.L43
 865              	.L42:
 446:USB_Device/Target/usbd_conf.c ****                       0x18);
 866              		.loc 1 446 3 is_stmt 1 view .LVU190
ARM GAS  /tmp/cc3SrZzl.s 			page 33


 446:USB_Device/Target/usbd_conf.c ****                       0x18);
 867              		.loc 1 446 48 is_stmt 0 view .LVU191
 868 0038 B225     		movs	r5, #178
 869 003a AD00     		lsls	r5, r5, #2
 870 003c 6059     		ldr	r0, [r4, r5]
 446:USB_Device/Target/usbd_conf.c ****                       0x18);
 871              		.loc 1 446 3 view .LVU192
 872 003e 1823     		movs	r3, #24
 873 0040 0022     		movs	r2, #0
 874 0042 0021     		movs	r1, #0
 875 0044 FFF7FEFF 		bl	HAL_PCDEx_PMAConfig
 876              	.LVL73:
 448:USB_Device/Target/usbd_conf.c ****                       0x58);
 877              		.loc 1 448 3 is_stmt 1 view .LVU193
 448:USB_Device/Target/usbd_conf.c ****                       0x58);
 878              		.loc 1 448 48 is_stmt 0 view .LVU194
 879 0048 6059     		ldr	r0, [r4, r5]
 448:USB_Device/Target/usbd_conf.c ****                       0x58);
 880              		.loc 1 448 3 view .LVU195
 881 004a 5823     		movs	r3, #88
 882 004c 0022     		movs	r2, #0
 883 004e 8021     		movs	r1, #128
 884 0050 FFF7FEFF 		bl	HAL_PCDEx_PMAConfig
 885              	.LVL74:
 452:USB_Device/Target/usbd_conf.c ****                       0xC0);
 886              		.loc 1 452 3 is_stmt 1 view .LVU196
 452:USB_Device/Target/usbd_conf.c ****                       0xC0);
 887              		.loc 1 452 48 is_stmt 0 view .LVU197
 888 0054 6059     		ldr	r0, [r4, r5]
 452:USB_Device/Target/usbd_conf.c ****                       0xC0);
 889              		.loc 1 452 3 view .LVU198
 890 0056 C023     		movs	r3, #192
 891 0058 0022     		movs	r2, #0
 892 005a 8121     		movs	r1, #129
 893 005c FFF7FEFF 		bl	HAL_PCDEx_PMAConfig
 894              	.LVL75:
 454:USB_Device/Target/usbd_conf.c ****                       0x110);
 895              		.loc 1 454 3 is_stmt 1 view .LVU199
 454:USB_Device/Target/usbd_conf.c ****                       0x110);
 896              		.loc 1 454 48 is_stmt 0 view .LVU200
 897 0060 6059     		ldr	r0, [r4, r5]
 454:USB_Device/Target/usbd_conf.c ****                       0x110);
 898              		.loc 1 454 3 view .LVU201
 899 0062 8823     		movs	r3, #136
 900 0064 5B00     		lsls	r3, r3, #1
 901 0066 0022     		movs	r2, #0
 902 0068 0121     		movs	r1, #1
 903 006a FFF7FEFF 		bl	HAL_PCDEx_PMAConfig
 904              	.LVL76:
 456:USB_Device/Target/usbd_conf.c ****                       0x100);
 905              		.loc 1 456 3 is_stmt 1 view .LVU202
 456:USB_Device/Target/usbd_conf.c ****                       0x100);
 906              		.loc 1 456 48 is_stmt 0 view .LVU203
 907 006e 6059     		ldr	r0, [r4, r5]
 456:USB_Device/Target/usbd_conf.c ****                       0x100);
 908              		.loc 1 456 3 view .LVU204
 909 0070 8023     		movs	r3, #128
ARM GAS  /tmp/cc3SrZzl.s 			page 34


 910 0072 5B00     		lsls	r3, r3, #1
 911 0074 0022     		movs	r2, #0
 912 0076 8221     		movs	r1, #130
 913 0078 FFF7FEFF 		bl	HAL_PCDEx_PMAConfig
 914              	.LVL77:
 460:USB_Device/Target/usbd_conf.c **** }
 915              		.loc 1 460 3 is_stmt 1 view .LVU205
 461:USB_Device/Target/usbd_conf.c **** 
 916              		.loc 1 461 1 is_stmt 0 view .LVU206
 917 007c 0020     		movs	r0, #0
 918              		@ sp needed
 919              	.LVL78:
 461:USB_Device/Target/usbd_conf.c **** 
 920              		.loc 1 461 1 view .LVU207
 921 007e 70BD     		pop	{r4, r5, r6, pc}
 922              	.LVL79:
 923              	.L43:
 421:USB_Device/Target/usbd_conf.c ****   }
 924              		.loc 1 421 5 is_stmt 1 view .LVU208
 925 0080 FFF7FEFF 		bl	Error_Handler
 926              	.LVL80:
 927 0084 D8E7     		b	.L42
 928              	.L45:
 929 0086 C046     		.align	2
 930              	.L44:
 931 0088 00000000 		.word	hpcd_USB_DRD_FS
 932 008c 005C0040 		.word	1073765376
 933              		.cfi_endproc
 934              	.LFE383:
 936              		.section	.text.USBD_LL_DeInit,"ax",%progbits
 937              		.align	1
 938              		.global	USBD_LL_DeInit
 939              		.syntax unified
 940              		.code	16
 941              		.thumb_func
 943              	USBD_LL_DeInit:
 944              	.LVL81:
 945              	.LFB384:
 469:USB_Device/Target/usbd_conf.c ****   HAL_StatusTypeDef hal_status = HAL_OK;
 946              		.loc 1 469 1 view -0
 947              		.cfi_startproc
 948              		@ args = 0, pretend = 0, frame = 0
 949              		@ frame_needed = 0, uses_anonymous_args = 0
 469:USB_Device/Target/usbd_conf.c ****   HAL_StatusTypeDef hal_status = HAL_OK;
 950              		.loc 1 469 1 is_stmt 0 view .LVU210
 951 0000 10B5     		push	{r4, lr}
 952              	.LCFI16:
 953              		.cfi_def_cfa_offset 8
 954              		.cfi_offset 4, -8
 955              		.cfi_offset 14, -4
 470:USB_Device/Target/usbd_conf.c ****   USBD_StatusTypeDef usb_status = USBD_OK;
 956              		.loc 1 470 3 is_stmt 1 view .LVU211
 957              	.LVL82:
 471:USB_Device/Target/usbd_conf.c **** 
 958              		.loc 1 471 3 view .LVU212
 473:USB_Device/Target/usbd_conf.c **** 
 959              		.loc 1 473 3 view .LVU213
ARM GAS  /tmp/cc3SrZzl.s 			page 35


 473:USB_Device/Target/usbd_conf.c **** 
 960              		.loc 1 473 35 is_stmt 0 view .LVU214
 961 0002 B223     		movs	r3, #178
 962 0004 9B00     		lsls	r3, r3, #2
 963 0006 C058     		ldr	r0, [r0, r3]
 964              	.LVL83:
 473:USB_Device/Target/usbd_conf.c **** 
 965              		.loc 1 473 16 view .LVU215
 966 0008 FFF7FEFF 		bl	HAL_PCD_DeInit
 967              	.LVL84:
 475:USB_Device/Target/usbd_conf.c **** 
 968              		.loc 1 475 3 is_stmt 1 view .LVU216
 475:USB_Device/Target/usbd_conf.c **** 
 969              		.loc 1 475 17 is_stmt 0 view .LVU217
 970 000c FFF7FEFF 		bl	USBD_Get_USB_Status
 971              	.LVL85:
 477:USB_Device/Target/usbd_conf.c **** }
 972              		.loc 1 477 3 is_stmt 1 view .LVU218
 478:USB_Device/Target/usbd_conf.c **** 
 973              		.loc 1 478 1 is_stmt 0 view .LVU219
 974              		@ sp needed
 975 0010 10BD     		pop	{r4, pc}
 976              		.cfi_endproc
 977              	.LFE384:
 979              		.section	.text.USBD_LL_Start,"ax",%progbits
 980              		.align	1
 981              		.global	USBD_LL_Start
 982              		.syntax unified
 983              		.code	16
 984              		.thumb_func
 986              	USBD_LL_Start:
 987              	.LVL86:
 988              	.LFB385:
 486:USB_Device/Target/usbd_conf.c ****   HAL_StatusTypeDef hal_status = HAL_OK;
 989              		.loc 1 486 1 is_stmt 1 view -0
 990              		.cfi_startproc
 991              		@ args = 0, pretend = 0, frame = 0
 992              		@ frame_needed = 0, uses_anonymous_args = 0
 486:USB_Device/Target/usbd_conf.c ****   HAL_StatusTypeDef hal_status = HAL_OK;
 993              		.loc 1 486 1 is_stmt 0 view .LVU221
 994 0000 10B5     		push	{r4, lr}
 995              	.LCFI17:
 996              		.cfi_def_cfa_offset 8
 997              		.cfi_offset 4, -8
 998              		.cfi_offset 14, -4
 487:USB_Device/Target/usbd_conf.c ****   USBD_StatusTypeDef usb_status = USBD_OK;
 999              		.loc 1 487 3 is_stmt 1 view .LVU222
 1000              	.LVL87:
 488:USB_Device/Target/usbd_conf.c **** 
 1001              		.loc 1 488 3 view .LVU223
 490:USB_Device/Target/usbd_conf.c **** 
 1002              		.loc 1 490 3 view .LVU224
 490:USB_Device/Target/usbd_conf.c **** 
 1003              		.loc 1 490 34 is_stmt 0 view .LVU225
 1004 0002 B223     		movs	r3, #178
 1005 0004 9B00     		lsls	r3, r3, #2
 1006 0006 C058     		ldr	r0, [r0, r3]
ARM GAS  /tmp/cc3SrZzl.s 			page 36


 1007              	.LVL88:
 490:USB_Device/Target/usbd_conf.c **** 
 1008              		.loc 1 490 16 view .LVU226
 1009 0008 FFF7FEFF 		bl	HAL_PCD_Start
 1010              	.LVL89:
 492:USB_Device/Target/usbd_conf.c **** 
 1011              		.loc 1 492 3 is_stmt 1 view .LVU227
 492:USB_Device/Target/usbd_conf.c **** 
 1012              		.loc 1 492 17 is_stmt 0 view .LVU228
 1013 000c FFF7FEFF 		bl	USBD_Get_USB_Status
 1014              	.LVL90:
 494:USB_Device/Target/usbd_conf.c **** }
 1015              		.loc 1 494 3 is_stmt 1 view .LVU229
 495:USB_Device/Target/usbd_conf.c **** 
 1016              		.loc 1 495 1 is_stmt 0 view .LVU230
 1017              		@ sp needed
 1018 0010 10BD     		pop	{r4, pc}
 1019              		.cfi_endproc
 1020              	.LFE385:
 1022              		.section	.text.USBD_LL_Stop,"ax",%progbits
 1023              		.align	1
 1024              		.global	USBD_LL_Stop
 1025              		.syntax unified
 1026              		.code	16
 1027              		.thumb_func
 1029              	USBD_LL_Stop:
 1030              	.LVL91:
 1031              	.LFB386:
 503:USB_Device/Target/usbd_conf.c ****   HAL_StatusTypeDef hal_status = HAL_OK;
 1032              		.loc 1 503 1 is_stmt 1 view -0
 1033              		.cfi_startproc
 1034              		@ args = 0, pretend = 0, frame = 0
 1035              		@ frame_needed = 0, uses_anonymous_args = 0
 503:USB_Device/Target/usbd_conf.c ****   HAL_StatusTypeDef hal_status = HAL_OK;
 1036              		.loc 1 503 1 is_stmt 0 view .LVU232
 1037 0000 10B5     		push	{r4, lr}
 1038              	.LCFI18:
 1039              		.cfi_def_cfa_offset 8
 1040              		.cfi_offset 4, -8
 1041              		.cfi_offset 14, -4
 504:USB_Device/Target/usbd_conf.c ****   USBD_StatusTypeDef usb_status = USBD_OK;
 1042              		.loc 1 504 3 is_stmt 1 view .LVU233
 1043              	.LVL92:
 505:USB_Device/Target/usbd_conf.c **** 
 1044              		.loc 1 505 3 view .LVU234
 507:USB_Device/Target/usbd_conf.c **** 
 1045              		.loc 1 507 3 view .LVU235
 507:USB_Device/Target/usbd_conf.c **** 
 1046              		.loc 1 507 33 is_stmt 0 view .LVU236
 1047 0002 B223     		movs	r3, #178
 1048 0004 9B00     		lsls	r3, r3, #2
 1049 0006 C058     		ldr	r0, [r0, r3]
 1050              	.LVL93:
 507:USB_Device/Target/usbd_conf.c **** 
 1051              		.loc 1 507 16 view .LVU237
 1052 0008 FFF7FEFF 		bl	HAL_PCD_Stop
 1053              	.LVL94:
ARM GAS  /tmp/cc3SrZzl.s 			page 37


 509:USB_Device/Target/usbd_conf.c **** 
 1054              		.loc 1 509 3 is_stmt 1 view .LVU238
 509:USB_Device/Target/usbd_conf.c **** 
 1055              		.loc 1 509 17 is_stmt 0 view .LVU239
 1056 000c FFF7FEFF 		bl	USBD_Get_USB_Status
 1057              	.LVL95:
 511:USB_Device/Target/usbd_conf.c **** }
 1058              		.loc 1 511 3 is_stmt 1 view .LVU240
 512:USB_Device/Target/usbd_conf.c **** 
 1059              		.loc 1 512 1 is_stmt 0 view .LVU241
 1060              		@ sp needed
 1061 0010 10BD     		pop	{r4, pc}
 1062              		.cfi_endproc
 1063              	.LFE386:
 1065              		.section	.text.USBD_LL_OpenEP,"ax",%progbits
 1066              		.align	1
 1067              		.global	USBD_LL_OpenEP
 1068              		.syntax unified
 1069              		.code	16
 1070              		.thumb_func
 1072              	USBD_LL_OpenEP:
 1073              	.LVL96:
 1074              	.LFB387:
 523:USB_Device/Target/usbd_conf.c ****   HAL_StatusTypeDef hal_status = HAL_OK;
 1075              		.loc 1 523 1 is_stmt 1 view -0
 1076              		.cfi_startproc
 1077              		@ args = 0, pretend = 0, frame = 0
 1078              		@ frame_needed = 0, uses_anonymous_args = 0
 523:USB_Device/Target/usbd_conf.c ****   HAL_StatusTypeDef hal_status = HAL_OK;
 1079              		.loc 1 523 1 is_stmt 0 view .LVU243
 1080 0000 10B5     		push	{r4, lr}
 1081              	.LCFI19:
 1082              		.cfi_def_cfa_offset 8
 1083              		.cfi_offset 4, -8
 1084              		.cfi_offset 14, -4
 1085 0002 1400     		movs	r4, r2
 1086 0004 1A00     		movs	r2, r3
 1087              	.LVL97:
 524:USB_Device/Target/usbd_conf.c ****   USBD_StatusTypeDef usb_status = USBD_OK;
 1088              		.loc 1 524 3 is_stmt 1 view .LVU244
 525:USB_Device/Target/usbd_conf.c **** 
 1089              		.loc 1 525 3 view .LVU245
 527:USB_Device/Target/usbd_conf.c **** 
 1090              		.loc 1 527 3 view .LVU246
 527:USB_Device/Target/usbd_conf.c **** 
 1091              		.loc 1 527 36 is_stmt 0 view .LVU247
 1092 0006 B223     		movs	r3, #178
 1093              	.LVL98:
 527:USB_Device/Target/usbd_conf.c **** 
 1094              		.loc 1 527 36 view .LVU248
 1095 0008 9B00     		lsls	r3, r3, #2
 1096 000a C058     		ldr	r0, [r0, r3]
 1097              	.LVL99:
 527:USB_Device/Target/usbd_conf.c **** 
 1098              		.loc 1 527 16 view .LVU249
 1099 000c 2300     		movs	r3, r4
 1100 000e FFF7FEFF 		bl	HAL_PCD_EP_Open
ARM GAS  /tmp/cc3SrZzl.s 			page 38


 1101              	.LVL100:
 529:USB_Device/Target/usbd_conf.c **** 
 1102              		.loc 1 529 3 is_stmt 1 view .LVU250
 529:USB_Device/Target/usbd_conf.c **** 
 1103              		.loc 1 529 17 is_stmt 0 view .LVU251
 1104 0012 FFF7FEFF 		bl	USBD_Get_USB_Status
 1105              	.LVL101:
 531:USB_Device/Target/usbd_conf.c **** }
 1106              		.loc 1 531 3 is_stmt 1 view .LVU252
 532:USB_Device/Target/usbd_conf.c **** 
 1107              		.loc 1 532 1 is_stmt 0 view .LVU253
 1108              		@ sp needed
 1109              	.LVL102:
 532:USB_Device/Target/usbd_conf.c **** 
 1110              		.loc 1 532 1 view .LVU254
 1111 0016 10BD     		pop	{r4, pc}
 1112              		.cfi_endproc
 1113              	.LFE387:
 1115              		.section	.text.USBD_LL_CloseEP,"ax",%progbits
 1116              		.align	1
 1117              		.global	USBD_LL_CloseEP
 1118              		.syntax unified
 1119              		.code	16
 1120              		.thumb_func
 1122              	USBD_LL_CloseEP:
 1123              	.LVL103:
 1124              	.LFB388:
 541:USB_Device/Target/usbd_conf.c ****   HAL_StatusTypeDef hal_status = HAL_OK;
 1125              		.loc 1 541 1 is_stmt 1 view -0
 1126              		.cfi_startproc
 1127              		@ args = 0, pretend = 0, frame = 0
 1128              		@ frame_needed = 0, uses_anonymous_args = 0
 541:USB_Device/Target/usbd_conf.c ****   HAL_StatusTypeDef hal_status = HAL_OK;
 1129              		.loc 1 541 1 is_stmt 0 view .LVU256
 1130 0000 10B5     		push	{r4, lr}
 1131              	.LCFI20:
 1132              		.cfi_def_cfa_offset 8
 1133              		.cfi_offset 4, -8
 1134              		.cfi_offset 14, -4
 542:USB_Device/Target/usbd_conf.c ****   USBD_StatusTypeDef usb_status = USBD_OK;
 1135              		.loc 1 542 3 is_stmt 1 view .LVU257
 1136              	.LVL104:
 543:USB_Device/Target/usbd_conf.c **** 
 1137              		.loc 1 543 3 view .LVU258
 545:USB_Device/Target/usbd_conf.c **** 
 1138              		.loc 1 545 3 view .LVU259
 545:USB_Device/Target/usbd_conf.c **** 
 1139              		.loc 1 545 37 is_stmt 0 view .LVU260
 1140 0002 B223     		movs	r3, #178
 1141 0004 9B00     		lsls	r3, r3, #2
 1142 0006 C058     		ldr	r0, [r0, r3]
 1143              	.LVL105:
 545:USB_Device/Target/usbd_conf.c **** 
 1144              		.loc 1 545 16 view .LVU261
 1145 0008 FFF7FEFF 		bl	HAL_PCD_EP_Close
 1146              	.LVL106:
 547:USB_Device/Target/usbd_conf.c **** 
ARM GAS  /tmp/cc3SrZzl.s 			page 39


 1147              		.loc 1 547 3 is_stmt 1 view .LVU262
 547:USB_Device/Target/usbd_conf.c **** 
 1148              		.loc 1 547 17 is_stmt 0 view .LVU263
 1149 000c FFF7FEFF 		bl	USBD_Get_USB_Status
 1150              	.LVL107:
 549:USB_Device/Target/usbd_conf.c **** }
 1151              		.loc 1 549 3 is_stmt 1 view .LVU264
 550:USB_Device/Target/usbd_conf.c **** 
 1152              		.loc 1 550 1 is_stmt 0 view .LVU265
 1153              		@ sp needed
 1154 0010 10BD     		pop	{r4, pc}
 1155              		.cfi_endproc
 1156              	.LFE388:
 1158              		.section	.text.USBD_LL_FlushEP,"ax",%progbits
 1159              		.align	1
 1160              		.global	USBD_LL_FlushEP
 1161              		.syntax unified
 1162              		.code	16
 1163              		.thumb_func
 1165              	USBD_LL_FlushEP:
 1166              	.LVL108:
 1167              	.LFB389:
 559:USB_Device/Target/usbd_conf.c ****   HAL_StatusTypeDef hal_status = HAL_OK;
 1168              		.loc 1 559 1 is_stmt 1 view -0
 1169              		.cfi_startproc
 1170              		@ args = 0, pretend = 0, frame = 0
 1171              		@ frame_needed = 0, uses_anonymous_args = 0
 559:USB_Device/Target/usbd_conf.c ****   HAL_StatusTypeDef hal_status = HAL_OK;
 1172              		.loc 1 559 1 is_stmt 0 view .LVU267
 1173 0000 10B5     		push	{r4, lr}
 1174              	.LCFI21:
 1175              		.cfi_def_cfa_offset 8
 1176              		.cfi_offset 4, -8
 1177              		.cfi_offset 14, -4
 560:USB_Device/Target/usbd_conf.c ****   USBD_StatusTypeDef usb_status = USBD_OK;
 1178              		.loc 1 560 3 is_stmt 1 view .LVU268
 1179              	.LVL109:
 561:USB_Device/Target/usbd_conf.c **** 
 1180              		.loc 1 561 3 view .LVU269
 563:USB_Device/Target/usbd_conf.c **** 
 1181              		.loc 1 563 3 view .LVU270
 563:USB_Device/Target/usbd_conf.c **** 
 1182              		.loc 1 563 37 is_stmt 0 view .LVU271
 1183 0002 B223     		movs	r3, #178
 1184 0004 9B00     		lsls	r3, r3, #2
 1185 0006 C058     		ldr	r0, [r0, r3]
 1186              	.LVL110:
 563:USB_Device/Target/usbd_conf.c **** 
 1187              		.loc 1 563 16 view .LVU272
 1188 0008 FFF7FEFF 		bl	HAL_PCD_EP_Flush
 1189              	.LVL111:
 565:USB_Device/Target/usbd_conf.c **** 
 1190              		.loc 1 565 3 is_stmt 1 view .LVU273
 565:USB_Device/Target/usbd_conf.c **** 
 1191              		.loc 1 565 17 is_stmt 0 view .LVU274
 1192 000c FFF7FEFF 		bl	USBD_Get_USB_Status
 1193              	.LVL112:
ARM GAS  /tmp/cc3SrZzl.s 			page 40


 567:USB_Device/Target/usbd_conf.c **** }
 1194              		.loc 1 567 3 is_stmt 1 view .LVU275
 568:USB_Device/Target/usbd_conf.c **** 
 1195              		.loc 1 568 1 is_stmt 0 view .LVU276
 1196              		@ sp needed
 1197 0010 10BD     		pop	{r4, pc}
 1198              		.cfi_endproc
 1199              	.LFE389:
 1201              		.section	.text.USBD_LL_StallEP,"ax",%progbits
 1202              		.align	1
 1203              		.global	USBD_LL_StallEP
 1204              		.syntax unified
 1205              		.code	16
 1206              		.thumb_func
 1208              	USBD_LL_StallEP:
 1209              	.LVL113:
 1210              	.LFB390:
 577:USB_Device/Target/usbd_conf.c ****   HAL_StatusTypeDef hal_status = HAL_OK;
 1211              		.loc 1 577 1 is_stmt 1 view -0
 1212              		.cfi_startproc
 1213              		@ args = 0, pretend = 0, frame = 0
 1214              		@ frame_needed = 0, uses_anonymous_args = 0
 577:USB_Device/Target/usbd_conf.c ****   HAL_StatusTypeDef hal_status = HAL_OK;
 1215              		.loc 1 577 1 is_stmt 0 view .LVU278
 1216 0000 10B5     		push	{r4, lr}
 1217              	.LCFI22:
 1218              		.cfi_def_cfa_offset 8
 1219              		.cfi_offset 4, -8
 1220              		.cfi_offset 14, -4
 578:USB_Device/Target/usbd_conf.c ****   USBD_StatusTypeDef usb_status = USBD_OK;
 1221              		.loc 1 578 3 is_stmt 1 view .LVU279
 1222              	.LVL114:
 579:USB_Device/Target/usbd_conf.c **** 
 1223              		.loc 1 579 3 view .LVU280
 581:USB_Device/Target/usbd_conf.c **** 
 1224              		.loc 1 581 3 view .LVU281
 581:USB_Device/Target/usbd_conf.c **** 
 1225              		.loc 1 581 40 is_stmt 0 view .LVU282
 1226 0002 B223     		movs	r3, #178
 1227 0004 9B00     		lsls	r3, r3, #2
 1228 0006 C058     		ldr	r0, [r0, r3]
 1229              	.LVL115:
 581:USB_Device/Target/usbd_conf.c **** 
 1230              		.loc 1 581 16 view .LVU283
 1231 0008 FFF7FEFF 		bl	HAL_PCD_EP_SetStall
 1232              	.LVL116:
 583:USB_Device/Target/usbd_conf.c **** 
 1233              		.loc 1 583 3 is_stmt 1 view .LVU284
 583:USB_Device/Target/usbd_conf.c **** 
 1234              		.loc 1 583 17 is_stmt 0 view .LVU285
 1235 000c FFF7FEFF 		bl	USBD_Get_USB_Status
 1236              	.LVL117:
 585:USB_Device/Target/usbd_conf.c **** }
 1237              		.loc 1 585 3 is_stmt 1 view .LVU286
 586:USB_Device/Target/usbd_conf.c **** 
 1238              		.loc 1 586 1 is_stmt 0 view .LVU287
 1239              		@ sp needed
ARM GAS  /tmp/cc3SrZzl.s 			page 41


 1240 0010 10BD     		pop	{r4, pc}
 1241              		.cfi_endproc
 1242              	.LFE390:
 1244              		.section	.text.USBD_LL_ClearStallEP,"ax",%progbits
 1245              		.align	1
 1246              		.global	USBD_LL_ClearStallEP
 1247              		.syntax unified
 1248              		.code	16
 1249              		.thumb_func
 1251              	USBD_LL_ClearStallEP:
 1252              	.LVL118:
 1253              	.LFB391:
 595:USB_Device/Target/usbd_conf.c ****   HAL_StatusTypeDef hal_status = HAL_OK;
 1254              		.loc 1 595 1 is_stmt 1 view -0
 1255              		.cfi_startproc
 1256              		@ args = 0, pretend = 0, frame = 0
 1257              		@ frame_needed = 0, uses_anonymous_args = 0
 595:USB_Device/Target/usbd_conf.c ****   HAL_StatusTypeDef hal_status = HAL_OK;
 1258              		.loc 1 595 1 is_stmt 0 view .LVU289
 1259 0000 10B5     		push	{r4, lr}
 1260              	.LCFI23:
 1261              		.cfi_def_cfa_offset 8
 1262              		.cfi_offset 4, -8
 1263              		.cfi_offset 14, -4
 596:USB_Device/Target/usbd_conf.c ****   USBD_StatusTypeDef usb_status = USBD_OK;
 1264              		.loc 1 596 3 is_stmt 1 view .LVU290
 1265              	.LVL119:
 597:USB_Device/Target/usbd_conf.c **** 
 1266              		.loc 1 597 3 view .LVU291
 599:USB_Device/Target/usbd_conf.c **** 
 1267              		.loc 1 599 3 view .LVU292
 599:USB_Device/Target/usbd_conf.c **** 
 1268              		.loc 1 599 40 is_stmt 0 view .LVU293
 1269 0002 B223     		movs	r3, #178
 1270 0004 9B00     		lsls	r3, r3, #2
 1271 0006 C058     		ldr	r0, [r0, r3]
 1272              	.LVL120:
 599:USB_Device/Target/usbd_conf.c **** 
 1273              		.loc 1 599 16 view .LVU294
 1274 0008 FFF7FEFF 		bl	HAL_PCD_EP_ClrStall
 1275              	.LVL121:
 601:USB_Device/Target/usbd_conf.c **** 
 1276              		.loc 1 601 3 is_stmt 1 view .LVU295
 601:USB_Device/Target/usbd_conf.c **** 
 1277              		.loc 1 601 17 is_stmt 0 view .LVU296
 1278 000c FFF7FEFF 		bl	USBD_Get_USB_Status
 1279              	.LVL122:
 603:USB_Device/Target/usbd_conf.c **** }
 1280              		.loc 1 603 3 is_stmt 1 view .LVU297
 604:USB_Device/Target/usbd_conf.c **** 
 1281              		.loc 1 604 1 is_stmt 0 view .LVU298
 1282              		@ sp needed
 1283 0010 10BD     		pop	{r4, pc}
 1284              		.cfi_endproc
 1285              	.LFE391:
 1287              		.section	.text.USBD_LL_IsStallEP,"ax",%progbits
 1288              		.align	1
ARM GAS  /tmp/cc3SrZzl.s 			page 42


 1289              		.global	USBD_LL_IsStallEP
 1290              		.syntax unified
 1291              		.code	16
 1292              		.thumb_func
 1294              	USBD_LL_IsStallEP:
 1295              	.LVL123:
 1296              	.LFB392:
 613:USB_Device/Target/usbd_conf.c ****   PCD_HandleTypeDef *hpcd = (PCD_HandleTypeDef*) pdev->pData;
 1297              		.loc 1 613 1 is_stmt 1 view -0
 1298              		.cfi_startproc
 1299              		@ args = 0, pretend = 0, frame = 0
 1300              		@ frame_needed = 0, uses_anonymous_args = 0
 1301              		@ link register save eliminated.
 614:USB_Device/Target/usbd_conf.c **** 
 1302              		.loc 1 614 3 view .LVU300
 614:USB_Device/Target/usbd_conf.c **** 
 1303              		.loc 1 614 22 is_stmt 0 view .LVU301
 1304 0000 B223     		movs	r3, #178
 1305 0002 9B00     		lsls	r3, r3, #2
 1306 0004 C358     		ldr	r3, [r0, r3]
 1307              	.LVL124:
 616:USB_Device/Target/usbd_conf.c ****   {
 1308              		.loc 1 616 3 is_stmt 1 view .LVU302
 616:USB_Device/Target/usbd_conf.c ****   {
 1309              		.loc 1 616 23 is_stmt 0 view .LVU303
 1310 0006 4AB2     		sxtb	r2, r1
 616:USB_Device/Target/usbd_conf.c ****   {
 1311              		.loc 1 616 5 view .LVU304
 1312 0008 002A     		cmp	r2, #0
 1313 000a 09DB     		blt	.L57
 622:USB_Device/Target/usbd_conf.c ****   }
 1314              		.loc 1 622 5 is_stmt 1 view .LVU305
 622:USB_Device/Target/usbd_conf.c ****   }
 1315              		.loc 1 622 33 is_stmt 0 view .LVU306
 1316 000c 7F22     		movs	r2, #127
 1317 000e 1140     		ands	r1, r2
 1318              	.LVL125:
 622:USB_Device/Target/usbd_conf.c ****   }
 1319              		.loc 1 622 40 view .LVU307
 1320 0010 8A00     		lsls	r2, r1, #2
 1321 0012 5218     		adds	r2, r2, r1
 1322 0014 D200     		lsls	r2, r2, #3
 1323 0016 9B18     		adds	r3, r3, r2
 1324              	.LVL126:
 622:USB_Device/Target/usbd_conf.c ****   }
 1325              		.loc 1 622 40 view .LVU308
 1326 0018 5733     		adds	r3, r3, #87
 1327 001a FF33     		adds	r3, r3, #255
 1328 001c 1878     		ldrb	r0, [r3]
 1329              	.LVL127:
 1330              	.L56:
 624:USB_Device/Target/usbd_conf.c **** 
 1331              		.loc 1 624 1 view .LVU309
 1332              		@ sp needed
 1333 001e 7047     		bx	lr
 1334              	.LVL128:
 1335              	.L57:
ARM GAS  /tmp/cc3SrZzl.s 			page 43


 618:USB_Device/Target/usbd_conf.c ****   }
 1336              		.loc 1 618 5 is_stmt 1 view .LVU310
 618:USB_Device/Target/usbd_conf.c ****   }
 1337              		.loc 1 618 32 is_stmt 0 view .LVU311
 1338 0020 7F22     		movs	r2, #127
 1339 0022 1140     		ands	r1, r2
 1340              	.LVL129:
 618:USB_Device/Target/usbd_conf.c ****   }
 1341              		.loc 1 618 39 view .LVU312
 1342 0024 8A00     		lsls	r2, r1, #2
 1343 0026 5218     		adds	r2, r2, r1
 1344 0028 D200     		lsls	r2, r2, #3
 1345 002a 9B18     		adds	r3, r3, r2
 1346              	.LVL130:
 618:USB_Device/Target/usbd_conf.c ****   }
 1347              		.loc 1 618 39 view .LVU313
 1348 002c 987D     		ldrb	r0, [r3, #22]
 1349              	.LVL131:
 618:USB_Device/Target/usbd_conf.c ****   }
 1350              		.loc 1 618 39 view .LVU314
 1351 002e F6E7     		b	.L56
 1352              		.cfi_endproc
 1353              	.LFE392:
 1355              		.section	.text.USBD_LL_SetUSBAddress,"ax",%progbits
 1356              		.align	1
 1357              		.global	USBD_LL_SetUSBAddress
 1358              		.syntax unified
 1359              		.code	16
 1360              		.thumb_func
 1362              	USBD_LL_SetUSBAddress:
 1363              	.LVL132:
 1364              	.LFB393:
 633:USB_Device/Target/usbd_conf.c ****   HAL_StatusTypeDef hal_status = HAL_OK;
 1365              		.loc 1 633 1 is_stmt 1 view -0
 1366              		.cfi_startproc
 1367              		@ args = 0, pretend = 0, frame = 0
 1368              		@ frame_needed = 0, uses_anonymous_args = 0
 633:USB_Device/Target/usbd_conf.c ****   HAL_StatusTypeDef hal_status = HAL_OK;
 1369              		.loc 1 633 1 is_stmt 0 view .LVU316
 1370 0000 10B5     		push	{r4, lr}
 1371              	.LCFI24:
 1372              		.cfi_def_cfa_offset 8
 1373              		.cfi_offset 4, -8
 1374              		.cfi_offset 14, -4
 634:USB_Device/Target/usbd_conf.c ****   USBD_StatusTypeDef usb_status = USBD_OK;
 1375              		.loc 1 634 3 is_stmt 1 view .LVU317
 1376              	.LVL133:
 635:USB_Device/Target/usbd_conf.c **** 
 1377              		.loc 1 635 3 view .LVU318
 637:USB_Device/Target/usbd_conf.c **** 
 1378              		.loc 1 637 3 view .LVU319
 637:USB_Device/Target/usbd_conf.c **** 
 1379              		.loc 1 637 39 is_stmt 0 view .LVU320
 1380 0002 B223     		movs	r3, #178
 1381 0004 9B00     		lsls	r3, r3, #2
 1382 0006 C058     		ldr	r0, [r0, r3]
 1383              	.LVL134:
ARM GAS  /tmp/cc3SrZzl.s 			page 44


 637:USB_Device/Target/usbd_conf.c **** 
 1384              		.loc 1 637 16 view .LVU321
 1385 0008 FFF7FEFF 		bl	HAL_PCD_SetAddress
 1386              	.LVL135:
 639:USB_Device/Target/usbd_conf.c **** 
 1387              		.loc 1 639 3 is_stmt 1 view .LVU322
 639:USB_Device/Target/usbd_conf.c **** 
 1388              		.loc 1 639 17 is_stmt 0 view .LVU323
 1389 000c FFF7FEFF 		bl	USBD_Get_USB_Status
 1390              	.LVL136:
 641:USB_Device/Target/usbd_conf.c **** }
 1391              		.loc 1 641 3 is_stmt 1 view .LVU324
 642:USB_Device/Target/usbd_conf.c **** 
 1392              		.loc 1 642 1 is_stmt 0 view .LVU325
 1393              		@ sp needed
 1394 0010 10BD     		pop	{r4, pc}
 1395              		.cfi_endproc
 1396              	.LFE393:
 1398              		.section	.text.USBD_LL_Transmit,"ax",%progbits
 1399              		.align	1
 1400              		.global	USBD_LL_Transmit
 1401              		.syntax unified
 1402              		.code	16
 1403              		.thumb_func
 1405              	USBD_LL_Transmit:
 1406              	.LVL137:
 1407              	.LFB394:
 653:USB_Device/Target/usbd_conf.c ****   HAL_StatusTypeDef hal_status = HAL_OK;
 1408              		.loc 1 653 1 is_stmt 1 view -0
 1409              		.cfi_startproc
 1410              		@ args = 0, pretend = 0, frame = 0
 1411              		@ frame_needed = 0, uses_anonymous_args = 0
 653:USB_Device/Target/usbd_conf.c ****   HAL_StatusTypeDef hal_status = HAL_OK;
 1412              		.loc 1 653 1 is_stmt 0 view .LVU327
 1413 0000 10B5     		push	{r4, lr}
 1414              	.LCFI25:
 1415              		.cfi_def_cfa_offset 8
 1416              		.cfi_offset 4, -8
 1417              		.cfi_offset 14, -4
 654:USB_Device/Target/usbd_conf.c ****   USBD_StatusTypeDef usb_status = USBD_OK;
 1418              		.loc 1 654 3 is_stmt 1 view .LVU328
 1419              	.LVL138:
 655:USB_Device/Target/usbd_conf.c **** 
 1420              		.loc 1 655 3 view .LVU329
 657:USB_Device/Target/usbd_conf.c **** 
 1421              		.loc 1 657 3 view .LVU330
 657:USB_Device/Target/usbd_conf.c **** 
 1422              		.loc 1 657 40 is_stmt 0 view .LVU331
 1423 0002 B224     		movs	r4, #178
 1424 0004 A400     		lsls	r4, r4, #2
 1425 0006 0059     		ldr	r0, [r0, r4]
 1426              	.LVL139:
 657:USB_Device/Target/usbd_conf.c **** 
 1427              		.loc 1 657 16 view .LVU332
 1428 0008 FFF7FEFF 		bl	HAL_PCD_EP_Transmit
 1429              	.LVL140:
 659:USB_Device/Target/usbd_conf.c **** 
ARM GAS  /tmp/cc3SrZzl.s 			page 45


 1430              		.loc 1 659 3 is_stmt 1 view .LVU333
 659:USB_Device/Target/usbd_conf.c **** 
 1431              		.loc 1 659 17 is_stmt 0 view .LVU334
 1432 000c FFF7FEFF 		bl	USBD_Get_USB_Status
 1433              	.LVL141:
 661:USB_Device/Target/usbd_conf.c **** }
 1434              		.loc 1 661 3 is_stmt 1 view .LVU335
 662:USB_Device/Target/usbd_conf.c **** 
 1435              		.loc 1 662 1 is_stmt 0 view .LVU336
 1436              		@ sp needed
 1437 0010 10BD     		pop	{r4, pc}
 1438              		.cfi_endproc
 1439              	.LFE394:
 1441              		.section	.text.USBD_LL_PrepareReceive,"ax",%progbits
 1442              		.align	1
 1443              		.global	USBD_LL_PrepareReceive
 1444              		.syntax unified
 1445              		.code	16
 1446              		.thumb_func
 1448              	USBD_LL_PrepareReceive:
 1449              	.LVL142:
 1450              	.LFB395:
 673:USB_Device/Target/usbd_conf.c ****   HAL_StatusTypeDef hal_status = HAL_OK;
 1451              		.loc 1 673 1 is_stmt 1 view -0
 1452              		.cfi_startproc
 1453              		@ args = 0, pretend = 0, frame = 0
 1454              		@ frame_needed = 0, uses_anonymous_args = 0
 673:USB_Device/Target/usbd_conf.c ****   HAL_StatusTypeDef hal_status = HAL_OK;
 1455              		.loc 1 673 1 is_stmt 0 view .LVU338
 1456 0000 10B5     		push	{r4, lr}
 1457              	.LCFI26:
 1458              		.cfi_def_cfa_offset 8
 1459              		.cfi_offset 4, -8
 1460              		.cfi_offset 14, -4
 674:USB_Device/Target/usbd_conf.c ****   USBD_StatusTypeDef usb_status = USBD_OK;
 1461              		.loc 1 674 3 is_stmt 1 view .LVU339
 1462              	.LVL143:
 675:USB_Device/Target/usbd_conf.c **** 
 1463              		.loc 1 675 3 view .LVU340
 677:USB_Device/Target/usbd_conf.c **** 
 1464              		.loc 1 677 3 view .LVU341
 677:USB_Device/Target/usbd_conf.c **** 
 1465              		.loc 1 677 39 is_stmt 0 view .LVU342
 1466 0002 B224     		movs	r4, #178
 1467 0004 A400     		lsls	r4, r4, #2
 1468 0006 0059     		ldr	r0, [r0, r4]
 1469              	.LVL144:
 677:USB_Device/Target/usbd_conf.c **** 
 1470              		.loc 1 677 16 view .LVU343
 1471 0008 FFF7FEFF 		bl	HAL_PCD_EP_Receive
 1472              	.LVL145:
 679:USB_Device/Target/usbd_conf.c **** 
 1473              		.loc 1 679 3 is_stmt 1 view .LVU344
 679:USB_Device/Target/usbd_conf.c **** 
 1474              		.loc 1 679 17 is_stmt 0 view .LVU345
 1475 000c FFF7FEFF 		bl	USBD_Get_USB_Status
 1476              	.LVL146:
ARM GAS  /tmp/cc3SrZzl.s 			page 46


 681:USB_Device/Target/usbd_conf.c **** }
 1477              		.loc 1 681 3 is_stmt 1 view .LVU346
 682:USB_Device/Target/usbd_conf.c **** 
 1478              		.loc 1 682 1 is_stmt 0 view .LVU347
 1479              		@ sp needed
 1480 0010 10BD     		pop	{r4, pc}
 1481              		.cfi_endproc
 1482              	.LFE395:
 1484              		.section	.text.USBD_LL_GetRxDataSize,"ax",%progbits
 1485              		.align	1
 1486              		.global	USBD_LL_GetRxDataSize
 1487              		.syntax unified
 1488              		.code	16
 1489              		.thumb_func
 1491              	USBD_LL_GetRxDataSize:
 1492              	.LVL147:
 1493              	.LFB396:
 691:USB_Device/Target/usbd_conf.c ****   return HAL_PCD_EP_GetRxCount((PCD_HandleTypeDef*) pdev->pData, ep_addr);
 1494              		.loc 1 691 1 is_stmt 1 view -0
 1495              		.cfi_startproc
 1496              		@ args = 0, pretend = 0, frame = 0
 1497              		@ frame_needed = 0, uses_anonymous_args = 0
 691:USB_Device/Target/usbd_conf.c ****   return HAL_PCD_EP_GetRxCount((PCD_HandleTypeDef*) pdev->pData, ep_addr);
 1498              		.loc 1 691 1 is_stmt 0 view .LVU349
 1499 0000 10B5     		push	{r4, lr}
 1500              	.LCFI27:
 1501              		.cfi_def_cfa_offset 8
 1502              		.cfi_offset 4, -8
 1503              		.cfi_offset 14, -4
 692:USB_Device/Target/usbd_conf.c **** }
 1504              		.loc 1 692 3 is_stmt 1 view .LVU350
 692:USB_Device/Target/usbd_conf.c **** }
 1505              		.loc 1 692 57 is_stmt 0 view .LVU351
 1506 0002 B223     		movs	r3, #178
 1507 0004 9B00     		lsls	r3, r3, #2
 1508 0006 C058     		ldr	r0, [r0, r3]
 1509              	.LVL148:
 692:USB_Device/Target/usbd_conf.c **** }
 1510              		.loc 1 692 10 view .LVU352
 1511 0008 FFF7FEFF 		bl	HAL_PCD_EP_GetRxCount
 1512              	.LVL149:
 693:USB_Device/Target/usbd_conf.c **** 
 1513              		.loc 1 693 1 view .LVU353
 1514              		@ sp needed
 1515 000c 10BD     		pop	{r4, pc}
 1516              		.cfi_endproc
 1517              	.LFE396:
 1519              		.section	.text.HAL_PCDEx_LPM_Callback,"ax",%progbits
 1520              		.align	1
 1521              		.global	HAL_PCDEx_LPM_Callback
 1522              		.syntax unified
 1523              		.code	16
 1524              		.thumb_func
 1526              	HAL_PCDEx_LPM_Callback:
 1527              	.LVL150:
 1528              	.LFB397:
 706:USB_Device/Target/usbd_conf.c ****   /* USER CODE BEGIN LPM_Callback */
ARM GAS  /tmp/cc3SrZzl.s 			page 47


 1529              		.loc 1 706 1 is_stmt 1 view -0
 1530              		.cfi_startproc
 1531              		@ args = 0, pretend = 0, frame = 0
 1532              		@ frame_needed = 0, uses_anonymous_args = 0
 706:USB_Device/Target/usbd_conf.c ****   /* USER CODE BEGIN LPM_Callback */
 1533              		.loc 1 706 1 is_stmt 0 view .LVU355
 1534 0000 10B5     		push	{r4, lr}
 1535              	.LCFI28:
 1536              		.cfi_def_cfa_offset 8
 1537              		.cfi_offset 4, -8
 1538              		.cfi_offset 14, -4
 1539 0002 0400     		movs	r4, r0
 708:USB_Device/Target/usbd_conf.c ****   case PCD_LPM_L0_ACTIVE:
 1540              		.loc 1 708 3 is_stmt 1 view .LVU356
 1541 0004 0029     		cmp	r1, #0
 1542 0006 0FD0     		beq	.L63
 1543 0008 0129     		cmp	r1, #1
 1544 000a 15D1     		bne	.L62
 723:USB_Device/Target/usbd_conf.c **** 
 1545              		.loc 1 723 5 view .LVU357
 723:USB_Device/Target/usbd_conf.c **** 
 1546              		.loc 1 723 25 is_stmt 0 view .LVU358
 1547 000c B723     		movs	r3, #183
 1548 000e 9B00     		lsls	r3, r3, #2
 1549 0010 C058     		ldr	r0, [r0, r3]
 1550              	.LVL151:
 723:USB_Device/Target/usbd_conf.c **** 
 1551              		.loc 1 723 5 view .LVU359
 1552 0012 FFF7FEFF 		bl	USBD_LL_Suspend
 1553              	.LVL152:
 726:USB_Device/Target/usbd_conf.c ****       /* Set SLEEPDEEP bit and SleepOnExit of Cortex System Control Register. */
 1554              		.loc 1 726 5 is_stmt 1 view .LVU360
 726:USB_Device/Target/usbd_conf.c ****       /* Set SLEEPDEEP bit and SleepOnExit of Cortex System Control Register. */
 1555              		.loc 1 726 19 is_stmt 0 view .LVU361
 1556 0016 E37A     		ldrb	r3, [r4, #11]
 726:USB_Device/Target/usbd_conf.c ****       /* Set SLEEPDEEP bit and SleepOnExit of Cortex System Control Register. */
 1557              		.loc 1 726 8 view .LVU362
 1558 0018 002B     		cmp	r3, #0
 1559 001a 0DD0     		beq	.L62
 728:USB_Device/Target/usbd_conf.c ****                                         SCB_SCR_SLEEPONEXIT_Msk));
 1560              		.loc 1 728 7 is_stmt 1 view .LVU363
 728:USB_Device/Target/usbd_conf.c ****                                         SCB_SCR_SLEEPONEXIT_Msk));
 1561              		.loc 1 728 10 is_stmt 0 view .LVU364
 1562 001c 0B4A     		ldr	r2, .L68
 1563 001e 1369     		ldr	r3, [r2, #16]
 728:USB_Device/Target/usbd_conf.c ****                                         SCB_SCR_SLEEPONEXIT_Msk));
 1564              		.loc 1 728 16 view .LVU365
 1565 0020 0621     		movs	r1, #6
 1566 0022 0B43     		orrs	r3, r1
 1567 0024 1361     		str	r3, [r2, #16]
 734:USB_Device/Target/usbd_conf.c **** 
 1568              		.loc 1 734 1 view .LVU366
 1569 0026 07E0     		b	.L62
 1570              	.LVL153:
 1571              	.L63:
 710:USB_Device/Target/usbd_conf.c ****       SystemClockConfig_Resume();
 1572              		.loc 1 710 5 is_stmt 1 view .LVU367
ARM GAS  /tmp/cc3SrZzl.s 			page 48


 710:USB_Device/Target/usbd_conf.c ****       SystemClockConfig_Resume();
 1573              		.loc 1 710 19 is_stmt 0 view .LVU368
 1574 0028 C37A     		ldrb	r3, [r0, #11]
 710:USB_Device/Target/usbd_conf.c ****       SystemClockConfig_Resume();
 1575              		.loc 1 710 8 view .LVU369
 1576 002a 002B     		cmp	r3, #0
 1577 002c 05D1     		bne	.L67
 1578              	.LVL154:
 1579              	.L66:
 718:USB_Device/Target/usbd_conf.c ****     break;
 1580              		.loc 1 718 5 is_stmt 1 view .LVU370
 718:USB_Device/Target/usbd_conf.c ****     break;
 1581              		.loc 1 718 24 is_stmt 0 view .LVU371
 1582 002e B723     		movs	r3, #183
 1583 0030 9B00     		lsls	r3, r3, #2
 1584 0032 E058     		ldr	r0, [r4, r3]
 718:USB_Device/Target/usbd_conf.c ****     break;
 1585              		.loc 1 718 5 view .LVU372
 1586 0034 FFF7FEFF 		bl	USBD_LL_Resume
 1587              	.LVL155:
 719:USB_Device/Target/usbd_conf.c **** 
 1588              		.loc 1 719 5 is_stmt 1 view .LVU373
 1589              	.L62:
 734:USB_Device/Target/usbd_conf.c **** 
 1590              		.loc 1 734 1 is_stmt 0 view .LVU374
 1591              		@ sp needed
 1592              	.LVL156:
 734:USB_Device/Target/usbd_conf.c **** 
 1593              		.loc 1 734 1 view .LVU375
 1594 0038 10BD     		pop	{r4, pc}
 1595              	.LVL157:
 1596              	.L67:
 711:USB_Device/Target/usbd_conf.c **** 
 1597              		.loc 1 711 7 is_stmt 1 view .LVU376
 1598 003a FFF7FEFF 		bl	SystemClockConfig_Resume
 1599              	.LVL158:
 714:USB_Device/Target/usbd_conf.c ****           (uint32_t)(SCB_SCR_SLEEPDEEP_Msk | SCB_SCR_SLEEPONEXIT_Msk));
 1600              		.loc 1 714 7 view .LVU377
 714:USB_Device/Target/usbd_conf.c ****           (uint32_t)(SCB_SCR_SLEEPDEEP_Msk | SCB_SCR_SLEEPONEXIT_Msk));
 1601              		.loc 1 714 10 is_stmt 0 view .LVU378
 1602 003e 034A     		ldr	r2, .L68
 1603 0040 1369     		ldr	r3, [r2, #16]
 714:USB_Device/Target/usbd_conf.c ****           (uint32_t)(SCB_SCR_SLEEPDEEP_Msk | SCB_SCR_SLEEPONEXIT_Msk));
 1604              		.loc 1 714 16 view .LVU379
 1605 0042 0621     		movs	r1, #6
 1606 0044 8B43     		bics	r3, r1
 1607 0046 1361     		str	r3, [r2, #16]
 1608 0048 F1E7     		b	.L66
 1609              	.L69:
 1610 004a C046     		.align	2
 1611              	.L68:
 1612 004c 00ED00E0 		.word	-536810240
 1613              		.cfi_endproc
 1614              	.LFE397:
 1616              		.section	.text.USBD_static_malloc,"ax",%progbits
 1617              		.align	1
 1618              		.global	USBD_static_malloc
ARM GAS  /tmp/cc3SrZzl.s 			page 49


 1619              		.syntax unified
 1620              		.code	16
 1621              		.thumb_func
 1623              	USBD_static_malloc:
 1624              	.LVL159:
 1625              	.LFB398:
 742:USB_Device/Target/usbd_conf.c ****   static uint32_t mem[(sizeof(USBD_CDC_HandleTypeDef)/4)+1];/* On 32-bit boundary */
 1626              		.loc 1 742 1 is_stmt 1 view -0
 1627              		.cfi_startproc
 1628              		@ args = 0, pretend = 0, frame = 0
 1629              		@ frame_needed = 0, uses_anonymous_args = 0
 1630              		@ link register save eliminated.
 743:USB_Device/Target/usbd_conf.c ****   return mem;
 1631              		.loc 1 743 3 view .LVU381
 744:USB_Device/Target/usbd_conf.c **** }
 1632              		.loc 1 744 3 view .LVU382
 744:USB_Device/Target/usbd_conf.c **** }
 1633              		.loc 1 744 10 is_stmt 0 discriminator 1 view .LVU383
 1634 0000 0048     		ldr	r0, .L71
 1635              	.LVL160:
 745:USB_Device/Target/usbd_conf.c **** 
 1636              		.loc 1 745 1 view .LVU384
 1637              		@ sp needed
 1638 0002 7047     		bx	lr
 1639              	.L72:
 1640              		.align	2
 1641              	.L71:
 1642 0004 00000000 		.word	mem.0
 1643              		.cfi_endproc
 1644              	.LFE398:
 1646              		.section	.text.USBD_static_free,"ax",%progbits
 1647              		.align	1
 1648              		.global	USBD_static_free
 1649              		.syntax unified
 1650              		.code	16
 1651              		.thumb_func
 1653              	USBD_static_free:
 1654              	.LVL161:
 1655              	.LFB399:
 753:USB_Device/Target/usbd_conf.c **** 
 1656              		.loc 1 753 1 is_stmt 1 view -0
 1657              		.cfi_startproc
 1658              		@ args = 0, pretend = 0, frame = 0
 1659              		@ frame_needed = 0, uses_anonymous_args = 0
 1660              		@ link register save eliminated.
 755:USB_Device/Target/usbd_conf.c **** 
 1661              		.loc 1 755 1 view .LVU386
 1662              		@ sp needed
 1663 0000 7047     		bx	lr
 1664              		.cfi_endproc
 1665              	.LFE399:
 1667              		.section	.text.USBD_LL_Delay,"ax",%progbits
 1668              		.align	1
 1669              		.global	USBD_LL_Delay
 1670              		.syntax unified
 1671              		.code	16
 1672              		.thumb_func
ARM GAS  /tmp/cc3SrZzl.s 			page 50


 1674              	USBD_LL_Delay:
 1675              	.LVL162:
 1676              	.LFB400:
 763:USB_Device/Target/usbd_conf.c ****   HAL_Delay(Delay);
 1677              		.loc 1 763 1 view -0
 1678              		.cfi_startproc
 1679              		@ args = 0, pretend = 0, frame = 0
 1680              		@ frame_needed = 0, uses_anonymous_args = 0
 763:USB_Device/Target/usbd_conf.c ****   HAL_Delay(Delay);
 1681              		.loc 1 763 1 is_stmt 0 view .LVU388
 1682 0000 10B5     		push	{r4, lr}
 1683              	.LCFI29:
 1684              		.cfi_def_cfa_offset 8
 1685              		.cfi_offset 4, -8
 1686              		.cfi_offset 14, -4
 764:USB_Device/Target/usbd_conf.c **** }
 1687              		.loc 1 764 3 is_stmt 1 view .LVU389
 1688 0002 FFF7FEFF 		bl	HAL_Delay
 1689              	.LVL163:
 765:USB_Device/Target/usbd_conf.c **** 
 1690              		.loc 1 765 1 is_stmt 0 view .LVU390
 1691              		@ sp needed
 1692 0006 10BD     		pop	{r4, pc}
 1693              		.cfi_endproc
 1694              	.LFE400:
 1696              		.section	.bss.mem.0,"aw",%nobits
 1697              		.align	2
 1700              	mem.0:
 1701 0000 00000000 		.space	544
 1701      00000000 
 1701      00000000 
 1701      00000000 
 1701      00000000 
 1702              		.global	hpcd_USB_DRD_FS
 1703              		.section	.bss.hpcd_USB_DRD_FS,"aw",%nobits
 1704              		.align	2
 1707              	hpcd_USB_DRD_FS:
 1708 0000 00000000 		.space	736
 1708      00000000 
 1708      00000000 
 1708      00000000 
 1708      00000000 
 1709              		.text
 1710              	.Letext0:
 1711              		.file 2 "Drivers/CMSIS/Device/ST/STM32G0xx/Include/stm32g0b1xx.h"
 1712              		.file 3 "/usr/lib/gcc/arm-none-eabi/13.2.1/include/stdint.h"
 1713              		.file 4 "Drivers/CMSIS/Include/core_cm0plus.h"
 1714              		.file 5 "Drivers/CMSIS/Device/ST/STM32G0xx/Include/stm32g0xx.h"
 1715              		.file 6 "Drivers/STM32G0xx_HAL_Driver/Inc/stm32g0xx_hal_def.h"
 1716              		.file 7 "Drivers/STM32G0xx_HAL_Driver/Inc/stm32g0xx_hal_rcc_ex.h"
 1717              		.file 8 "Drivers/STM32G0xx_HAL_Driver/Inc/stm32g0xx_ll_usb.h"
 1718              		.file 9 "Drivers/STM32G0xx_HAL_Driver/Inc/stm32g0xx_hal_pcd.h"
 1719              		.file 10 "Middlewares/ST/STM32_USB_Device_Library/Core/Inc/usbd_def.h"
 1720              		.file 11 "Drivers/STM32G0xx_HAL_Driver/Inc/stm32g0xx_hal_pcd_ex.h"
 1721              		.file 12 "Middlewares/ST/STM32_USB_Device_Library/Core/Inc/usbd_core.h"
 1722              		.file 13 "Drivers/STM32G0xx_HAL_Driver/Inc/stm32g0xx_hal.h"
 1723              		.file 14 "Drivers/STM32G0xx_HAL_Driver/Inc/stm32g0xx_hal_cortex.h"
ARM GAS  /tmp/cc3SrZzl.s 			page 51


 1724              		.file 15 "Drivers/STM32G0xx_HAL_Driver/Inc/stm32g0xx_hal_pwr_ex.h"
 1725              		.file 16 "Drivers/STM32G0xx_HAL_Driver/Inc/stm32g0xx_ll_dma.h"
 1726              		.file 17 "<built-in>"
ARM GAS  /tmp/cc3SrZzl.s 			page 52

